 app

 Timestamp is 6006a33b (Tue Jan 19 10:15:39 2021)

 Preferred load address is 10000000

 Start         Length     Name                   Class
 0001:00000000 000004b4H .text                   CODE
 0001:000004c0 0004fb3aH .text$mn                CODE
 0001:00050000 0000007bH .text$x                 CODE
 0002:00000000 0000014cH .idata$5                DATA
 0002:0000014c 00000004H .00cfg                  DATA
 0002:00000150 00000004H .CRT$XCA                DATA
 0002:00000154 00000004H .CRT$XCZ                DATA
 0002:00000158 00000004H .CRT$XIA                DATA
 0002:0000015c 0000000cH .CRT$XIC                DATA
 0002:00000168 00000004H .CRT$XIZ                DATA
 0002:0000016c 00000004H .CRT$XPA                DATA
 0002:00000170 00000008H .CRT$XPX                DATA
 0002:00000178 00000004H .CRT$XPXA               DATA
 0002:0000017c 00000004H .CRT$XPZ                DATA
 0002:00000180 00000004H .CRT$XTA                DATA
 0002:00000184 00000004H .CRT$XTZ                DATA
 0002:00000190 00015fb4H .rdata                  DATA
 0002:00016144 000000dcH .rdata$r                DATA
 0002:00016220 00000020H .rdata$sxdata           DATA
 0002:00016240 00000010H .rdata$zETW0            DATA
 0002:00016250 00000077H .rdata$zETW1            DATA
 0002:000162c7 0000002cH .rdata$zETW2            DATA
 0002:000162f3 00000001H .rdata$zETW9            DATA
 0002:000162f4 00000350H .rdata$zzzdbg           DATA
 0002:00016644 00000004H .rtc$IAA                DATA
 0002:00016648 00000004H .rtc$IZZ                DATA
 0002:0001664c 00000004H .rtc$TAA                DATA
 0002:00016650 00000004H .rtc$TZZ                DATA
 0002:00016658 00000750H .xdata$x                DATA
 0002:00016db0 0000006aH .edata                  DATA
 0002:00016e1c 0000003cH .idata$2                DATA
 0002:00016e58 00000014H .idata$3                DATA
 0002:00016e6c 0000014cH .idata$4                DATA
 0002:00016fb8 000005e6H .idata$6                DATA
 0003:00000000 00004810H .data                   DATA
 0003:00004810 00000054H .data$r                 DATA
 0003:00004868 00000f7cH .bss                    DATA
 0004:00000000 00000090H .gfids$x                DATA
 0004:00000090 00000044H .gfids$y                DATA

  Address         Publics by Value              Rva+Base       Lib:Object

 0000:00000000       ___guard_longjmp_count     00000000     <absolute>
 0000:00000000       ___guard_fids_count        00000000     <absolute>
 0000:00000000       __except_list              00000000     <absolute>
 0000:00000000       ___guard_longjmp_table     00000000     <absolute>
 0000:00000000       ___guard_iat_table         00000000     <absolute>
 0000:00000000       ___guard_iat_count         00000000     <absolute>
 0000:00000000       ___guard_fids_table        00000000     <absolute>
 0000:00000008       ___safe_se_handler_count   00000008     <absolute>
 0000:00000100       ___guard_flags             00000100     <absolute>
 0000:00000000       ___ImageBase               10000000     <linker-defined>
 0001:00000000       ?TraceLoggingRegister@__vcrt_trace_logging_provider@@YAJPBU_TlgProvider_t@1@PBU_GUID@@P6GX1KE_K2PAU_EVENT_FILTER_DESCRIPTOR@@PAX@Z4@Z 10001000 f i libvcruntimed:telemetry.obj
 0001:000000c0       ?TraceLoggingSetInformation@__vcrt_trace_logging_provider@@YAJPBU_TlgProvider_t@1@W4_EVENT_INFO_CLASS@@PAXK@Z 100010c0 f i libvcruntimed:telemetry.obj
 0001:00000100       ?TraceLoggingUnregister@__vcrt_trace_logging_provider@@YAXPBU_TlgProvider_t@1@@Z 10001100 f i libvcruntimed:telemetry.obj
 0001:00000130       ?_TlgCreateSz@__vcrt_trace_logging_provider@@YAXPAU_EVENT_DATA_DESCRIPTOR@@PBD@Z 10001130 f i libvcruntimed:telemetry.obj
 0001:00000180       ?_TlgCreateWsz@__vcrt_trace_logging_provider@@YAXPAU_EVENT_DATA_DESCRIPTOR@@PB_W@Z 10001180 f i libvcruntimed:telemetry.obj
 0001:000001d0       ?_TlgEnableCallback@__vcrt_trace_logging_provider@@YGXPBU_GUID@@KE_K1PAU_EVENT_FILTER_DESCRIPTOR@@PAX@Z 100011d0 f i libvcruntimed:telemetry.obj
 0001:000002a0       ?_TlgKeywordOn@__vcrt_trace_logging_provider@@YAEPBU_TlgProvider_t@1@_K@Z 100012a0 f i libvcruntimed:telemetry.obj
 0001:00000310       ?_TlgWrite@__vcrt_trace_logging_provider@@YAJPBU_TlgProvider_t@1@PBXPBU_GUID@@2IPAU_EVENT_DATA_DESCRIPTOR@@@Z 10001310 f i libvcruntimed:telemetry.obj
 0001:000004d0       _WinMain@16                100014d0 f   app.obj
 0001:00000a90       ?HashString@@YA?AUhash_string_result@@PAD@Z 10001a90 f   app.obj
 0001:000014b0       _stbtt_BakeFontBitmap      100024b0 f   app.obj
 0001:000014f0       _stbtt_GetBakedQuad        100024f0 f   app.obj
 0001:000016b0       _stbtt_GetScaledFontVMetrics 100026b0 f   app.obj
 0001:00001790       _stbtt_PackBegin           10002790 f   app.obj
 0001:000018c0       _stbtt_PackEnd             100028c0 f   app.obj
 0001:000018f0       _stbtt_PackFontRange       100028f0 f   app.obj
 0001:00001940       _stbtt_PackFontRanges      10002940 f   app.obj
 0001:00001ae0       _stbtt_PackSetOversampling 10002ae0 f   app.obj
 0001:00001b40       _stbtt_PackSetSkipMissingCodepoints 10002b40 f   app.obj
 0001:00001b50       _stbtt_GetPackedQuad       10002b50 f   app.obj
 0001:00001d50       _stbtt_PackFontRangesGatherRects 10002d50 f   app.obj
 0001:00001fc0       _stbtt_PackFontRangesPackRects 10002fc0 f   app.obj
 0001:00001fe0       _stbtt_PackFontRangesRenderIntoRects 10002fe0 f   app.obj
 0001:000025d0       _stbtt_GetNumberOfFonts    100035d0 f   app.obj
 0001:000025f0       _stbtt_GetFontOffsetForIndex 100035f0 f   app.obj
 0001:00002610       _stbtt_InitFont            10003610 f   app.obj
 0001:00002630       _stbtt_FindGlyphIndex      10003630 f   app.obj
 0001:00002a90       _stbtt_ScaleForPixelHeight 10003a90 f   app.obj
 0001:00002af0       _stbtt_ScaleForMappingEmToPixels 10003af0 f   app.obj
 0001:00002b30       _stbtt_GetFontVMetrics     10003b30 f   app.obj
 0001:00002bb0       _stbtt_GetFontVMetricsOS2  10003bb0 f   app.obj
 0001:00002c60       _stbtt_GetFontBoundingBox  10003c60 f   app.obj
 0001:00002cf0       _stbtt_GetCodepointHMetrics 10003cf0 f   app.obj
 0001:00002d20       _stbtt_GetCodepointKernAdvance 10003d20 f   app.obj
 0001:00002d70       _stbtt_GetCodepointBox     10003d70 f   app.obj
 0001:00002db0       _stbtt_GetGlyphHMetrics    10003db0 f   app.obj
 0001:00002ea0       _stbtt_GetGlyphKernAdvance 10003ea0 f   app.obj
 0001:00002f00       _stbtt_GetGlyphBox         10003f00 f   app.obj
 0001:00002ff0       _stbtt_GetKerningTableLength 10003ff0 f   app.obj
 0001:00003060       _stbtt_GetKerningTable     10004060 f   app.obj
 0001:00003170       _stbtt_IsGlyphEmpty        10004170 f   app.obj
 0001:00003210       _stbtt_GetCodepointShape   10004210 f   app.obj
 0001:00003240       _stbtt_GetGlyphShape       10004240 f   app.obj
 0001:00003280       _stbtt_FreeShape           10004280 f   app.obj
 0001:000032a0       _stbtt_GetCodepointSVG     100042a0 f   app.obj
 0001:000032d0       _stbtt_GetGlyphSVG         100042d0 f   app.obj
 0001:00003340       _stbtt_FreeBitmap          10004340 f   app.obj
 0001:00003360       _stbtt_GetCodepointBitmap  10004360 f   app.obj
 0001:000033c0       _stbtt_GetCodepointBitmapSubpixel 100043c0 f   app.obj
 0001:00003420       _stbtt_MakeCodepointBitmap 10004420 f   app.obj
 0001:00003480       _stbtt_MakeCodepointBitmapSubpixel 10004480 f   app.obj
 0001:000034e0       _stbtt_MakeCodepointBitmapSubpixelPrefilter 100044e0 f   app.obj
 0001:00003550       _stbtt_GetCodepointBitmapBox 10004550 f   app.obj
 0001:000035b0       _stbtt_GetCodepointBitmapBoxSubpixel 100045b0 f   app.obj
 0001:00003610       _stbtt_GetGlyphBitmap      10004610 f   app.obj
 0001:00003670       _stbtt_GetGlyphBitmapSubpixel 10004670 f   app.obj
 0001:00003830       _stbtt_MakeGlyphBitmap     10004830 f   app.obj
 0001:00003890       _stbtt_MakeGlyphBitmapSubpixel 10004890 f   app.obj
 0001:00003990       _stbtt_MakeGlyphBitmapSubpixelPrefilter 10004990 f   app.obj
 0001:00003a60       _stbtt_GetGlyphBitmapBox   10004a60 f   app.obj
 0001:00003ac0       _stbtt_GetGlyphBitmapBoxSubpixel 10004ac0 f   app.obj
 0001:00003c30       _stbtt_Rasterize           10004c30 f   app.obj
 0001:00003d20       _stbtt_FreeSDF             10004d20 f   app.obj
 0001:00003d40       _stbtt_GetGlyphSDF         10004d40 f   app.obj
 0001:000052d0       _stbtt_GetCodepointSDF     100062d0 f   app.obj
 0001:00005330       _stbtt_FindMatchingFont    10006330 f   app.obj
 0001:00005350       _stbtt_CompareUTF8toUTF16_bigendian 10006350 f   app.obj
 0001:00005370       _stbtt_GetFontNameString   10006370 f   app.obj
 0001:0000a500       ?stbtt_FindSVGDoc@@YAPAEPBUstbtt_fontinfo@@H@Z 1000b500 f   app.obj
 0001:00012d00       ?MakeGroundedTreeCollisionVolume@@YAPAUentity_collision_volume_group@@PAUmemory_arena@@@Z 10013d00 f   app.obj
 0001:00018fe0       _AppUpdateAndRender        10019fe0 f   app.obj
 0001:0001c530       _AppGetSoundSamples        1001d530 f   app.obj
 0001:0001c5b0       ??D@YA?AUv2@@MU0@@Z        1001d5b0 f i app.obj
 0001:0001c5e0       ??D@YA?AUv2@@U0@0@Z        1001d5e0 f i app.obj
 0001:0001c610       ??D@YA?AUv2@@U0@M@Z        1001d610 f i app.obj
 0001:0001c640       ??D@YA?AUv3@@MU0@@Z        1001d640 f i app.obj
 0001:0001c6b0       ??D@YA?AUv3@@U0@M@Z        1001d6b0 f i app.obj
 0001:0001c720       ??G@YA?AUv2@@U0@0@Z        1001d720 f i app.obj
 0001:0001c750       ??G@YA?AUv3@@U0@0@Z        1001d750 f i app.obj
 0001:0001c7c0       ??G@YA?AUv3@@U0@@Z         1001d7c0 f i app.obj
 0001:0001c830       ??H@YA?AUv2@@U0@0@Z        1001d830 f i app.obj
 0001:0001c860       ??H@YA?AUv3@@U0@0@Z        1001d860 f i app.obj
 0001:0001c8d0       ??X@YAAAUv2@@AAU0@M@Z      1001d8d0 f i app.obj
 0001:0001c910       ??X@YAAAUv3@@AAU0@M@Z      1001d910 f i app.obj
 0001:0001c990       ??Y@YAAAUv3@@AAU0@U0@@Z    1001d990 f i app.obj
 0001:0001ca10       ??Z@YAAAUv3@@AAU0@U0@@Z    1001da10 f i app.obj
 0001:0001ca90       ?AcquireTexture@@YA?AUloaded_texture@@PAUapp_state@@PAD@Z 1001da90 f i app.obj
 0001:0001caf0       ?AddPlayerDelayedAttack@@YAXPAUapp_state@@MUv2@@@Z 1001daf0 f i app.obj
 0001:0001cb70       ?AddPlayerDelayedCast@@YAXPAUapp_state@@MUv2@@@Z 1001db70 f i app.obj
 0001:0001cbf0       ?AddPlayerDelayedMove@@YAXPAUapp_state@@MUv2@@@Z 1001dbf0 f i app.obj
 0001:0001cc70       ?AllocateSize@@YAPAXPAUmemory_arena@@II@Z 1001dc70 f i app.obj
 0001:0001cce0       ?AtomicCompareExchangeU32@@YAIPCIII@Z 1001dce0 f i app.obj
 0001:0001cd00       ?BeginBatch@@YAXPAUrender_context@@IMUrender_program@@@Z 1001dd00 f i app.obj
 0001:0001cda0       ?BeginContainer@@YAXPAUui_context@@MMMM@Z 1001dda0 f i app.obj
 0001:0001ce40       ?BeginTemporaryMemory@@YA?AUtemporary_memory@@PAUmemory_arena@@@Z 1001de40 f i app.obj
 0001:0001ce70       ?CanCollide@@YAHPAUapp_state@@W4entity_type@@1@Z 1001de70 f i app.obj
 0001:0001cea0       ?CannonicalizePosition@@YA?AUcannonical_position@@Uv3@@III@Z 1001dea0 f i app.obj
 0001:0001d040       ?CeilFloatToUInt32@@YAIM@Z 1001e040 f i app.obj
 0001:0001d080       ?CenterCamera@@YA?AUv3@@U1@MMMMII@Z 1001e080 f i app.obj
 0001:0001d280       ?ClipRectangle@@YA?AUv4@@MMMMMMMM@Z 1001e280 f i app.obj
 0001:0001d390       ?DoAnimation@@YA?AUv4@@PAUanimation_state@@IIIIMMPAUanimation_set@@W4animation_type@@W4animation_direction@@@Z 1001e390 f i app.obj
 0001:0001d4d0       ?DotProduct@@YAMUv3@@0@Z   1001e4d0 f i app.obj
 0001:0001d510       ?EndBatch@@YAXPAUrender_context@@@Z 1001e510 f i app.obj
 0001:0001d540       ?EndContainer@@YAXPAUui_context@@@Z 1001e540 f i app.obj
 0001:0001d5b0       ?EndTemporaryMemory@@YAXUtemporary_memory@@@Z 1001e5b0 f i app.obj
 0001:0001d630       ?GetAlignmentOffset@@YAIPAUmemory_arena@@I@Z 1001e630 f i app.obj
 0001:0001d680       ?GetAnimation@@YAPAUanimation_slot@@PAUanimation_set@@W4animation_type@@W4animation_direction@@@Z 1001e680 f i app.obj
 0001:0001d6a0       ?GetAsset@@YAPAUasset@@PAUassets@@Uasset_id@@@Z 1001e6a0 f i app.obj
 0001:0001d710       ?GetAssetInfo@@YAPAUzas_asset_info@@PAUassets@@Uasset_id@@@Z 1001e710 f i app.obj
 0001:0001d780       ?GetAudio@@YAPAUloaded_audio@@PAUassets@@PAUapp_state@@Uasset_id@@@Z 1001e780 f i app.obj
 0001:0001d7e0       ?GetChunk@@YAPAUworld_chunk@@PAUworld@@III@Z 1001e7e0 f i app.obj
 0001:0001d840       ?GetChunksFromEntity@@YAXPAUworld@@PAUworld_entity@@PAI22222@Z 1001e840 f i app.obj
 0001:0001d990       ?GetController@@YAPAUapp_controller_input@@PAUapp_input@@H@Z 1001e990 f i app.obj
 0001:0001d9c0       ?GetTexture@@YAPAUloaded_texture@@PAUassets@@PAUapp_state@@Uasset_id@@@Z 1001e9c0 f i app.obj
 0001:0001da20       ?GetTextureUvsFromIndex@@YA?AUv4@@IIIII@Z 1001ea20 f i app.obj
 0001:0001db90       ?GetTotalVolume@@YA?AUentity_collision_volume@@PAU1@I@Z 1001eb90 f i app.obj
 0001:0001de20       ?InitializeArena@@YAXPAUmemory_arena@@PAII@Z 1001ee20 f i app.obj
 0001:0001de50       ?IsAnimationFinished@@YAHPAUanimation_set@@PAUanimation_state@@W4animation_type@@W4animation_direction@@@Z 1001ee50 f i app.obj
 0001:0001dea0       ?IsMouseOnRectangle@@YAHHHMMMM@Z 1001eea0 f i app.obj
 0001:0001df00       ?Length@@YAMUv3@@@Z        1001ef00 f i app.obj
 0001:0001df40       ?LengthSq@@YAMUv3@@@Z      1001ef40 f i app.obj
 0001:0001df90       ?MakeSimpleGroundedCollisionVolume@@YAPAUentity_collision_volume_group@@PAUmemory_arena@@Uv3@@@Z 1001ef90 f i app.obj
 0001:0001e090       ?Maximum3@@YA?AUv3@@U1@0@Z 1001f090 f i app.obj
 0001:0001e150       ?Minimum3@@YA?AUv3@@U1@0@Z 1001f150 f i app.obj
 0001:0001e210       ?NextRandomNumberU32@@YAIPAUrandom_series@@@Z 1001f210 f i app.obj
 0001:0001e250       ?OrthoMatrix@@YA?AUmat4@@MMMMMM@Z 1001f250 f i app.obj
 0001:0001e3c0       ?RandomChoice@@YAIPAUrandom_series@@I@Z 1001f3c0 f i app.obj
 0001:0001e3e0       ?RectCenterHalfDims@@YA?AUrectangle2@@Uv2@@0@Z 1001f3e0 f i app.obj
 0001:0001e470       ?RectCenterHalfDims@@YA?AUrectangle3@@Uv3@@0@Z 1001f470 f i app.obj
 0001:0001e570       ?RectMinMax@@YA?AUrectangle3@@Uv3@@0@Z 1001f570 f i app.obj
 0001:0001e5e0       ?RectanglesIntersect@@YAHUrectangle2@@0@Z 1001f5e0 f i app.obj
 0001:0001e630       ?RectanglesIntersect@@YAHUrectangle3@@0@Z 1001f630 f i app.obj
 0001:0001e6a0       ?RemoveEntity@@YAHPAUworld@@PAUworld_entity@@@Z 1001f6a0 f i app.obj
 0001:0001e8a0       ?RenderProgramUse@@YAXPAUrender_context@@PAUrender_program@@@Z 1001f8a0 f i app.obj
 0001:0001e960       ?RenderText@@YAXPAUrender_context@@MMMMUv4@@PAUfont@@Urender_program@@PADIIM@Z 1001f960 f i app.obj
 0001:0001eac0       ?RenderVertex@@YAXPAUrender_context@@MMMI@Z 1001fac0 f i app.obj
 0001:0001eb30       ?RenderVertex@@YAXPAUrender_context@@MMMIMM@Z 1001fb30 f i app.obj
 0001:0001eba0       ?RoundFloatToI32@@YAHM@Z   1001fba0 f i app.obj
 0001:0001ebd0       ?RoundFloatToU32@@YAIM@Z   1001fbd0 f i app.obj
 0001:0001ec10       ?Seed@@YA?AUrandom_series@@I@Z 1001fc10 f i app.obj
 0001:0001ec30       ?SetCollision@@YAXPAUapp_state@@W4entity_type@@1H@Z 1001fc30 f i app.obj
 0001:0001ec70       ?Sin@@YAMM@Z               1001fc70 f i app.obj
 0001:0001eca0       ?Square@@YAMM@Z            1001fca0 f i app.obj
 0001:0001ecc0       ?SquareRoot@@YAMM@Z        1001fcc0 f i app.obj
 0001:0001ecf0       ?SubArena@@YAXPAUmemory_arena@@0II@Z 1001fcf0 f i app.obj
 0001:0001ed30       ?UIContextGetCurrentContainer@@YAPAUui_container@@PAUui_context@@@Z 1001fd30 f i app.obj
 0001:0001ed60       ?UIContextInsertElement@@YAPAUui_element@@PAUui_context@@@Z 1001fd60 f i app.obj
 0001:0001ed90       ?UIContextInsertElement@@YAPAUui_element@@PAUui_context@@W4ui_element_type@@MMUv4@@PAUui_state@@MM@Z 1001fd90 f i app.obj
 0001:0001ee10       ?UIEnd@@YAXPAUui_context@@@Z 1001fe10 f i app.obj
 0001:0001ef10       ?UploadAudio@@YAXPAUassets@@Uloaded_audio@@Uasset_id@@@Z 1001ff10 f i app.obj
 0001:0001ef60       ?UploadTexture@@YAXPAUassets@@Uloaded_texture@@Uasset_id@@@Z 1001ff60 f i app.obj
 0001:0001efa0       ?V2@@YA?AUv2@@II@Z         1001ffa0 f i app.obj
 0001:0001f010       ?V2@@YA?AUv2@@MM@Z         10020010 f i app.obj
 0001:0001f040       ?V3@@YA?AUv3@@III@Z        10020040 f i app.obj
 0001:0001f0f0       ?V3@@YA?AUv3@@MMM@Z        100200f0 f i app.obj
 0001:0001f150       ?ZeroSize@@YAXPAXI@Z       10020150 f i app.obj
 0001:0001f170       _ceilf                     10020170 f i app.obj
 0001:0001f1b0       _sinf                      100201b0 f i app.obj
 0001:0001f1d0       _sqrtf                     100201d0 f i app.obj
 0001:0001f1f0       @__security_check_cookie@4 100201f0 f   LIBCMTD:_secchk_.obj
 0001:0001f210       __ftol2_sse                10020210 f   LIBCMTD:_ftol2_.obj
 0001:0001f219       __ftol2_pentium4           10020219 f   LIBCMTD:_ftol2_.obj
 0001:0001f22c       __ftol2_sse_excpt          1002022c f   LIBCMTD:_ftol2_.obj
 0001:0001f250       __ftol2                    10020250 f   LIBCMTD:_ftol2_.obj
 0001:0001f2d0       __ftoui3                   100202d0 f   LIBCMTD:_ftol3_.obj
 0001:0001f2df       __ftoul3                   100202df f   LIBCMTD:_ftol3_.obj
 0001:0001f2ee       __ftol3                    100202ee f   LIBCMTD:_ftol3_.obj
 0001:0001f2fb       __ftol3_NaN                100202fb f   LIBCMTD:_ftol3_.obj
 0001:0001f313       __ftol3_work               10020313 f   LIBCMTD:_ftol3_.obj
 0001:0001f399       __ftol3_common             10020399 f   LIBCMTD:_ftol3_.obj
 0001:0001f45b       __ftol3_arg_error          1002045b f   LIBCMTD:_ftol3_.obj
 0001:0001f46d       __ftol3_except             1002046d f   LIBCMTD:_ftol3_.obj
 0001:0001f4b1       __dtoui3                   100204b1 f   LIBCMTD:_ftol3_.obj
 0001:0001f4c0       __dtoul3                   100204c0 f   LIBCMTD:_ftol3_.obj
 0001:0001f4cf       __dtol3                    100204cf f   LIBCMTD:_ftol3_.obj
 0001:0001f4dc       __dtol3_NaN                100204dc f   LIBCMTD:_ftol3_.obj
 0001:0001f4f9       __dtol3_work               100204f9 f   LIBCMTD:_ftol3_.obj
 0001:0001f5e0       __ultod3                   100205e0 f   LIBCMTD:_ftol3_.obj
 0001:0001f620       __ltod3                    10020620 f   LIBCMTD:_ftol3_.obj
 0001:0001fb00       __DllMainCRTStartup@12     10020b00 f   LIBCMTD:dll_dllmain.obj
 0001:0001fb30       ___raise_securityfailure   10020b30 f   LIBCMTD:gs_report.obj
 0001:0001fb60       ___report_gsfailure        10020b60 f   LIBCMTD:gs_report.obj
 0001:0001fc70       ___report_rangecheckfailure 10020c70 f   LIBCMTD:gs_report.obj
 0001:0001fc80       ___report_securityfailure  10020c80 f   LIBCMTD:gs_report.obj
 0001:0001fd60       ___isa_available_init      10020d60 f   LIBCMTD:_cpu_disp_.obj
 0001:00020040       ??$__crt_fast_decode_pointer@PAP6AXXZ@@YAPAP6AXXZQAP6AXXZ@Z 10021040 f i LIBCMTD:utility.obj
 0001:00020040       ??$__crt_fast_decode_pointer@PAX@@YAPAXQAX@Z 10021040 f i libvcruntimed:winapi_downlevel.obj
 0001:00020040       ??$__crt_fast_decode_pointer@P6AXXZ@@YAP6AXXZQ6AXXZ@Z 10021040 f i libvcruntimed:purevirt.obj
 0001:00020070       ?__crt_rotate_pointer_value@@YAIIH@Z 10021070 f i LIBCMTD:utility.obj
 0001:00020180       _NtCurrentTeb              10021180 f i LIBCMTD:utility.obj
 0001:00020190       ___scrt_acquire_startup_lock 10021190 f   LIBCMTD:utility.obj
 0001:000201e0       ___scrt_dllmain_after_initialize_c 100211e0 f   LIBCMTD:utility.obj
 0001:00020200       ___scrt_dllmain_before_initialize_c 10021200 f   LIBCMTD:utility.obj
 0001:00020220       ___scrt_dllmain_crt_thread_attach 10021220 f   LIBCMTD:utility.obj
 0001:00020250       ___scrt_dllmain_crt_thread_detach 10021250 f   LIBCMTD:utility.obj
 0001:00020270       ___scrt_dllmain_exception_filter 10021270 f   LIBCMTD:utility.obj
 0001:000202c0       ___scrt_dllmain_uninitialize_c 100212c0 f   LIBCMTD:utility.obj
 0001:000202f0       ___scrt_dllmain_uninitialize_critical 100212f0 f   LIBCMTD:utility.obj
 0001:00020310       ___scrt_initialize_crt     10021310 f   LIBCMTD:utility.obj
 0001:00020360       ___scrt_initialize_onexit_tables 10021360 f   LIBCMTD:utility.obj
 0001:00020430       ___scrt_is_nonwritable_in_current_image 10021430 f   LIBCMTD:utility.obj
 0001:00020560       ___scrt_release_startup_lock 10021560 f   LIBCMTD:utility.obj
 0001:00020590       ___scrt_uninitialize_crt   10021590 f   LIBCMTD:utility.obj
 0001:000205d0       __onexit                   100215d0 f   LIBCMTD:utility.obj
 0001:00020640       _atexit                    10021640 f   LIBCMTD:utility.obj
 0001:00020670       ___security_init_cookie    10021670 f   LIBCMTD:gs_support.obj
 0001:00020750       _DllMain@12                10021750 f   LIBCMTD:dll_dllmain_stub.obj
 0001:00020760       ?__scrt_initialize_type_info@@YAXXZ 10021760 f   LIBCMTD:tncleanup.obj
 0001:00020770       ?__scrt_uninitialize_type_info@@YAXXZ 10021770 f   LIBCMTD:tncleanup.obj
 0001:00020790       ___local_stdio_printf_options 10021790 f i LIBCMTD:default_local_stdio_options.obj
 0001:000207a0       ___local_stdio_scanf_options 100217a0 f i LIBCMTD:default_local_stdio_options.obj
 0001:000207b0       ___scrt_initialize_default_local_stdio_options 100217b0 f   LIBCMTD:default_local_stdio_options.obj
 0001:000207f0       ___scrt_get_dyn_tls_init_callback 100217f0 f   LIBCMTD:dyn_tls_init.obj
 0001:00020800       ___scrt_fastfail           10021800 f   LIBCMTD:utility_desktop.obj
 0001:00020940       __crt_debugger_hook        10021940 f   LIBCMTD:utility_desktop.obj
 0001:00020950       __RTC_Initialize           10021950 f   LIBCMTD:_initsect_.obj
 0001:00020980       __RTC_Terminate            10021980 f   LIBCMTD:_initsect_.obj
 0001:000209b0       @_guard_check_icall@4      100219b0 f i LIBCMTD:checkcfg.obj
 0001:000209d0       ___scrt_is_ucrt_dll_in_use 100219d0 f   LIBCMTD:ucrt_detection.obj
 0001:00020a00       @_guard_check_icall_nop@4  10021a00 f i LIBCMTD:guard_support.obj
 0001:00020a10       __guard_icall_checks_enforced 10021a10 f i LIBCMTD:guard_support.obj
 0001:00020a38       _IsProcessorFeaturePresent@4 10021a38 f   kernel32:KERNEL32.dll
 0001:00020bf0       _memcmp                    10021bf0 f   libvcruntimed:_memcmp_.obj
 0001:000214c0       _memcpy                    100224c0 f   libvcruntimed:memcpy.obj
 0001:00021a40       _memset                    10022a40 f   libvcruntimed:memset.obj
 0001:00021c00       _EventDataDescCreate       10022c00 f i libvcruntimed:telemetry.obj
 0001:00021c30       _HRESULT_FROM_WIN32        10022c30 f i libvcruntimed:telemetry.obj
 0001:00021c70       ___telemetry_main_invoke_trigger 10022c70 f   libvcruntimed:telemetry.obj
 0001:00021db0       ___telemetry_main_return_trigger 10022db0 f   libvcruntimed:telemetry.obj
 0001:00021ef0       ___vcrt_initialize_telemetry_provider 10022ef0 f   libvcruntimed:telemetry.obj
 0001:00021f10       ___vcrt_uninitialize_telemetry_provider 10022f10 f   libvcruntimed:telemetry.obj
 0001:00021f90       __except_handler4          10022f90 f   libvcruntimed:_chandler4_.obj
 0001:00022160       ___vcrt_initialize         10023160 f   libvcruntimed:initialization.obj
 0001:000221a0       ___vcrt_thread_attach      100231a0 f   libvcruntimed:initialization.obj
 0001:000221c0       ___vcrt_thread_detach      100231c0 f   libvcruntimed:initialization.obj
 0001:000221e0       ___vcrt_uninitialize       100231e0 f   libvcruntimed:initialization.obj
 0001:00022210       ___vcrt_uninitialize_critical 10023210 f   libvcruntimed:initialization.obj
 0001:00022220       ??0?$__crt_unique_heap_ptr@DU__crt_public_free_policy@@@@QAE@QAD@Z 10023220 f i libvcruntimed:std_exception.obj
 0001:00022220       ??0?$__crt_unique_heap_ptr@U__vcrt_ptd@@U__crt_internal_free_policy@@@@QAE@QAU__vcrt_ptd@@@Z 10023220 f i libvcruntimed:per_thread_data.obj
 0001:00022220       ??0?$__crt_unique_heap_ptr@DU__crt_internal_free_policy@@@@QAE@QAD@Z 10023220 f i libvcruntimed:std_type_info.obj
 0001:00022240       ?is_valid@?$__crt_unique_heap_ptr@DU__crt_internal_free_policy@@@@QBE_NXZ 10023240 f i libvcruntimed:std_type_info.obj
 0001:00022240       ?is_valid@?$__crt_unique_heap_ptr@U__vcrt_ptd@@U__crt_internal_free_policy@@@@QBE_NXZ 10023240 f i libvcruntimed:per_thread_data.obj
 0001:00022240       ?is_valid@?$__crt_unique_heap_ptr@DU__crt_public_free_policy@@@@QBE_NXZ 10023240 f i libvcruntimed:std_exception.obj
 0001:00022270       ___std_type_info_compare   10023270 f   libvcruntimed:std_type_info.obj
 0001:000222a0       ___std_type_info_destroy_list 100232a0 f   libvcruntimed:std_type_info.obj
 0001:000222e0       ??$?BX@__crt_fast_encoded_nullptr_t@@QBEPAXXZ 100232e0 f i libvcruntimed:winapi_downlevel.obj
 0001:000222e0       ??$?B$$A6AXXZ@__crt_fast_encoded_nullptr_t@@QBEP6AXXZXZ 100232e0 f i libvcruntimed:purevirt_data.obj
 0001:00022300       ??$__crt_fast_encode_pointer@PAP6AXXZ@@YAPAP6AXXZQAP6AXXZ@Z 10023300 f i LIBCMTD:utility.obj
 0001:00022300       ??$__crt_fast_encode_pointer@P6AXXZ@@YAP6AXXZQ6AXXZ@Z 10023300 f i libvcruntimed:purevirt_data.obj
 0001:00022300       ??$__crt_fast_encode_pointer@PAX@@YAPAXQAX@Z 10023300 f i libvcruntimed:winapi_downlevel.obj
 0001:00022330       ??$__crt_interlocked_compare_exchange_pointer@UHINSTANCE__@@$$T$$T@@YAPAUHINSTANCE__@@PDSAU0@$$T1@Z 10023330 f i libvcruntimed:winapi_downlevel.obj
 0001:00022330       ??$__crt_interlocked_compare_exchange_pointer@X$$T$$T@@YAPAXPDSAX$$T1@Z 10023330 f i libvcruntimed:winapi_downlevel.obj
 0001:00022350       ??$__crt_interlocked_exchange_pointer@XPAX@@YAPAXPDSAXQAX@Z 10023350 f i libvcruntimed:winapi_downlevel.obj
 0001:00022350       ??$__crt_interlocked_exchange_pointer@UHINSTANCE__@@PAU1@@@YAPAUHINSTANCE__@@PDSAU0@QAU0@@Z 10023350 f i libvcruntimed:winapi_downlevel.obj
 0001:00022350       ??$__crt_interlocked_exchange_pointer@UHINSTANCE__@@PAX@@YAPAUHINSTANCE__@@PDSAU0@QAX@Z 10023350 f i libvcruntimed:winapi_downlevel.obj
 0001:00022360       ??$__crt_interlocked_read_pointer@X@@YAPAXPDSAX@Z 10023360 f i libvcruntimed:winapi_downlevel.obj
 0001:00022360       ??$__crt_interlocked_read_pointer@UHINSTANCE__@@@@YAPAUHINSTANCE__@@PDSAU0@@Z 10023360 f i libvcruntimed:winapi_downlevel.obj
 0001:00022380       ?__crt_fast_encode_pointer@@YA?AU__crt_fast_encoded_nullptr_t@@$$T@Z 10023380 f i libvcruntimed:winapi_downlevel.obj
 0001:000227d0       ___vcrt_EventRegister      100237d0 f   libvcruntimed:winapi_downlevel.obj
 0001:00022810       ___vcrt_EventSetInformation 10023810 f   libvcruntimed:winapi_downlevel.obj
 0001:00022860       ___vcrt_EventUnregister    10023860 f   libvcruntimed:winapi_downlevel.obj
 0001:000228a0       ___vcrt_EventWriteTransfer 100238a0 f   libvcruntimed:winapi_downlevel.obj
 0001:000228f0       ___vcrt_FlsAlloc           100238f0 f   libvcruntimed:winapi_downlevel.obj
 0001:00022930       ___vcrt_FlsFree            10023930 f   libvcruntimed:winapi_downlevel.obj
 0001:00022970       ___vcrt_FlsGetValue        10023970 f   libvcruntimed:winapi_downlevel.obj
 0001:000229b0       ___vcrt_FlsSetValue        100239b0 f   libvcruntimed:winapi_downlevel.obj
 0001:00022a00       ___vcrt_InitializeCriticalSectionEx 10023a00 f   libvcruntimed:winapi_downlevel.obj
 0001:00022a50       ___vcrt_initialize_winapi_thunks 10023a50 f   libvcruntimed:winapi_downlevel.obj
 0001:00022ab0       ___vcrt_uninitialize_winapi_thunks 10023ab0 f   libvcruntimed:winapi_downlevel.obj
 0001:00022b20       __local_unwind4            10023b20 f   libvcruntimed:_exsup4_.obj
 0001:00022bf6       __seh_longjmp_unwind4@4    10023bf6 f   libvcruntimed:_exsup4_.obj
 0001:00022c1e       @_EH4_CallFilterFunc@8     10023c1e f   libvcruntimed:_exsup4_.obj
 0001:00022c35       @_EH4_TransferToHandler@8  10023c35 f   libvcruntimed:_exsup4_.obj
 0001:00022c4e       @_EH4_GlobalUnwind2@8      10023c4e f   libvcruntimed:_exsup4_.obj
 0001:00022c67       @_EH4_LocalUnwind@16       10023c67 f   libvcruntimed:_exsup4_.obj
 0001:00022c80       ___except_validate_context_record 10023c80 f   libvcruntimed:jbcxrval.obj
 0001:00022cd0       ___except_validate_jump_buffer 10023cd0 f   libvcruntimed:jbcxrval.obj
 0001:00022d20       ??$?RU__vcrt_ptd@@@__crt_internal_free_policy@@QBEXQBU__vcrt_ptd@@@Z 10023d20 f i libvcruntimed:per_thread_data.obj
 0001:00022d20       ??$?RD@__crt_internal_free_policy@@QBEXQBD@Z 10023d20 f i libvcruntimed:std_type_info.obj
 0001:00022d40       ??1?$__crt_unique_heap_ptr@U__vcrt_ptd@@U__crt_internal_free_policy@@@@QAE@XZ 10023d40 f i libvcruntimed:per_thread_data.obj
 0001:00022d40       ??1?$__crt_unique_heap_ptr@DU__crt_internal_free_policy@@@@QAE@XZ 10023d40 f i libvcruntimed:std_type_info.obj
 0001:00022d60       ?detach@?$__crt_unique_heap_ptr@DU__crt_public_free_policy@@@@QAEPADXZ 10023d60 f i libvcruntimed:std_exception.obj
 0001:00022d60       ?detach@?$__crt_unique_heap_ptr@U__vcrt_ptd@@U__crt_internal_free_policy@@@@QAEPAU__vcrt_ptd@@XZ 10023d60 f i libvcruntimed:per_thread_data.obj
 0001:00022d90       ?get@?$__crt_unique_heap_ptr@DU__crt_public_free_policy@@@@QBEPADXZ 10023d90 f i libvcruntimed:std_exception.obj
 0001:00022d90       ?get@?$__crt_unique_heap_ptr@U__vcrt_ptd@@U__crt_internal_free_policy@@@@QBEPAU__vcrt_ptd@@XZ 10023d90 f i libvcruntimed:per_thread_data.obj
 0001:00022d90       ?get@?$__crt_unique_heap_ptr@DU__crt_internal_free_policy@@@@QBEPADXZ 10023d90 f i libvcruntimed:std_type_info.obj
 0001:00022da0       ?release@?$__crt_unique_heap_ptr@DU__crt_internal_free_policy@@@@QAEXXZ 10023da0 f i libvcruntimed:std_type_info.obj
 0001:00022da0       ?release@?$__crt_unique_heap_ptr@U__vcrt_ptd@@U__crt_internal_free_policy@@@@QAEXXZ 10023da0 f i libvcruntimed:per_thread_data.obj
 0001:00022e00       ___vcrt_freefls@4          10023e00 f   libvcruntimed:per_thread_data.obj
 0001:00022e30       ___vcrt_freeptd            10023e30 f   libvcruntimed:per_thread_data.obj
 0001:00022e90       ___vcrt_getptd             10023e90 f   libvcruntimed:per_thread_data.obj
 0001:00022eb0       ___vcrt_getptd_noexit      10023eb0 f   libvcruntimed:per_thread_data.obj
 0001:00022fa0       ___vcrt_initialize_ptd     10023fa0 f   libvcruntimed:per_thread_data.obj
 0001:00023000       ___vcrt_uninitialize_ptd   10024000 f   libvcruntimed:per_thread_data.obj
 0001:00023030       ___vcrt_initialize_locks   10024030 f   libvcruntimed:locks.obj
 0001:00023090       ___vcrt_uninitialize_locks 10024090 f   libvcruntimed:locks.obj
 0001:000230e0       ___vcrt_initialize_pure_virtual_call_handler 100240e0 f   libvcruntimed:purevirt_data.obj
 0001:00023110       ??$__vcrt_va_start_verify_argument_type@QBD@@YAXXZ 10024110 f i libvcruntimed:undname.obj
 0001:00023120       __vsprintf_s_l             10024120 f i libvcruntimed:undname.obj
 0001:00023170       _sprintf_s                 10024170 f i libvcruntimed:undname.obj
 0001:000231b0       __global_unwind2           100241b0 f   libvcruntimed:_exsup_.obj
 0001:00023215       __local_unwind2            10024215 f   libvcruntimed:_exsup_.obj
 0001:00023299       __abnormal_termination     10024299 f   libvcruntimed:_exsup_.obj
 0001:000232bc       __NLG_Notify1              100242bc f   libvcruntimed:_exsup_.obj
 0001:000232c5       __NLG_Notify               100242c5 f   libvcruntimed:_exsup_.obj
 0001:000232dc       __NLG_Dispatch             100242dc     libvcruntimed:_exsup_.obj
 0001:000232dc       __NLG_Dispatch2            100242dc     libvcruntimed:_exsup_.obj
 0001:000232e4       __NLG_Call                 100242e4 f   libvcruntimed:_exsup_.obj
 0001:000232e6       __NLG_Return2              100242e6     libvcruntimed:_exsup_.obj
 0001:000232f0       _free                      100242f0 f   libucrtd:free.obj
 0001:00023310       _malloc                    10024310 f   libucrtd:malloc.obj
 0001:00023330       _roundf                    10024330 f   libucrtd:roundf.obj
 0001:000233b0       ??$__crt_interlocked_read@J@@YAJPDJ@Z 100243b0 f i libucrtd:assert.obj
 0001:000233d0       ??$__vcrt_va_start_verify_argument_type@QB_W@@YAXXZ 100243d0 f i libucrtd:assert.obj
 0001:00024130       ??$ftprintf@PAU_iobuf@@PB_WABQB_WABQB_WABI@?$__crt_char_traits@_W@@SAH$$QAPAU_iobuf@@$$QAPB_WABQB_W2ABI@Z 10025130 f i libucrtd:assert.obj
 0001:00024160       ??$get_module_file_name@AAPAUHINSTANCE__@@AAY0BAF@DK@?$__crt_char_traits@D@@SAKAAPAUHINSTANCE__@@AAY0BAF@D$$QAK@Z 10025160 f i libucrtd:assert.obj
 0001:00024180       ??$get_module_file_name@AAPAUHINSTANCE__@@AAY0BAF@_WK@?$__crt_char_traits@_W@@SAKAAPAUHINSTANCE__@@AAY0BAF@_W$$QAK@Z 10025180 f i libucrtd:assert.obj
 0001:000241a0       ??$itot_s@ABIQA_W$$CBIH@?$__crt_char_traits@_W@@SAHABI$$QBQA_W$$QBI$$QAH@Z 100251a0 f i libucrtd:assert.obj
 0001:000241d0       ??$show_message_box@AAY0CEA@_WPB_WJ@?$__crt_char_traits@_W@@SAHAAY0CEA@_W$$QAPB_W$$QAJ@Z 100251d0 f i libucrtd:assert.obj
 0001:000241f0       ??$tcscat_s@ABQA_WABIABQB_W@?$__crt_char_traits@_W@@SAHABQA_WABIABQB_W@Z 100251f0 f i libucrtd:assert.obj
 0001:000241f0       ??$tcscat_s@ABQA_WABIAAPA_W@?$__crt_char_traits@_W@@SAHABQA_WABIAAPA_W@Z 100251f0 f i libucrtd:assert.obj
 0001:000241f0       ??$tcscat_s@ABQA_WABIPB_W@?$__crt_char_traits@_W@@SAHABQA_WABI$$QAPB_W@Z 100251f0 f i libucrtd:assert.obj
 0001:00024220       ??$tcscpy_s@AAY0BAF@DIPBD@?$__crt_char_traits@D@@SAHAAY0BAF@D$$QAI$$QAPBD@Z 10025220 f i libucrtd:assert.obj
 0001:00024240       ??$tcscpy_s@AAY0BAF@_WIPB_W@?$__crt_char_traits@_W@@SAHAAY0BAF@_W$$QAI$$QAPB_W@Z 10025240 f i libucrtd:assert.obj
 0001:00024260       ??$tcscpy_s@ABQA_WABIPB_W@?$__crt_char_traits@_W@@SAHABQA_WABI$$QAPB_W@Z 10025260 f i libucrtd:assert.obj
 0001:00024290       ??$tcslen@AAY0BAF@D@?$__crt_char_traits@D@@SAIAAY0BAF@D@Z 10025290 f i libucrtd:assert.obj
 0001:000242b0       ??$tcslen@AAY0BAF@_W@?$__crt_char_traits@_W@@SAIAAY0BAF@_W@Z 100252b0 f i libucrtd:assert.obj
 0001:000242d0       ??$tcslen@ABQB_W@?$__crt_char_traits@_W@@SAIABQB_W@Z 100252d0 f i libucrtd:assert.obj
 0001:000242d0       ??$tcslen@ABQA_W@?$__crt_char_traits@_W@@SAIABQA_W@Z 100252d0 f i libucrtd:assert.obj
 0001:000242f0       ??$tcslen@ABQBD@?$__crt_char_traits@D@@SAIABQBD@Z 100252f0 f i libucrtd:assert.obj
 0001:00024310       ??$tcsncat_s@ABQA_WABIABQB_WABI@?$__crt_char_traits@_W@@SAHABQA_WABIABQB_W1@Z 10025310 f i libucrtd:assert.obj
 0001:00024310       ??$tcsncat_s@ABQA_WABIAAPB_W$$CBI@?$__crt_char_traits@_W@@SAHABQA_WABIAAPB_W$$QBI@Z 10025310 f i libucrtd:assert.obj
 0001:00024310       ??$tcsncat_s@ABQA_WABIPB_W$$CBI@?$__crt_char_traits@_W@@SAHABQA_WABI$$QAPB_W$$QBI@Z 10025310 f i libucrtd:assert.obj
 0001:00024340       ?__crt_interlocked_read_32@@YAHPDH@Z 10025340 f i libucrtd:assert.obj
 0001:000244b0       ?get_flags@__crt_stdio_stream@@QBEJXZ 100254b0 f i libucrtd:assert.obj
 0001:00024530       ?has_any_buffer@__crt_stdio_stream@@QBE_NXZ 10025530 f i libucrtd:assert.obj
 0001:00024550       ?has_any_of@__crt_stdio_stream@@QBE_NJ@Z 10025550 f i libucrtd:assert.obj
 0001:00024590       __invoke_watson_if_error   10025590 f i libucrtd:assert.obj
 0001:000245c0       __vfwprintf_l              100255c0 f i libucrtd:assert.obj
 0001:000245f0       __vswprintf_c_l            100255f0 f i libucrtd:assert.obj
 0001:00024640       __wassert                  10025640 f   libucrtd:assert.obj
 0001:00024660       _fwprintf                  10025660 f i libucrtd:assert.obj
 0001:000246a0       _swprintf                  100256a0 f i libucrtd:assert.obj
 0001:000246e0       _fmod                      100256e0 f   libucrtd:87fmod.obj
 0001:000246ea       __CIfmod                   100256ea f   libucrtd:87fmod.obj
 0001:00024710       __libm_sse2_acos_precise   10025710 f   libucrtd:acos_sse2_precise.obj
 0001:00024c30       __libm_sse2_cos_precise    10025c30 f   libucrtd:cos_sse2_precise.obj
 0001:00024df0       __libm_sse2_pow_precise    10025df0 f   libucrtd:pow_sse2_precise.obj
 0001:00025940       __libm_sse2_sin_precise    10026940 f   libucrtd:sin_sse2_precise.obj
 0001:00025b10       __libm_sse2_sqrt_precise   10026b10 f   libucrtd:sqrt_sse2_precise.obj
 0001:00025c10       _ceil                      10026c10 f   libucrtd:ceil_pentium4.obj
 0001:00025c50       __ceil_pentium4            10026c50 f   libucrtd:ceil_pentium4.obj
 0001:00025d30       _floor                     10026d30 f   libucrtd:floor_pentium4.obj
 0001:00025d70       __floor_pentium4           10026d70 f   libucrtd:floor_pentium4.obj
 0001:00025e30       __errcode                  10026e30 f   libucrtd:fpexcept.obj
 0001:00025ea0       __except1                  10026ea0 f   libucrtd:fpexcept.obj
 0001:00025ff0       __handle_exc               10026ff0 f   libucrtd:fpexcept.obj
 0001:00026310       __raise_exc                10027310 f   libucrtd:fpexcept.obj
 0001:00026340       __raise_exc_ex             10027340 f   libucrtd:fpexcept.obj
 0001:000268c0       __set_errno_from_matherr   100278c0 f   libucrtd:fpexcept.obj
 0001:00026900       __umatherr                 10027900 f   libucrtd:fpexcept.obj
 0001:000269a0       __initterm                 100279a0 f   libucrtd:initterm.obj
 0001:00026a00       __initterm_e               10027a00 f   libucrtd:initterm.obj
 0001:00026ac0       __seh_filter_dll           10027ac0 f   libucrtd:exception_filter.obj
 0001:00026af0       __seh_filter_exe           10027af0 f   libucrtd:exception_filter.obj
 0001:00026d10       ??$__crt_get_proc_address@P6GXI@Z@@YAP6GXI@ZQAUHINSTANCE__@@QBD@Z 10027d10 f i libucrtd:exit.obj
 0001:00026d30       ??1?$__crt_unique_handle_t@U__crt_hmodule_traits@@@@QAE@XZ 10027d30 f i libucrtd:exit.obj
 0001:00026d70       ?close@?$__crt_unique_handle_t@U__crt_hmodule_traits@@@@QAEXXZ 10027d70 f i libucrtd:exit.obj
 0001:00026db0       ?close@__crt_hmodule_traits@@SA_NPAUHINSTANCE__@@@Z 10027db0 f i libucrtd:exit.obj
 0001:00026fe0       ?get_invalid_value@__crt_hmodule_traits@@SAPAUHINSTANCE__@@XZ 10027fe0 f i libucrtd:exit.obj
 0001:00027170       ___acrt_initialize_thread_local_exit_callback 10028170 f   libucrtd:exit.obj
 0001:00027180       __cexit                    10028180 f   libucrtd:exit.obj
 0001:000271a0       __exit                     100281a0 f   libucrtd:exit.obj
 0001:000271c0       __is_c_termination_complete 100281c0 f   libucrtd:exit.obj
 0001:0002736a       ??$uninitialize@A6AXAAPAPAD@Z@?$dual_state_global@PAPAD@__crt_state_management@@QAEXA6AXAAPAPAD@Z@Z 1002836a f i libucrtd:environment_initialization.obj
 0001:0002736a       ??$uninitialize@A6AXAAPAPA_W@Z@?$dual_state_global@PAPA_W@__crt_state_management@@QAEXA6AXAAPAPA_W@Z@Z 1002836a f i libucrtd:environment_initialization.obj
 0001:000273e0       ?detach@?$__crt_unique_heap_ptr@DU__crt_internal_free_policy@@@@QAEPADXZ 100283e0 f i libucrtd:environment_initialization.obj
 0001:000273e6       ?get_current_state_index@__crt_state_management@@YAIXZ 100283e6 f i libucrtd:environment_initialization.obj
 0001:000273e9       ?initialize@?$dual_state_global@PAPAD@__crt_state_management@@QAEXQAPAD@Z 100283e9 f i libucrtd:environment_initialization.obj
 0001:0002741a       ___dcrt_uninitialize_environments_nolock 1002841a f   libucrtd:environment_initialization.obj
 0001:00027451       __initialize_narrow_environment 10028451 f   libucrtd:environment_initialization.obj
 0001:00027460       ??$?BP6AXXZ@__crt_fast_encoded_nullptr_t@@QBEPAP6AXXZXZ 10028460 f i libucrtd:onexit.obj
 0001:00027480       ??$?RU__acrt_ptd@@@__crt_internal_free_policy@@QBEXQBU__acrt_ptd@@@Z 10028480 f i libucrtd:per_thread_data.obj
 0001:00027480       ??$?RP6AXXZ@__crt_internal_free_policy@@QBEXQBQ6AXXZ@Z 10028480 f i libucrtd:onexit.obj
 0001:00027480       ??$?RPAU__crt_stdio_stream_data@@@__crt_internal_free_policy@@QBEXQBQAU__crt_stdio_stream_data@@@Z 10028480 f i libucrtd:_file.obj
 0001:00027480       ??$?RU__crt_lowio_handle_data@@@__crt_internal_free_policy@@QBEXQBU__crt_lowio_handle_data@@@Z 10028480 f i libucrtd:osfinfo.obj
 0001:00027480       ??$?RU__crt_multibyte_data@@@__crt_internal_free_policy@@QBEXQBU__crt_multibyte_data@@@Z 10028480 f i libucrtd:mbctype.obj
 0001:000274a0       ??$?RV<lambda_821a00fc0e15a7fd532972332124005d>@@AAV<lambda_942beefa13ab35ff55f86422493ffd6a>@@V<lambda_3ab53bf64df1f1ff33dbc5b1929ce7a7>@@@?$__crt_seh_guarded_call@H@@QAEH$$QAV<lambda_821a00fc0e15a7fd532972332124005d>@@AAV<lambda_942beefa13ab35ff55f86422493ffd6a>@@$$QAV<lambda_3ab53bf64df1f1ff33dbc5b1929ce7a7>@@@Z 100284a0 f i libucrtd:onexit.obj
 0001:00027530       ??$?RV<lambda_a12890e7f9ac9927a62bd0bbd5044c78>@@AAV<lambda_e971338317bfa523bb8920b43d823727>@@V<lambda_e618b16d59e79e236350cab8485990d2>@@@?$__crt_seh_guarded_call@H@@QAEH$$QAV<lambda_a12890e7f9ac9927a62bd0bbd5044c78>@@AAV<lambda_e971338317bfa523bb8920b43d823727>@@$$QAV<lambda_e618b16d59e79e236350cab8485990d2>@@@Z 10028530 f i libucrtd:onexit.obj
 0001:000275c0       ??$__acrt_lock_and_call@V<lambda_942beefa13ab35ff55f86422493ffd6a>@@@@YAHW4__acrt_lock_id@@$$QAV<lambda_942beefa13ab35ff55f86422493ffd6a>@@@Z 100285c0 f i libucrtd:onexit.obj
 0001:00027600       ??$__acrt_lock_and_call@V<lambda_e971338317bfa523bb8920b43d823727>@@@@YAHW4__acrt_lock_id@@$$QAV<lambda_e971338317bfa523bb8920b43d823727>@@@Z 10028600 f i libucrtd:onexit.obj
 0001:00027640       ??$__crt_fast_encode_pointer@P6AXH@Z@@YAP6AXH@ZQ6AXH@Z@Z 10028640 f i libucrtd:signal.obj
 0001:00027640       ??$__crt_fast_encode_pointer@P6GXPAXK0@Z@@YAP6GXPAXK0@ZQ6GX0K0@Z@Z 10028640 f i libucrtd:exit.obj
 0001:00027640       ??$__crt_fast_encode_pointer@P6AHXZ@@YAP6AHXZQ6AHXZ@Z 10028640 f i libucrtd:onexit.obj
 0001:00027670       ??1?$__crt_unique_heap_ptr@U__crt_lowio_handle_data@@U__crt_internal_free_policy@@@@QAE@XZ 10028670 f i libucrtd:osfinfo.obj
 0001:00027670       ??1?$__crt_unique_heap_ptr@P6AXXZU__crt_internal_free_policy@@@@QAE@XZ 10028670 f i libucrtd:onexit.obj
 0001:00027670       ??1?$__crt_unique_heap_ptr@U__crt_multibyte_data@@U__crt_internal_free_policy@@@@QAE@XZ 10028670 f i libucrtd:mbctype.obj
 0001:00027670       ??1?$__crt_unique_heap_ptr@PAU__crt_stdio_stream_data@@U__crt_internal_free_policy@@@@QAE@XZ 10028670 f i libucrtd:_file.obj
 0001:00027670       ??1?$__crt_unique_heap_ptr@U__acrt_ptd@@U__crt_internal_free_policy@@@@QAE@XZ 10028670 f i libucrtd:per_thread_data.obj
 0001:00027a40       ?release@?$__crt_unique_heap_ptr@U__acrt_ptd@@U__crt_internal_free_policy@@@@QAEXXZ 10028a40 f i libucrtd:per_thread_data.obj
 0001:00027a40       ?release@?$__crt_unique_heap_ptr@PAU__crt_stdio_stream_data@@U__crt_internal_free_policy@@@@QAEXXZ 10028a40 f i libucrtd:_file.obj
 0001:00027a40       ?release@?$__crt_unique_heap_ptr@P6AXXZU__crt_internal_free_policy@@@@QAEXXZ 10028a40 f i libucrtd:onexit.obj
 0001:00027a40       ?release@?$__crt_unique_heap_ptr@U__crt_multibyte_data@@U__crt_internal_free_policy@@@@QAEXXZ 10028a40 f i libucrtd:mbctype.obj
 0001:00027a40       ?release@?$__crt_unique_heap_ptr@U__crt_lowio_handle_data@@U__crt_internal_free_policy@@@@QAEXXZ 10028a40 f i libucrtd:osfinfo.obj
 0001:00027a70       __crt_atexit               10028a70 f   libucrtd:onexit.obj
 0001:00027a90       __execute_onexit_table     10028a90 f   libucrtd:onexit.obj
 0001:00027ac0       __initialize_onexit_table  10028ac0 f   libucrtd:onexit.obj
 0001:00027b20       __register_onexit_function 10028b20 f   libucrtd:onexit.obj
 0001:00027ba0       ?validate_stream_is_ansi_if_required@?$__acrt_stdio_char_traits@_W@@SA_NQAU_iobuf@@@Z 10028ba0 f   libucrtd:output.obj
 0001:00027ba0       ___acrt_uninitialize_command_line 10028ba0 f   libucrtd:argv_data.obj
 0001:00027d20       ??$uninitialize@V<lambda_c3040c0a6a4a8d26c9e8356dc2fac8c5>@@@?$dual_state_global@PAU__crt_multibyte_data@@@__crt_state_management@@QAEX$$QAV<lambda_c3040c0a6a4a8d26c9e8356dc2fac8c5>@@@Z 10028d20 f i libucrtd:initialization.obj
 0001:00027db0       ___acrt_initialize         10028db0 f   libucrtd:initialization.obj
 0001:00027dd0       ___acrt_thread_attach      10028dd0 f   libucrtd:initialization.obj
 0001:00027df0       ___acrt_thread_detach      10028df0 f   libucrtd:initialization.obj
 0001:00027e00       ___acrt_uninitialize       10028e00 f   libucrtd:initialization.obj
 0001:00027e20       ___acrt_uninitialize_critical 10028e20 f   libucrtd:initialization.obj
 0001:00027e40       _terminate                 10028e40 f   libucrtd:terminate.obj
 0001:00027ee0       _wcslen                    10028ee0 f   libucrtd:wcslen.obj
 0001:00027f20       _strlen                    10028f20 f   libucrtd:strlen.obj
 0001:00027fb0       ??0_LocaleUpdate@@QAE@QAU__crt_locale_pointers@@@Z 10028fb0 f i libucrtd:debug_heap.obj
 0001:00028090       ??1_LocaleUpdate@@QAE@XZ   10029090 f i libucrtd:debug_heap.obj
 0001:000280d0       ?GetLocaleT@_LocaleUpdate@@QAEPAU__crt_locale_pointers@@XZ 100290d0 f i libucrtd:debug_heap.obj
 0001:00029990       __CrtCheckMemory           1002a990 f   libucrtd:debug_heap.obj
 0001:00029b20       __CrtDumpMemoryLeaks       1002ab20 f   libucrtd:debug_heap.obj
 0001:00029bc0       __CrtIsValidHeapPointer    1002abc0 f   libucrtd:debug_heap.obj
 0001:00029bf0       __CrtIsValidPointer        1002abf0 f   libucrtd:debug_heap.obj
 0001:00029c20       __CrtMemCheckpoint         1002ac20 f   libucrtd:debug_heap.obj
 0001:00029e50       __CrtMemDumpAllObjectsSince 1002ae50 f   libucrtd:debug_heap.obj
 0001:00029f00       __CrtSetDbgFlag            1002af00 f   libucrtd:debug_heap.obj
 0001:0002a070       __CrtSetDumpClient         1002b070 f   libucrtd:debug_heap.obj
 0001:0002a090       ___acrt_get_locale_data_prefix 1002b090 f i libucrtd:debug_heap.obj
 0001:0002a0b0       ___acrt_locale_changed     1002b0b0 f i libucrtd:debug_heap.obj
 0001:0002a0e0       __calloc_dbg               1002b0e0 f   libucrtd:debug_heap.obj
 0001:0002a150       __chvalidchk_l             1002b150 f i libucrtd:debug_heap.obj
 0001:0002a170       __free_dbg                 1002b170 f   libucrtd:debug_heap.obj
 0001:0002a220       __invoke_watson_if_oneof   1002b220 f i libucrtd:debug_heap.obj
 0001:0002a260       __ischartype_l             1002b260 f i libucrtd:debug_heap.obj
 0001:0002a2b0       __malloc_dbg               1002b2b0 f   libucrtd:debug_heap.obj
 0001:0002a2d0       __msize_dbg                1002b2d0 f   libucrtd:debug_heap.obj
 0001:0002a460       __realloc_dbg              1002b460 f   libucrtd:debug_heap.obj
 0001:0002a500       __recalloc_dbg             1002b500 f   libucrtd:debug_heap.obj
 0001:0002a8c0       _strcpy_s                  1002b8c0 f   libucrtd:strcpy_s.obj
 0001:0002a8e0       _strcmp                    1002b8e0 f   libucrtd:strcmp.obj
 0001:0002b350       __CrtDbgReport             1002c350 f   libucrtd:dbgrpt.obj
 0001:0002b3a0       __CrtDbgReportW            1002c3a0 f   libucrtd:dbgrpt.obj
 0001:0002b3f0       ___acrt_MessageWindowA     1002c3f0 f   libucrtd:dbgrpt.obj
 0001:0002b420       ___acrt_MessageWindowW     1002c420 f   libucrtd:dbgrpt.obj
 0001:0002b450       __snwprintf_s              1002c450 f i libucrtd:dbgrpt.obj
 0001:0002b4a0       __vsnwprintf_s_l           1002c4a0 f i libucrtd:dbgrpt.obj
 0001:0002b500       _abort                     1002c500 f   libucrtd:abort.obj
 0001:0002b570       ??$?0ABV?$string_output_adapter@D@__crt_stdio_output@@AB_KABQBDABQAU__crt_locale_pointers@@ABQAD@?$format_validation_base@DV?$string_output_adapter@D@__crt_stdio_output@@@__crt_stdio_output@@IAE@ABV?$string_output_adapter@D@1@AB_KABQBDABQAU__crt_locale_pointers@@ABQAD@Z 1002c570 f i libucrtd:output.obj
 0001:0002b5a0       ??$?0ABV?$string_output_adapter@D@__crt_stdio_output@@AB_KABQBDABQAU__crt_locale_pointers@@ABQAD@?$standard_base@DV?$string_output_adapter@D@__crt_stdio_output@@@__crt_stdio_output@@IAE@ABV?$string_output_adapter@D@1@AB_KABQBDABQAU__crt_locale_pointers@@ABQAD@Z 1002c5a0 f i libucrtd:output.obj
 0001:0002b5f0       ??$?0ABV?$string_output_adapter@_W@__crt_stdio_output@@AB_KABQB_WABQAU__crt_locale_pointers@@ABQAD@?$format_validation_base@_WV?$string_output_adapter@_W@__crt_stdio_output@@@__crt_stdio_output@@IAE@ABV?$string_output_adapter@_W@1@AB_KABQB_WABQAU__crt_locale_pointers@@ABQAD@Z 1002c5f0 f i libucrtd:output.obj
 0001:0002b620       ??$?0ABV?$string_output_adapter@_W@__crt_stdio_output@@AB_KABQB_WABQAU__crt_locale_pointers@@ABQAD@?$standard_base@_WV?$string_output_adapter@_W@__crt_stdio_output@@@__crt_stdio_output@@IAE@ABV?$string_output_adapter@_W@1@AB_KABQB_WABQAU__crt_locale_pointers@@ABQAD@Z 1002c620 f i libucrtd:output.obj
 0001:0002b620       ??$?0ABV?$stream_output_adapter@_W@__crt_stdio_output@@AB_KABQB_WABQAU__crt_locale_pointers@@ABQAD@?$standard_base@_WV?$stream_output_adapter@_W@__crt_stdio_output@@@__crt_stdio_output@@IAE@ABV?$stream_output_adapter@_W@1@AB_KABQB_WABQAU__crt_locale_pointers@@ABQAD@Z 1002c620 f i libucrtd:output.obj
 0001:0002b670       ??$?RV<lambda_ab9923ffb5d694ec0d78876dd103e44f>@@AAV<lambda_481dd5778c961fbcd3b60b650e9b9dc4>@@V<lambda_7923d86c9e3f319b415918ec4b39749c>@@@?$__crt_seh_guarded_call@H@@QAEH$$QAV<lambda_ab9923ffb5d694ec0d78876dd103e44f>@@AAV<lambda_481dd5778c961fbcd3b60b650e9b9dc4>@@$$QAV<lambda_7923d86c9e3f319b415918ec4b39749c>@@@Z 1002c670 f i libucrtd:output.obj
 0001:0002b700       ??$__acrt_lock_stream_and_call@V<lambda_481dd5778c961fbcd3b60b650e9b9dc4>@@@@YAHQAU_iobuf@@$$QAV<lambda_481dd5778c961fbcd3b60b650e9b9dc4>@@@Z 1002c700 f i libucrtd:output.obj
 0001:0002cf80       ??$count@D@formatting_buffer@__crt_stdio_output@@QBEIXZ 1002df80 f i libucrtd:output.obj
 0001:0002cfc0       ??$data@_W@formatting_buffer@__crt_stdio_output@@QAEPA_WXZ 1002dfc0 f i libucrtd:output.obj
 0001:0002cfc0       ??$data@D@formatting_buffer@__crt_stdio_output@@QAEPADXZ 1002dfc0 f i libucrtd:output.obj
 0001:0002d000       ??$ensure_buffer_is_big_enough@D@formatting_buffer@__crt_stdio_output@@QAE_NI@Z 1002e000 f i libucrtd:output.obj
 0001:0002d0e0       ??$extract_argument_from_va_list@C_J@?$standard_base@_WV?$string_output_adapter@_W@__crt_stdio_output@@@__crt_stdio_output@@IAE_NAA_J@Z 1002e0e0 f i libucrtd:output.obj
 0001:0002d0e0       ??$extract_argument_from_va_list@C_J@?$standard_base@_WV?$stream_output_adapter@_W@__crt_stdio_output@@@__crt_stdio_output@@IAE_NAA_J@Z 1002e0e0 f i libucrtd:output.obj
 0001:0002d0e0       ??$extract_argument_from_va_list@C_J@?$standard_base@DV?$string_output_adapter@D@__crt_stdio_output@@@__crt_stdio_output@@IAE_NAA_J@Z 1002e0e0 f i libucrtd:output.obj
 0001:0002d110       ??$extract_argument_from_va_list@E_J@?$standard_base@DV?$string_output_adapter@D@__crt_stdio_output@@@__crt_stdio_output@@IAE_NAA_J@Z 1002e110 f i libucrtd:output.obj
 0001:0002d110       ??$extract_argument_from_va_list@E_J@?$standard_base@_WV?$string_output_adapter@_W@__crt_stdio_output@@@__crt_stdio_output@@IAE_NAA_J@Z 1002e110 f i libucrtd:output.obj
 0001:0002d110       ??$extract_argument_from_va_list@E_J@?$standard_base@_WV?$stream_output_adapter@_W@__crt_stdio_output@@@__crt_stdio_output@@IAE_NAA_J@Z 1002e110 f i libucrtd:output.obj
 0001:0002d140       ??$extract_argument_from_va_list@F_J@?$standard_base@DV?$string_output_adapter@D@__crt_stdio_output@@@__crt_stdio_output@@IAE_NAA_J@Z 1002e140 f i libucrtd:output.obj
 0001:0002d140       ??$extract_argument_from_va_list@F_J@?$standard_base@_WV?$stream_output_adapter@_W@__crt_stdio_output@@@__crt_stdio_output@@IAE_NAA_J@Z 1002e140 f i libucrtd:output.obj
 0001:0002d140       ??$extract_argument_from_va_list@F_J@?$standard_base@_WV?$string_output_adapter@_W@__crt_stdio_output@@@__crt_stdio_output@@IAE_NAA_J@Z 1002e140 f i libucrtd:output.obj
 0001:0002d170       ??$extract_argument_from_va_list@GD@?$standard_base@DV?$string_output_adapter@D@__crt_stdio_output@@@__crt_stdio_output@@IAE_NAAD@Z 1002e170 f i libucrtd:output.obj
 0001:0002d1a0       ??$extract_argument_from_va_list@G_J@?$standard_base@DV?$string_output_adapter@D@__crt_stdio_output@@@__crt_stdio_output@@IAE_NAA_J@Z 1002e1a0 f i libucrtd:output.obj
 0001:0002d1a0       ??$extract_argument_from_va_list@G_J@?$standard_base@_WV?$string_output_adapter@_W@__crt_stdio_output@@@__crt_stdio_output@@IAE_NAA_J@Z 1002e1a0 f i libucrtd:output.obj
 0001:0002d1a0       ??$extract_argument_from_va_list@G_J@?$standard_base@_WV?$stream_output_adapter@_W@__crt_stdio_output@@@__crt_stdio_output@@IAE_NAA_J@Z 1002e1a0 f i libucrtd:output.obj
 0001:0002d1d0       ??$extract_argument_from_va_list@H_J@?$standard_base@_WV?$stream_output_adapter@_W@__crt_stdio_output@@@__crt_stdio_output@@IAE_NAA_J@Z 1002e1d0 f i libucrtd:output.obj
 0001:0002d1d0       ??$extract_argument_from_va_list@H_J@?$standard_base@DV?$string_output_adapter@D@__crt_stdio_output@@@__crt_stdio_output@@IAE_NAA_J@Z 1002e1d0 f i libucrtd:output.obj
 0001:0002d1d0       ??$extract_argument_from_va_list@H_J@?$standard_base@_WV?$string_output_adapter@_W@__crt_stdio_output@@@__crt_stdio_output@@IAE_NAA_J@Z 1002e1d0 f i libucrtd:output.obj
 0001:0002d200       ??$extract_argument_from_va_list@I_J@?$standard_base@_WV?$string_output_adapter@_W@__crt_stdio_output@@@__crt_stdio_output@@IAE_NAA_J@Z 1002e200 f i libucrtd:output.obj
 0001:0002d200       ??$extract_argument_from_va_list@I_J@?$standard_base@_WV?$stream_output_adapter@_W@__crt_stdio_output@@@__crt_stdio_output@@IAE_NAA_J@Z 1002e200 f i libucrtd:output.obj
 0001:0002d200       ??$extract_argument_from_va_list@I_J@?$standard_base@DV?$string_output_adapter@D@__crt_stdio_output@@@__crt_stdio_output@@IAE_NAA_J@Z 1002e200 f i libucrtd:output.obj
 0001:0002d230       ??$extract_argument_from_va_list@PADPAD@?$standard_base@_WV?$stream_output_adapter@_W@__crt_stdio_output@@@__crt_stdio_output@@IAE_NAAPAD@Z 1002e230 f i libucrtd:output.obj
 0001:0002d230       ??$extract_argument_from_va_list@PAXPAX@?$standard_base@_WV?$stream_output_adapter@_W@__crt_stdio_output@@@__crt_stdio_output@@IAE_NAAPAX@Z 1002e230 f i libucrtd:output.obj
 0001:0002d230       ??$extract_argument_from_va_list@PAUansi_string@?1??type_case_Z@?$output_processor@_WV?$stream_output_adapter@_W@__crt_stdio_output@@V?$standard_base@_WV?$stream_output_adapter@_W@__crt_stdio_output@@@2@@__crt_stdio_output@@AAE_NXZ@PAU1?1??234@AAE_NXZ@@?$standard_base@_WV?$stream_output_adapter@_W@__crt_stdio_output@@@__crt_stdio_output@@IAE_NAAPAUansi_string@?1??type_case_Z@?$output_processor@_WV?$stream_output_adapter@_W@__crt_stdio_output@@V?$standard_base@_WV?$stream_output_adapter@_W@__crt_stdio_output@@@2@@1@AAE_NXZ@@Z 1002e230 f i libucrtd:output.obj
 0001:0002d230       ??$extract_argument_from_va_list@PAUansi_string@?1??type_case_Z@?$output_processor@_WV?$string_output_adapter@_W@__crt_stdio_output@@V?$format_validation_base@_WV?$string_output_adapter@_W@__crt_stdio_output@@@2@@__crt_stdio_output@@AAE_NXZ@PAU1?1??234@AAE_NXZ@@?$standard_base@_WV?$string_output_adapter@_W@__crt_stdio_output@@@__crt_stdio_output@@IAE_NAAPAUansi_string@?1??type_case_Z@?$output_processor@_WV?$string_output_adapter@_W@__crt_stdio_output@@V?$format_validation_base@_WV?$string_output_adapter@_W@__crt_stdio_output@@@2@@1@AAE_NXZ@@Z 1002e230 f i libucrtd:output.obj
 0001:0002d230       ??$extract_argument_from_va_list@PADPAD@?$standard_base@DV?$string_output_adapter@D@__crt_stdio_output@@@__crt_stdio_output@@IAE_NAAPAD@Z 1002e230 f i libucrtd:output.obj
 0001:0002d230       ??$extract_argument_from_va_list@PAXPAX@?$standard_base@_WV?$string_output_adapter@_W@__crt_stdio_output@@@__crt_stdio_output@@IAE_NAAPAX@Z 1002e230 f i libucrtd:output.obj
 0001:0002d230       ??$extract_argument_from_va_list@PAUansi_string@?1??type_case_Z@?$output_processor@_WV?$string_output_adapter@_W@__crt_stdio_output@@V?$standard_base@_WV?$string_output_adapter@_W@__crt_stdio_output@@@2@@__crt_stdio_output@@AAE_NXZ@PAU1?1??234@AAE_NXZ@@?$standard_base@_WV?$string_output_adapter@_W@__crt_stdio_output@@@__crt_stdio_output@@IAE_NAAPAUansi_string@?1??type_case_Z@?$output_processor@_WV?$string_output_adapter@_W@__crt_stdio_output@@V?$standard_base@_WV?$string_output_adapter@_W@__crt_stdio_output@@@2@@1@AAE_NXZ@@Z 1002e230 f i libucrtd:output.obj
 0001:0002d230       ??$extract_argument_from_va_list@PAUansi_string@?1??type_case_Z@?$output_processor@DV?$string_output_adapter@D@__crt_stdio_output@@V?$format_validation_base@DV?$string_output_adapter@D@__crt_stdio_output@@@2@@__crt_stdio_output@@AAE_NXZ@PAU1?1??234@AAE_NXZ@@?$standard_base@DV?$string_output_adapter@D@__crt_stdio_output@@@__crt_stdio_output@@IAE_NAAPAUansi_string@?1??type_case_Z@?$output_processor@DV?$string_output_adapter@D@__crt_stdio_output@@V?$format_validation_base@DV?$string_output_adapter@D@__crt_stdio_output@@@2@@1@AAE_NXZ@@Z 1002e230 f i libucrtd:output.obj
 0001:0002d230       ??$extract_argument_from_va_list@PADPAD@?$standard_base@_WV?$string_output_adapter@_W@__crt_stdio_output@@@__crt_stdio_output@@IAE_NAAPAD@Z 1002e230 f i libucrtd:output.obj
 0001:0002d230       ??$extract_argument_from_va_list@PAXPAX@?$standard_base@DV?$string_output_adapter@D@__crt_stdio_output@@@__crt_stdio_output@@IAE_NAAPAX@Z 1002e230 f i libucrtd:output.obj
 0001:0002d260       ??$extract_argument_from_va_list@U_CRT_DOUBLE@@U1@@?$standard_base@DV?$string_output_adapter@D@__crt_stdio_output@@@__crt_stdio_output@@IAE_NAAU_CRT_DOUBLE@@@Z 1002e260 f i libucrtd:output.obj
 0001:0002d260       ??$extract_argument_from_va_list@U_CRT_DOUBLE@@U1@@?$standard_base@_WV?$string_output_adapter@_W@__crt_stdio_output@@@__crt_stdio_output@@IAE_NAAU_CRT_DOUBLE@@@Z 1002e260 f i libucrtd:output.obj
 0001:0002d260       ??$extract_argument_from_va_list@U_CRT_DOUBLE@@U1@@?$standard_base@_WV?$stream_output_adapter@_W@__crt_stdio_output@@@__crt_stdio_output@@IAE_NAAU_CRT_DOUBLE@@@Z 1002e260 f i libucrtd:output.obj
 0001:0002d2b0       ??$extract_argument_from_va_list@_K_J@?$standard_base@_WV?$string_output_adapter@_W@__crt_stdio_output@@@__crt_stdio_output@@IAE_NAA_J@Z 1002e2b0 f i libucrtd:output.obj
 0001:0002d2b0       ??$extract_argument_from_va_list@_J_J@?$standard_base@DV?$string_output_adapter@D@__crt_stdio_output@@@__crt_stdio_output@@IAE_NAA_J@Z 1002e2b0 f i libucrtd:output.obj
 0001:0002d2b0       ??$extract_argument_from_va_list@_J_J@?$standard_base@_WV?$stream_output_adapter@_W@__crt_stdio_output@@@__crt_stdio_output@@IAE_NAA_J@Z 1002e2b0 f i libucrtd:output.obj
 0001:0002d2b0       ??$extract_argument_from_va_list@_J_J@?$standard_base@_WV?$string_output_adapter@_W@__crt_stdio_output@@@__crt_stdio_output@@IAE_NAA_J@Z 1002e2b0 f i libucrtd:output.obj
 0001:0002d2b0       ??$extract_argument_from_va_list@_K_J@?$standard_base@DV?$string_output_adapter@D@__crt_stdio_output@@@__crt_stdio_output@@IAE_NAA_J@Z 1002e2b0 f i libucrtd:output.obj
 0001:0002d2b0       ??$extract_argument_from_va_list@_K_J@?$standard_base@_WV?$stream_output_adapter@_W@__crt_stdio_output@@@__crt_stdio_output@@IAE_NAA_J@Z 1002e2b0 f i libucrtd:output.obj
 0001:0002d2e0       ??$extract_argument_from_va_list@_W_W@?$standard_base@_WV?$string_output_adapter@_W@__crt_stdio_output@@@__crt_stdio_output@@IAE_NAA_W@Z 1002e2e0 f i libucrtd:output.obj
 0001:0002d2e0       ??$extract_argument_from_va_list@_W_W@?$standard_base@_WV?$stream_output_adapter@_W@__crt_stdio_output@@@__crt_stdio_output@@IAE_NAA_W@Z 1002e2e0 f i libucrtd:output.obj
 0001:0002d2e0       ??$extract_argument_from_va_list@_W_W@?$standard_base@DV?$string_output_adapter@D@__crt_stdio_output@@@__crt_stdio_output@@IAE_NAA_W@Z 1002e2e0 f i libucrtd:output.obj
 0001:0002d310       ??$is_wide_character_specifier@D@__crt_stdio_output@@YA_N_KDW4length_modifier@0@@Z 1002e310 f i libucrtd:output.obj
 0001:0002d390       ??$is_wide_character_specifier@_W@__crt_stdio_output@@YA_N_K_WW4length_modifier@0@@Z 1002e390 f i libucrtd:output.obj
 0001:0002d450       ??$puttc_nolock@AB_WPAU_iobuf@@@?$__crt_char_traits@_W@@SAGAB_W$$QAPAU_iobuf@@@Z 1002e450 f i libucrtd:output.obj
 0001:0002d470       ??$read_va_arg@E@__crt_stdio_output@@YAEAAPAD@Z 1002e470 f i libucrtd:output.obj
 0001:0002d470       ??$read_va_arg@C@__crt_stdio_output@@YACAAPAD@Z 1002e470 f i libucrtd:output.obj
 0001:0002d490       ??$read_va_arg@PAX@__crt_stdio_output@@YAPAXAAPAD@Z 1002e490 f i libucrtd:output.obj
 0001:0002d490       ??$read_va_arg@PAUansi_string@?1??type_case_Z@?$output_processor@_WV?$string_output_adapter@_W@__crt_stdio_output@@V?$format_validation_base@_WV?$string_output_adapter@_W@__crt_stdio_output@@@2@@__crt_stdio_output@@AAE_NXZ@@__crt_stdio_output@@YAPAUansi_string@?1??type_case_Z@?$output_processor@_WV?$string_output_adapter@_W@__crt_stdio_output@@V?$format_validation_base@_WV?$string_output_adapter@_W@__crt_stdio_output@@@2@@0@AAE_NXZ@AAPAD@Z 1002e490 f i libucrtd:output.obj
 0001:0002d490       ??$read_va_arg@H@__crt_stdio_output@@YAHAAPAD@Z 1002e490 f i libucrtd:output.obj
 0001:0002d490       ??$read_va_arg@PAUansi_string@?1??type_case_Z@?$output_processor@DV?$string_output_adapter@D@__crt_stdio_output@@V?$format_validation_base@DV?$string_output_adapter@D@__crt_stdio_output@@@2@@__crt_stdio_output@@AAE_NXZ@@__crt_stdio_output@@YAPAUansi_string@?1??type_case_Z@?$output_processor@DV?$string_output_adapter@D@__crt_stdio_output@@V?$format_validation_base@DV?$string_output_adapter@D@__crt_stdio_output@@@2@@0@AAE_NXZ@AAPAD@Z 1002e490 f i libucrtd:output.obj
 0001:0002d490       ??$read_va_arg@PAUansi_string@?1??type_case_Z@?$output_processor@_WV?$stream_output_adapter@_W@__crt_stdio_output@@V?$standard_base@_WV?$stream_output_adapter@_W@__crt_stdio_output@@@2@@__crt_stdio_output@@AAE_NXZ@@__crt_stdio_output@@YAPAUansi_string@?1??type_case_Z@?$output_processor@_WV?$stream_output_adapter@_W@__crt_stdio_output@@V?$standard_base@_WV?$stream_output_adapter@_W@__crt_stdio_output@@@2@@0@AAE_NXZ@AAPAD@Z 1002e490 f i libucrtd:output.obj
 0001:0002d490       ??$read_va_arg@I@__crt_stdio_output@@YAIAAPAD@Z 1002e490 f i libucrtd:output.obj
 0001:0002d490       ??$read_va_arg@PAUansi_string@?1??type_case_Z@?$output_processor@_WV?$string_output_adapter@_W@__crt_stdio_output@@V?$standard_base@_WV?$string_output_adapter@_W@__crt_stdio_output@@@2@@__crt_stdio_output@@AAE_NXZ@@__crt_stdio_output@@YAPAUansi_string@?1??type_case_Z@?$output_processor@_WV?$string_output_adapter@_W@__crt_stdio_output@@V?$standard_base@_WV?$string_output_adapter@_W@__crt_stdio_output@@@2@@0@AAE_NXZ@AAPAD@Z 1002e490 f i libucrtd:output.obj
 0001:0002d490       ??$read_va_arg@PAD@__crt_stdio_output@@YAPADAAPAD@Z 1002e490 f i libucrtd:output.obj
 0001:0002d4b0       ??$read_va_arg@_K@__crt_stdio_output@@YA_KAAPAD@Z 1002e4b0 f i libucrtd:output.obj
 0001:0002d4b0       ??$read_va_arg@_J@__crt_stdio_output@@YA_JAAPAD@Z 1002e4b0 f i libucrtd:output.obj
 0001:0002d4b0       ??$read_va_arg@U_CRT_DOUBLE@@@__crt_stdio_output@@YA?AU_CRT_DOUBLE@@AAPAD@Z 1002e4b0 f i libucrtd:output.obj
 0001:0002d4d0       ??$read_va_arg@F@__crt_stdio_output@@YAFAAPAD@Z 1002e4d0 f i libucrtd:output.obj
 0001:0002d4d0       ??$read_va_arg@G@__crt_stdio_output@@YAGAAPAD@Z 1002e4d0 f i libucrtd:output.obj
 0001:0002d4d0       ??$read_va_arg@_W@__crt_stdio_output@@YA_WAAPAD@Z 1002e4d0 f i libucrtd:output.obj
 0001:0002d4f0       ??$scratch_count@D@formatting_buffer@__crt_stdio_output@@QBEIXZ 1002e4f0 f i libucrtd:output.obj
 0001:0002d510       ??$scratch_data@D@formatting_buffer@__crt_stdio_output@@QAEPADXZ 1002e510 f i libucrtd:output.obj
 0001:0002d560       ??$tcstol@PBDPAPADH@?$__crt_char_traits@D@@SAJ$$QAPBD$$QAPAPAD$$QAH@Z 1002e560 f i libucrtd:output.obj
 0001:0002d590       ??$tcstol@PB_WPAPA_WH@?$__crt_char_traits@_W@@SAJ$$QAPB_W$$QAPAPA_W$$QAH@Z 1002e590 f i libucrtd:output.obj
 0001:0002d5c0       ??$type_case_integer_parse_into_buffer@I@?$output_processor@DV?$string_output_adapter@D@__crt_stdio_output@@V?$format_validation_base@DV?$string_output_adapter@D@__crt_stdio_output@@@2@@__crt_stdio_output@@AAEXII_N@Z 1002e5c0 f i libucrtd:output.obj
 0001:0002d690       ??$type_case_integer_parse_into_buffer@I@?$output_processor@_WV?$string_output_adapter@_W@__crt_stdio_output@@V?$standard_base@_WV?$string_output_adapter@_W@__crt_stdio_output@@@2@@__crt_stdio_output@@AAEXII_N@Z 1002e690 f i libucrtd:output.obj
 0001:0002d690       ??$type_case_integer_parse_into_buffer@I@?$output_processor@_WV?$string_output_adapter@_W@__crt_stdio_output@@V?$format_validation_base@_WV?$string_output_adapter@_W@__crt_stdio_output@@@2@@__crt_stdio_output@@AAEXII_N@Z 1002e690 f i libucrtd:output.obj
 0001:0002d690       ??$type_case_integer_parse_into_buffer@I@?$output_processor@_WV?$stream_output_adapter@_W@__crt_stdio_output@@V?$standard_base@_WV?$stream_output_adapter@_W@__crt_stdio_output@@@2@@__crt_stdio_output@@AAEXII_N@Z 1002e690 f i libucrtd:output.obj
 0001:0002d760       ??$type_case_integer_parse_into_buffer@_K@?$output_processor@DV?$string_output_adapter@D@__crt_stdio_output@@V?$format_validation_base@DV?$string_output_adapter@D@__crt_stdio_output@@@2@@__crt_stdio_output@@AAEX_KI_N@Z 1002e760 f i libucrtd:output.obj
 0001:0002d860       ??$type_case_integer_parse_into_buffer@_K@?$output_processor@_WV?$stream_output_adapter@_W@__crt_stdio_output@@V?$standard_base@_WV?$stream_output_adapter@_W@__crt_stdio_output@@@2@@__crt_stdio_output@@AAEX_KI_N@Z 1002e860 f i libucrtd:output.obj
 0001:0002d860       ??$type_case_integer_parse_into_buffer@_K@?$output_processor@_WV?$string_output_adapter@_W@__crt_stdio_output@@V?$format_validation_base@_WV?$string_output_adapter@_W@__crt_stdio_output@@@2@@__crt_stdio_output@@AAEX_KI_N@Z 1002e860 f i libucrtd:output.obj
 0001:0002d860       ??$type_case_integer_parse_into_buffer@_K@?$output_processor@_WV?$string_output_adapter@_W@__crt_stdio_output@@V?$standard_base@_WV?$string_output_adapter@_W@__crt_stdio_output@@@2@@__crt_stdio_output@@AAEX_KI_N@Z 1002e860 f i libucrtd:output.obj
 0001:0002d960       ??$write_multiple_characters@V?$stream_output_adapter@_W@__crt_stdio_output@@D@__crt_stdio_output@@YAXABV?$stream_output_adapter@_W@0@DHQAH@Z 1002e960 f i libucrtd:output.obj
 0001:0002d9b0       ??$write_multiple_characters@V?$string_output_adapter@D@__crt_stdio_output@@D@__crt_stdio_output@@YAXABV?$string_output_adapter@D@0@DHQAH@Z 1002e9b0 f i libucrtd:output.obj
 0001:0002da00       ??$write_multiple_characters@V?$string_output_adapter@_W@__crt_stdio_output@@D@__crt_stdio_output@@YAXABV?$string_output_adapter@_W@0@DHQAH@Z 1002ea00 f i libucrtd:output.obj
 0001:0002da90       ??0?$common_data@D@__crt_stdio_output@@IAE@XZ 1002ea90 f i libucrtd:output.obj
 0001:0002db40       ??0?$common_data@_W@__crt_stdio_output@@IAE@XZ 1002eb40 f i libucrtd:output.obj
 0001:0002dbf0       ??0?$output_adapter_data@DV?$string_output_adapter@D@__crt_stdio_output@@@__crt_stdio_output@@IAE@ABV?$string_output_adapter@D@1@_KQBDQAU__crt_locale_pointers@@QAD@Z 1002ebf0 f i libucrtd:output.obj
 0001:0002dc50       ??0?$output_adapter_data@_WV?$stream_output_adapter@_W@__crt_stdio_output@@@__crt_stdio_output@@IAE@ABV?$stream_output_adapter@_W@1@_KQB_WQAU__crt_locale_pointers@@QAD@Z 1002ec50 f i libucrtd:output.obj
 0001:0002dc50       ??0?$output_adapter_data@_WV?$string_output_adapter@_W@__crt_stdio_output@@@__crt_stdio_output@@IAE@ABV?$string_output_adapter@_W@1@_KQB_WQAU__crt_locale_pointers@@QAD@Z 1002ec50 f i libucrtd:output.obj
 0001:0002dcb0       ??0?$output_processor@DV?$string_output_adapter@D@__crt_stdio_output@@V?$format_validation_base@DV?$string_output_adapter@D@__crt_stdio_output@@@2@@__crt_stdio_output@@QAE@ABV?$string_output_adapter@D@1@_KQBDQAU__crt_locale_pointers@@QAD@Z 1002ecb0 f i libucrtd:output.obj
 0001:0002dcf0       ??0?$output_processor@_WV?$stream_output_adapter@_W@__crt_stdio_output@@V?$standard_base@_WV?$stream_output_adapter@_W@__crt_stdio_output@@@2@@__crt_stdio_output@@QAE@ABV?$stream_output_adapter@_W@1@_KQB_WQAU__crt_locale_pointers@@QAD@Z 1002ecf0 f i libucrtd:output.obj
 0001:0002dcf0       ??0?$output_processor@_WV?$string_output_adapter@_W@__crt_stdio_output@@V?$standard_base@_WV?$string_output_adapter@_W@__crt_stdio_output@@@2@@__crt_stdio_output@@QAE@ABV?$string_output_adapter@_W@1@_KQB_WQAU__crt_locale_pointers@@QAD@Z 1002ecf0 f i libucrtd:output.obj
 0001:0002dd30       ??0?$output_processor@_WV?$string_output_adapter@_W@__crt_stdio_output@@V?$format_validation_base@_WV?$string_output_adapter@_W@__crt_stdio_output@@@2@@__crt_stdio_output@@QAE@ABV?$string_output_adapter@_W@1@_KQB_WQAU__crt_locale_pointers@@QAD@Z 1002ed30 f i libucrtd:output.obj
 0001:0002dd70       ??0?$stream_output_adapter@_W@__crt_stdio_output@@QAE@QAU_iobuf@@@Z 1002ed70 f i libucrtd:output.obj
 0001:0002dd90       ??0?$__crt_unique_heap_ptr@P6AXXZU__crt_internal_free_policy@@@@QAE@QAP6AXXZ@Z 1002ed90 f i libucrtd:onexit.obj
 0001:0002dd90       ??0?$__crt_scoped_stack_ptr@_W@@QAE@U?$__crt_scoped_stack_ptr_tag@_W@@@Z 1002ed90 f i libucrtd:getstringtypea.obj
 0001:0002dd90       ??0?$__crt_unique_heap_ptr@U__crt_multibyte_data@@U__crt_internal_free_policy@@@@QAE@QAU__crt_multibyte_data@@@Z 1002ed90 f i libucrtd:mbctype.obj
 0001:0002dd90       ??0__crt_stdio_stream@@QAE@QAU__crt_stdio_stream_data@@@Z 1002ed90 f i libucrtd:fflush.obj
 0001:0002dd90       ??0?$__crt_scoped_stack_ptr_tag@_W@@QAE@QA_W@Z 1002ed90 f i libucrtd:getstringtypea.obj
 0001:0002dd90       ??0?$__crt_unique_heap_ptr@U__acrt_ptd@@U__crt_internal_free_policy@@@@QAE@QAU__acrt_ptd@@@Z 1002ed90 f i libucrtd:per_thread_data.obj
 0001:0002dd90       ??0?$__crt_unique_heap_ptr@U__crt_lowio_handle_data@@U__crt_internal_free_policy@@@@QAE@QAU__crt_lowio_handle_data@@@Z 1002ed90 f i libucrtd:osfinfo.obj
 0001:0002dd90       ??0__crt_stdio_stream@@QAE@QAU_iobuf@@@Z 1002ed90 f i libucrtd:assert.obj
 0001:0002dd90       ??0?$__crt_unique_handle_t@U__crt_handle_traits@@@@QAE@QAX@Z 1002ed90 f i libucrtd:crtmbox.obj
 0001:0002dd90       ??0?$__crt_unique_heap_ptr@PAU__crt_stdio_stream_data@@U__crt_internal_free_policy@@@@QAE@QAPAU__crt_stdio_stream_data@@@Z 1002ed90 f i libucrtd:_file.obj
 0001:0002dd90       ??0?$__crt_unique_handle_t@U__crt_hmodule_traits@@@@QAE@QAUHINSTANCE__@@@Z 1002ed90 f i libucrtd:exit.obj
 0001:0002dd90       ??0?$string_output_adapter@_W@__crt_stdio_output@@QAE@QAU?$string_output_adapter_context@_W@1@@Z 1002ed90 f i libucrtd:output.obj
 0001:0002dd90       ??0?$string_output_adapter@D@__crt_stdio_output@@QAE@QAU?$string_output_adapter_context@D@1@@Z 1002ed90 f i libucrtd:output.obj
 0001:0002ddb0       ??0__acrt_stdio_temporary_buffering_guard@@QAE@QAU_iobuf@@@Z 1002edb0 f i libucrtd:output.obj
 0001:0002dde0       ??0__crt_errno_guard@@QAE@QAH@Z 1002ede0 f i libucrtd:output.obj
 0001:0002de10       ??0formatting_buffer@__crt_stdio_output@@QAE@XZ 1002ee10 f i libucrtd:output.obj
 0001:0002de40       ??1?$common_data@D@__crt_stdio_output@@QAE@XZ 1002ee40 f i libucrtd:output.obj
 0001:0002de40       ??1?$common_data@_W@__crt_stdio_output@@QAE@XZ 1002ee40 f i libucrtd:output.obj
 0001:0002de60       ??1?$output_processor@_WV?$stream_output_adapter@_W@__crt_stdio_output@@V?$standard_base@_WV?$stream_output_adapter@_W@__crt_stdio_output@@@2@@__crt_stdio_output@@QAE@XZ 1002ee60 f i libucrtd:output.obj
 0001:0002de60       ??1?$format_validation_base@DV?$string_output_adapter@D@__crt_stdio_output@@@__crt_stdio_output@@QAE@XZ 1002ee60 f i libucrtd:output.obj
 0001:0002de60       ??1?$output_processor@_WV?$string_output_adapter@_W@__crt_stdio_output@@V?$standard_base@_WV?$string_output_adapter@_W@__crt_stdio_output@@@2@@__crt_stdio_output@@QAE@XZ 1002ee60 f i libucrtd:output.obj
 0001:0002de60       ??1?$format_validation_base@_WV?$string_output_adapter@_W@__crt_stdio_output@@@__crt_stdio_output@@QAE@XZ 1002ee60 f i libucrtd:output.obj
 0001:0002de80       ??1?$output_adapter_data@DV?$string_output_adapter@D@__crt_stdio_output@@@__crt_stdio_output@@QAE@XZ 1002ee80 f i libucrtd:output.obj
 0001:0002de80       ??1?$output_adapter_data@_WV?$string_output_adapter@_W@__crt_stdio_output@@@__crt_stdio_output@@QAE@XZ 1002ee80 f i libucrtd:output.obj
 0001:0002de80       ??1?$output_adapter_data@_WV?$stream_output_adapter@_W@__crt_stdio_output@@@__crt_stdio_output@@QAE@XZ 1002ee80 f i libucrtd:output.obj
 0001:0002dea0       ??1?$output_processor@DV?$string_output_adapter@D@__crt_stdio_output@@V?$format_validation_base@DV?$string_output_adapter@D@__crt_stdio_output@@@2@@__crt_stdio_output@@QAE@XZ 1002eea0 f i libucrtd:output.obj
 0001:0002dea0       ??1?$output_processor@_WV?$string_output_adapter@_W@__crt_stdio_output@@V?$format_validation_base@_WV?$string_output_adapter@_W@__crt_stdio_output@@@2@@__crt_stdio_output@@QAE@XZ 1002eea0 f i libucrtd:output.obj
 0001:0002dec0       ??1?$standard_base@_WV?$stream_output_adapter@_W@__crt_stdio_output@@@__crt_stdio_output@@QAE@XZ 1002eec0 f i libucrtd:output.obj
 0001:0002dec0       ??1?$standard_base@_WV?$string_output_adapter@_W@__crt_stdio_output@@@__crt_stdio_output@@QAE@XZ 1002eec0 f i libucrtd:output.obj
 0001:0002dec0       ??1?$standard_base@DV?$string_output_adapter@D@__crt_stdio_output@@@__crt_stdio_output@@QAE@XZ 1002eec0 f i libucrtd:output.obj
 0001:0002dee0       ??1__acrt_stdio_temporary_buffering_guard@@QAE@XZ 1002eee0 f i libucrtd:output.obj
 0001:0002df10       ??1__crt_errno_guard@@QAE@XZ 1002ef10 f i libucrtd:output.obj
 0001:0002df40       ??1formatting_buffer@__crt_stdio_output@@QAE@XZ 1002ef40 f i libucrtd:output.obj
 0001:0002df60       ??4?$__crt_unique_heap_ptr@DU__crt_internal_free_policy@@@@QAEAAV0@$$QAV0@@Z 1002ef60 f i libucrtd:output.obj
 0001:0002e0a0       ?adjust_hexit@?$output_processor@_WV?$string_output_adapter@_W@__crt_stdio_output@@V?$standard_base@_WV?$string_output_adapter@_W@__crt_stdio_output@@@2@@__crt_stdio_output@@CADH_N@Z 1002f0a0 f i libucrtd:output.obj
 0001:0002e0a0       ?adjust_hexit@?$output_processor@_WV?$stream_output_adapter@_W@__crt_stdio_output@@V?$standard_base@_WV?$stream_output_adapter@_W@__crt_stdio_output@@@2@@__crt_stdio_output@@CADH_N@Z 1002f0a0 f i libucrtd:output.obj
 0001:0002e0a0       ?adjust_hexit@?$output_processor@_WV?$string_output_adapter@_W@__crt_stdio_output@@V?$format_validation_base@_WV?$string_output_adapter@_W@__crt_stdio_output@@@2@@__crt_stdio_output@@CADH_N@Z 1002f0a0 f i libucrtd:output.obj
 0001:0002e0a0       ?adjust_hexit@?$output_processor@DV?$string_output_adapter@D@__crt_stdio_output@@V?$format_validation_base@DV?$string_output_adapter@D@__crt_stdio_output@@@2@@__crt_stdio_output@@CADH_N@Z 1002f0a0 f i libucrtd:output.obj
 0001:0002e0e0       ?advance_to_next_pass@?$standard_base@DV?$string_output_adapter@D@__crt_stdio_output@@@__crt_stdio_output@@IAE_NXZ 1002f0e0 f i libucrtd:output.obj
 0001:0002e0e0       ?advance_to_next_pass@?$standard_base@_WV?$string_output_adapter@_W@__crt_stdio_output@@@__crt_stdio_output@@IAE_NXZ 1002f0e0 f i libucrtd:output.obj
 0001:0002e0e0       ?advance_to_next_pass@?$standard_base@_WV?$stream_output_adapter@_W@__crt_stdio_output@@@__crt_stdio_output@@IAE_NXZ 1002f0e0 f i libucrtd:output.obj
 0001:0002e130       ?crop_zeroes@__crt_stdio_output@@YAXPADQAU__crt_locale_pointers@@@Z 1002f130 f i libucrtd:output.obj
 0001:0002e230       ?find_next_state@?$output_processor@DV?$string_output_adapter@D@__crt_stdio_output@@V?$format_validation_base@DV?$string_output_adapter@D@__crt_stdio_output@@@2@@__crt_stdio_output@@ABE?AW4state@2@DW432@@Z 1002f230 f i libucrtd:output.obj
 0001:0002e2b0       ?find_next_state@?$output_processor@_WV?$string_output_adapter@_W@__crt_stdio_output@@V?$format_validation_base@_WV?$string_output_adapter@_W@__crt_stdio_output@@@2@@__crt_stdio_output@@ABE?AW4state@2@_WW432@@Z 1002f2b0 f i libucrtd:output.obj
 0001:0002e330       ?find_next_state@?$output_processor@_WV?$string_output_adapter@_W@__crt_stdio_output@@V?$standard_base@_WV?$string_output_adapter@_W@__crt_stdio_output@@@2@@__crt_stdio_output@@ABE?AW4state@2@_WW432@@Z 1002f330 f i libucrtd:output.obj
 0001:0002e330       ?find_next_state@?$output_processor@_WV?$stream_output_adapter@_W@__crt_stdio_output@@V?$standard_base@_WV?$stream_output_adapter@_W@__crt_stdio_output@@@2@@__crt_stdio_output@@ABE?AW4state@2@_WW432@@Z 1002f330 f i libucrtd:output.obj
 0001:0002e3b0       ?force_decimal_point@__crt_stdio_output@@YAXPADQAU__crt_locale_pointers@@@Z 1002f3b0 f i libucrtd:output.obj
 0001:0002e460       ?has_flag@?$output_processor@_WV?$string_output_adapter@_W@__crt_stdio_output@@V?$format_validation_base@_WV?$string_output_adapter@_W@__crt_stdio_output@@@2@@__crt_stdio_output@@ABE_NI@Z 1002f460 f i libucrtd:output.obj
 0001:0002e460       ?has_flag@?$output_processor@DV?$string_output_adapter@D@__crt_stdio_output@@V?$format_validation_base@DV?$string_output_adapter@D@__crt_stdio_output@@@2@@__crt_stdio_output@@ABE_NI@Z 1002f460 f i libucrtd:output.obj
 0001:0002e460       ?has_flag@?$output_processor@_WV?$stream_output_adapter@_W@__crt_stdio_output@@V?$standard_base@_WV?$stream_output_adapter@_W@__crt_stdio_output@@@2@@__crt_stdio_output@@ABE_NI@Z 1002f460 f i libucrtd:output.obj
 0001:0002e460       ?has_flag@?$output_processor@_WV?$string_output_adapter@_W@__crt_stdio_output@@V?$standard_base@_WV?$string_output_adapter@_W@__crt_stdio_output@@@2@@__crt_stdio_output@@ABE_NI@Z 1002f460 f i libucrtd:output.obj
 0001:0002e490       ?is_string_backed@__crt_stdio_stream@@QBE_NXZ 1002f490 f i libucrtd:output.obj
 0001:0002e4d0       ?narrow_null_string@?$output_processor@DV?$string_output_adapter@D@__crt_stdio_output@@V?$format_validation_base@DV?$string_output_adapter@D@__crt_stdio_output@@@2@@__crt_stdio_output@@CAPADXZ 1002f4d0 f i libucrtd:output.obj
 0001:0002e4d0       ?narrow_null_string@?$output_processor@_WV?$stream_output_adapter@_W@__crt_stdio_output@@V?$standard_base@_WV?$stream_output_adapter@_W@__crt_stdio_output@@@2@@__crt_stdio_output@@CAPADXZ 1002f4d0 f i libucrtd:output.obj
 0001:0002e4d0       ?narrow_null_string@?$output_processor@_WV?$string_output_adapter@_W@__crt_stdio_output@@V?$format_validation_base@_WV?$string_output_adapter@_W@__crt_stdio_output@@@2@@__crt_stdio_output@@CAPADXZ 1002f4d0 f i libucrtd:output.obj
 0001:0002e4d0       ?narrow_null_string@?$output_processor@_WV?$string_output_adapter@_W@__crt_stdio_output@@V?$standard_base@_WV?$string_output_adapter@_W@__crt_stdio_output@@@2@@__crt_stdio_output@@CAPADXZ 1002f4d0 f i libucrtd:output.obj
 0001:0002e4e0       ?parse_int_from_format_string@?$output_processor@DV?$string_output_adapter@D@__crt_stdio_output@@V?$format_validation_base@DV?$string_output_adapter@D@__crt_stdio_output@@@2@@__crt_stdio_output@@AAE_NQAH@Z 1002f4e0 f i libucrtd:output.obj
 0001:0002e590       ?parse_int_from_format_string@?$output_processor@_WV?$string_output_adapter@_W@__crt_stdio_output@@V?$standard_base@_WV?$string_output_adapter@_W@__crt_stdio_output@@@2@@__crt_stdio_output@@AAE_NQAH@Z 1002f590 f i libucrtd:output.obj
 0001:0002e590       ?parse_int_from_format_string@?$output_processor@_WV?$string_output_adapter@_W@__crt_stdio_output@@V?$format_validation_base@_WV?$string_output_adapter@_W@__crt_stdio_output@@@2@@__crt_stdio_output@@AAE_NQAH@Z 1002f590 f i libucrtd:output.obj
 0001:0002e590       ?parse_int_from_format_string@?$output_processor@_WV?$stream_output_adapter@_W@__crt_stdio_output@@V?$standard_base@_WV?$stream_output_adapter@_W@__crt_stdio_output@@@2@@__crt_stdio_output@@AAE_NQAH@Z 1002f590 f i libucrtd:output.obj
 0001:0002e640       ?process@?$output_processor@DV?$string_output_adapter@D@__crt_stdio_output@@V?$format_validation_base@DV?$string_output_adapter@D@__crt_stdio_output@@@2@@__crt_stdio_output@@QAEHXZ 1002f640 f i libucrtd:output.obj
 0001:0002e8f0       ?process@?$output_processor@_WV?$stream_output_adapter@_W@__crt_stdio_output@@V?$standard_base@_WV?$stream_output_adapter@_W@__crt_stdio_output@@@2@@__crt_stdio_output@@QAEHXZ 1002f8f0 f i libucrtd:output.obj
 0001:0002eba0       ?process@?$output_processor@_WV?$string_output_adapter@_W@__crt_stdio_output@@V?$format_validation_base@_WV?$string_output_adapter@_W@__crt_stdio_output@@@2@@__crt_stdio_output@@QAEHXZ 1002fba0 f i libucrtd:output.obj
 0001:0002ee60       ?process@?$output_processor@_WV?$string_output_adapter@_W@__crt_stdio_output@@V?$standard_base@_WV?$string_output_adapter@_W@__crt_stdio_output@@@2@@__crt_stdio_output@@QAEHXZ 1002fe60 f i libucrtd:output.obj
 0001:0002f110       ?set_flag@?$output_processor@DV?$string_output_adapter@D@__crt_stdio_output@@V?$format_validation_base@DV?$string_output_adapter@D@__crt_stdio_output@@@2@@__crt_stdio_output@@AAEXI@Z 10030110 f i libucrtd:output.obj
 0001:0002f110       ?set_flag@?$output_processor@_WV?$stream_output_adapter@_W@__crt_stdio_output@@V?$standard_base@_WV?$stream_output_adapter@_W@__crt_stdio_output@@@2@@__crt_stdio_output@@AAEXI@Z 10030110 f i libucrtd:output.obj
 0001:0002f110       ?set_flag@?$output_processor@_WV?$string_output_adapter@_W@__crt_stdio_output@@V?$format_validation_base@_WV?$string_output_adapter@_W@__crt_stdio_output@@@2@@__crt_stdio_output@@AAEXI@Z 10030110 f i libucrtd:output.obj
 0001:0002f110       ?set_flag@?$output_processor@_WV?$string_output_adapter@_W@__crt_stdio_output@@V?$standard_base@_WV?$string_output_adapter@_W@__crt_stdio_output@@@2@@__crt_stdio_output@@AAEXI@Z 10030110 f i libucrtd:output.obj
 0001:0002f130       ?should_skip_type_state_output@?$standard_base@DV?$string_output_adapter@D@__crt_stdio_output@@@__crt_stdio_output@@IBE_NXZ 10030130 f i libucrtd:output.obj
 0001:0002f130       ?should_skip_type_state_output@?$standard_base@_WV?$string_output_adapter@_W@__crt_stdio_output@@@__crt_stdio_output@@IBE_NXZ 10030130 f i libucrtd:output.obj
 0001:0002f130       ?should_skip_normal_state_processing@?$standard_base@_WV?$string_output_adapter@_W@__crt_stdio_output@@@__crt_stdio_output@@IAE_NXZ 10030130 f i libucrtd:output.obj
 0001:0002f130       ?should_skip_normal_state_processing@?$standard_base@_WV?$stream_output_adapter@_W@__crt_stdio_output@@@__crt_stdio_output@@IAE_NXZ 10030130 f i libucrtd:output.obj
 0001:0002f130       ?should_skip_normal_state_processing@?$standard_base@DV?$string_output_adapter@D@__crt_stdio_output@@@__crt_stdio_output@@IAE_NXZ 10030130 f i libucrtd:output.obj
 0001:0002f130       ?should_skip_type_state_output@?$standard_base@_WV?$stream_output_adapter@_W@__crt_stdio_output@@@__crt_stdio_output@@IBE_NXZ 10030130 f i libucrtd:output.obj
 0001:0002f140       ?state_case_dot@?$output_processor@_WV?$string_output_adapter@_W@__crt_stdio_output@@V?$standard_base@_WV?$string_output_adapter@_W@__crt_stdio_output@@@2@@__crt_stdio_output@@AAE_NXZ 10030140 f i libucrtd:output.obj
 0001:0002f140       ?state_case_dot@?$output_processor@DV?$string_output_adapter@D@__crt_stdio_output@@V?$format_validation_base@DV?$string_output_adapter@D@__crt_stdio_output@@@2@@__crt_stdio_output@@AAE_NXZ 10030140 f i libucrtd:output.obj
 0001:0002f140       ?state_case_dot@?$output_processor@_WV?$string_output_adapter@_W@__crt_stdio_output@@V?$format_validation_base@_WV?$string_output_adapter@_W@__crt_stdio_output@@@2@@__crt_stdio_output@@AAE_NXZ 10030140 f i libucrtd:output.obj
 0001:0002f140       ?state_case_dot@?$output_processor@_WV?$stream_output_adapter@_W@__crt_stdio_output@@V?$standard_base@_WV?$stream_output_adapter@_W@__crt_stdio_output@@@2@@__crt_stdio_output@@AAE_NXZ 10030140 f i libucrtd:output.obj
 0001:0002f160       ?state_case_flag@?$output_processor@DV?$string_output_adapter@D@__crt_stdio_output@@V?$format_validation_base@DV?$string_output_adapter@D@__crt_stdio_output@@@2@@__crt_stdio_output@@AAE_NXZ 10030160 f i libucrtd:output.obj
 0001:0002f210       ?state_case_flag@?$output_processor@_WV?$string_output_adapter@_W@__crt_stdio_output@@V?$standard_base@_WV?$string_output_adapter@_W@__crt_stdio_output@@@2@@__crt_stdio_output@@AAE_NXZ 10030210 f i libucrtd:output.obj
 0001:0002f210       ?state_case_flag@?$output_processor@_WV?$stream_output_adapter@_W@__crt_stdio_output@@V?$standard_base@_WV?$stream_output_adapter@_W@__crt_stdio_output@@@2@@__crt_stdio_output@@AAE_NXZ 10030210 f i libucrtd:output.obj
 0001:0002f210       ?state_case_flag@?$output_processor@_WV?$string_output_adapter@_W@__crt_stdio_output@@V?$format_validation_base@_WV?$string_output_adapter@_W@__crt_stdio_output@@@2@@__crt_stdio_output@@AAE_NXZ 10030210 f i libucrtd:output.obj
 0001:0002f2c0       ?state_case_normal@?$output_processor@DV?$string_output_adapter@D@__crt_stdio_output@@V?$format_validation_base@DV?$string_output_adapter@D@__crt_stdio_output@@@2@@__crt_stdio_output@@AAE_NXZ 100302c0 f i libucrtd:output.obj
 0001:0002f370       ?state_case_normal@?$output_processor@_WV?$stream_output_adapter@_W@__crt_stdio_output@@V?$standard_base@_WV?$stream_output_adapter@_W@__crt_stdio_output@@@2@@__crt_stdio_output@@AAE_NXZ 10030370 f i libucrtd:output.obj
 0001:0002f420       ?state_case_normal@?$output_processor@_WV?$string_output_adapter@_W@__crt_stdio_output@@V?$format_validation_base@_WV?$string_output_adapter@_W@__crt_stdio_output@@@2@@__crt_stdio_output@@AAE_NXZ 10030420 f i libucrtd:output.obj
 0001:0002f4d0       ?state_case_normal@?$output_processor@_WV?$string_output_adapter@_W@__crt_stdio_output@@V?$standard_base@_WV?$string_output_adapter@_W@__crt_stdio_output@@@2@@__crt_stdio_output@@AAE_NXZ 100304d0 f i libucrtd:output.obj
 0001:0002f580       ?state_case_normal_common@?$output_processor@DV?$string_output_adapter@D@__crt_stdio_output@@V?$format_validation_base@DV?$string_output_adapter@D@__crt_stdio_output@@@2@@__crt_stdio_output@@AAE_NXZ 10030580 f i libucrtd:output.obj
 0001:0002f5d0       ?state_case_normal_common@?$output_processor@_WV?$stream_output_adapter@_W@__crt_stdio_output@@V?$standard_base@_WV?$stream_output_adapter@_W@__crt_stdio_output@@@2@@__crt_stdio_output@@AAE_NXZ 100305d0 f i libucrtd:output.obj
 0001:0002f620       ?state_case_normal_common@?$output_processor@_WV?$string_output_adapter@_W@__crt_stdio_output@@V?$standard_base@_WV?$string_output_adapter@_W@__crt_stdio_output@@@2@@__crt_stdio_output@@AAE_NXZ 10030620 f i libucrtd:output.obj
 0001:0002f620       ?state_case_normal_common@?$output_processor@_WV?$string_output_adapter@_W@__crt_stdio_output@@V?$format_validation_base@_WV?$string_output_adapter@_W@__crt_stdio_output@@@2@@__crt_stdio_output@@AAE_NXZ 10030620 f i libucrtd:output.obj
 0001:0002f670       ?state_case_normal_tchar@?$output_processor@DV?$string_output_adapter@D@__crt_stdio_output@@V?$format_validation_base@DV?$string_output_adapter@D@__crt_stdio_output@@@2@@__crt_stdio_output@@AAE_ND@Z 10030670 f i libucrtd:output.obj
 0001:0002f770       ?state_case_normal_tchar@?$output_processor@_WV?$stream_output_adapter@_W@__crt_stdio_output@@V?$standard_base@_WV?$stream_output_adapter@_W@__crt_stdio_output@@@2@@__crt_stdio_output@@AAE_N_W@Z 10030770 f i libucrtd:output.obj
 0001:0002f770       ?state_case_normal_tchar@?$output_processor@_WV?$string_output_adapter@_W@__crt_stdio_output@@V?$format_validation_base@_WV?$string_output_adapter@_W@__crt_stdio_output@@@2@@__crt_stdio_output@@AAE_N_W@Z 10030770 f i libucrtd:output.obj
 0001:0002f770       ?state_case_normal_tchar@?$output_processor@_WV?$string_output_adapter@_W@__crt_stdio_output@@V?$standard_base@_WV?$string_output_adapter@_W@__crt_stdio_output@@@2@@__crt_stdio_output@@AAE_N_W@Z 10030770 f i libucrtd:output.obj
 0001:0002f790       ?state_case_percent@?$output_processor@_WV?$stream_output_adapter@_W@__crt_stdio_output@@V?$standard_base@_WV?$stream_output_adapter@_W@__crt_stdio_output@@@2@@__crt_stdio_output@@AAE_NXZ 10030790 f i libucrtd:output.obj
 0001:0002f790       ?state_case_percent@?$output_processor@_WV?$string_output_adapter@_W@__crt_stdio_output@@V?$standard_base@_WV?$string_output_adapter@_W@__crt_stdio_output@@@2@@__crt_stdio_output@@AAE_NXZ 10030790 f i libucrtd:output.obj
 0001:0002f790       ?state_case_percent@?$output_processor@_WV?$string_output_adapter@_W@__crt_stdio_output@@V?$format_validation_base@_WV?$string_output_adapter@_W@__crt_stdio_output@@@2@@__crt_stdio_output@@AAE_NXZ 10030790 f i libucrtd:output.obj
 0001:0002f790       ?state_case_percent@?$output_processor@DV?$string_output_adapter@D@__crt_stdio_output@@V?$format_validation_base@DV?$string_output_adapter@D@__crt_stdio_output@@@2@@__crt_stdio_output@@AAE_NXZ 10030790 f i libucrtd:output.obj
 0001:0002f7e0       ?state_case_precision@?$output_processor@DV?$string_output_adapter@D@__crt_stdio_output@@V?$format_validation_base@DV?$string_output_adapter@D@__crt_stdio_output@@@2@@__crt_stdio_output@@AAE_NXZ 100307e0 f i libucrtd:output.obj
 0001:0002f850       ?state_case_precision@?$output_processor@_WV?$stream_output_adapter@_W@__crt_stdio_output@@V?$standard_base@_WV?$stream_output_adapter@_W@__crt_stdio_output@@@2@@__crt_stdio_output@@AAE_NXZ 10030850 f i libucrtd:output.obj
 0001:0002f850       ?state_case_precision@?$output_processor@_WV?$string_output_adapter@_W@__crt_stdio_output@@V?$standard_base@_WV?$string_output_adapter@_W@__crt_stdio_output@@@2@@__crt_stdio_output@@AAE_NXZ 10030850 f i libucrtd:output.obj
 0001:0002f850       ?state_case_precision@?$output_processor@_WV?$string_output_adapter@_W@__crt_stdio_output@@V?$format_validation_base@_WV?$string_output_adapter@_W@__crt_stdio_output@@@2@@__crt_stdio_output@@AAE_NXZ 10030850 f i libucrtd:output.obj
 0001:0002f8c0       ?state_case_size@?$output_processor@DV?$string_output_adapter@D@__crt_stdio_output@@V?$format_validation_base@DV?$string_output_adapter@D@__crt_stdio_output@@@2@@__crt_stdio_output@@AAE_NXZ 100308c0 f i libucrtd:output.obj
 0001:0002fc90       ?state_case_size@?$output_processor@_WV?$stream_output_adapter@_W@__crt_stdio_output@@V?$standard_base@_WV?$stream_output_adapter@_W@__crt_stdio_output@@@2@@__crt_stdio_output@@AAE_NXZ 10030c90 f i libucrtd:output.obj
 0001:00030060       ?state_case_size@?$output_processor@_WV?$string_output_adapter@_W@__crt_stdio_output@@V?$format_validation_base@_WV?$string_output_adapter@_W@__crt_stdio_output@@@2@@__crt_stdio_output@@AAE_NXZ 10031060 f i libucrtd:output.obj
 0001:00030430       ?state_case_size@?$output_processor@_WV?$string_output_adapter@_W@__crt_stdio_output@@V?$standard_base@_WV?$string_output_adapter@_W@__crt_stdio_output@@@2@@__crt_stdio_output@@AAE_NXZ 10031430 f i libucrtd:output.obj
 0001:00030800       ?state_case_type@?$output_processor@DV?$string_output_adapter@D@__crt_stdio_output@@V?$format_validation_base@DV?$string_output_adapter@D@__crt_stdio_output@@@2@@__crt_stdio_output@@AAE_NXZ 10031800 f i libucrtd:output.obj
 0001:00030bb0       ?state_case_type@?$output_processor@_WV?$stream_output_adapter@_W@__crt_stdio_output@@V?$standard_base@_WV?$stream_output_adapter@_W@__crt_stdio_output@@@2@@__crt_stdio_output@@AAE_NXZ 10031bb0 f i libucrtd:output.obj
 0001:00030f90       ?state_case_type@?$output_processor@_WV?$string_output_adapter@_W@__crt_stdio_output@@V?$format_validation_base@_WV?$string_output_adapter@_W@__crt_stdio_output@@@2@@__crt_stdio_output@@AAE_NXZ 10031f90 f i libucrtd:output.obj
 0001:00031370       ?state_case_type@?$output_processor@_WV?$string_output_adapter@_W@__crt_stdio_output@@V?$standard_base@_WV?$string_output_adapter@_W@__crt_stdio_output@@@2@@__crt_stdio_output@@AAE_NXZ 10032370 f i libucrtd:output.obj
 0001:00031750       ?state_case_width@?$output_processor@DV?$string_output_adapter@D@__crt_stdio_output@@V?$format_validation_base@DV?$string_output_adapter@D@__crt_stdio_output@@@2@@__crt_stdio_output@@AAE_NXZ 10032750 f i libucrtd:output.obj
 0001:000317d0       ?state_case_width@?$output_processor@_WV?$string_output_adapter@_W@__crt_stdio_output@@V?$format_validation_base@_WV?$string_output_adapter@_W@__crt_stdio_output@@@2@@__crt_stdio_output@@AAE_NXZ 100327d0 f i libucrtd:output.obj
 0001:000317d0       ?state_case_width@?$output_processor@_WV?$string_output_adapter@_W@__crt_stdio_output@@V?$standard_base@_WV?$string_output_adapter@_W@__crt_stdio_output@@@2@@__crt_stdio_output@@AAE_NXZ 100327d0 f i libucrtd:output.obj
 0001:000317d0       ?state_case_width@?$output_processor@_WV?$stream_output_adapter@_W@__crt_stdio_output@@V?$standard_base@_WV?$stream_output_adapter@_W@__crt_stdio_output@@@2@@__crt_stdio_output@@AAE_NXZ 100327d0 f i libucrtd:output.obj
 0001:00031850       ?state_count@?$format_validation_base@DV?$string_output_adapter@D@__crt_stdio_output@@@__crt_stdio_output@@KAIXZ 10032850 f i libucrtd:output.obj
 0001:00031850       ?state_count@?$format_validation_base@_WV?$string_output_adapter@_W@__crt_stdio_output@@@__crt_stdio_output@@KAIXZ 10032850 f i libucrtd:output.obj
 0001:00031860       ?state_count@?$standard_base@_WV?$stream_output_adapter@_W@__crt_stdio_output@@@__crt_stdio_output@@KAIXZ 10032860 f i libucrtd:output.obj
 0001:00031860       ?state_count@?$standard_base@_WV?$string_output_adapter@_W@__crt_stdio_output@@@__crt_stdio_output@@KAIXZ 10032860 f i libucrtd:output.obj
 0001:00031870       ?state_transition_table@?$format_validation_base@DV?$string_output_adapter@D@__crt_stdio_output@@@__crt_stdio_output@@KAPBEXZ 10032870 f i libucrtd:output.obj
 0001:00031870       ?state_transition_table@?$format_validation_base@_WV?$string_output_adapter@_W@__crt_stdio_output@@@__crt_stdio_output@@KAPBEXZ 10032870 f i libucrtd:output.obj
 0001:00031880       ?state_transition_table@?$standard_base@_WV?$string_output_adapter@_W@__crt_stdio_output@@@__crt_stdio_output@@KAPBEXZ 10032880 f i libucrtd:output.obj
 0001:00031880       ?state_transition_table@?$standard_base@_WV?$stream_output_adapter@_W@__crt_stdio_output@@@__crt_stdio_output@@KAPBEXZ 10032880 f i libucrtd:output.obj
 0001:00031890       ?to_integer_size@__crt_stdio_output@@YAIW4length_modifier@1@@Z 10032890 f i libucrtd:output.obj
 0001:00031930       ?type_case_X@?$output_processor@DV?$string_output_adapter@D@__crt_stdio_output@@V?$format_validation_base@DV?$string_output_adapter@D@__crt_stdio_output@@@2@@__crt_stdio_output@@AAE_NXZ 10032930 f i libucrtd:output.obj
 0001:00031950       ?type_case_X@?$output_processor@_WV?$stream_output_adapter@_W@__crt_stdio_output@@V?$standard_base@_WV?$stream_output_adapter@_W@__crt_stdio_output@@@2@@__crt_stdio_output@@AAE_NXZ 10032950 f i libucrtd:output.obj
 0001:00031970       ?type_case_X@?$output_processor@_WV?$string_output_adapter@_W@__crt_stdio_output@@V?$format_validation_base@_WV?$string_output_adapter@_W@__crt_stdio_output@@@2@@__crt_stdio_output@@AAE_NXZ 10032970 f i libucrtd:output.obj
 0001:00031990       ?type_case_X@?$output_processor@_WV?$string_output_adapter@_W@__crt_stdio_output@@V?$standard_base@_WV?$string_output_adapter@_W@__crt_stdio_output@@@2@@__crt_stdio_output@@AAE_NXZ 10032990 f i libucrtd:output.obj
 0001:000319b0       ?type_case_Z@?$output_processor@DV?$string_output_adapter@D@__crt_stdio_output@@V?$format_validation_base@DV?$string_output_adapter@D@__crt_stdio_output@@@2@@__crt_stdio_output@@AAE_NXZ 100329b0 f i libucrtd:output.obj
 0001:00031aa0       ?type_case_Z@?$output_processor@_WV?$string_output_adapter@_W@__crt_stdio_output@@V?$standard_base@_WV?$string_output_adapter@_W@__crt_stdio_output@@@2@@__crt_stdio_output@@AAE_NXZ 10032aa0 f i libucrtd:output.obj
 0001:00031aa0       ?type_case_Z@?$output_processor@_WV?$stream_output_adapter@_W@__crt_stdio_output@@V?$standard_base@_WV?$stream_output_adapter@_W@__crt_stdio_output@@@2@@__crt_stdio_output@@AAE_NXZ 10032aa0 f i libucrtd:output.obj
 0001:00031aa0       ?type_case_Z@?$output_processor@_WV?$string_output_adapter@_W@__crt_stdio_output@@V?$format_validation_base@_WV?$string_output_adapter@_W@__crt_stdio_output@@@2@@__crt_stdio_output@@AAE_NXZ 10032aa0 f i libucrtd:output.obj
 0001:00031b90       ?type_case_a@?$output_processor@DV?$string_output_adapter@D@__crt_stdio_output@@V?$format_validation_base@DV?$string_output_adapter@D@__crt_stdio_output@@@2@@__crt_stdio_output@@AAE_NXZ 10032b90 f i libucrtd:output.obj
 0001:00031df0       ?type_case_a@?$output_processor@_WV?$stream_output_adapter@_W@__crt_stdio_output@@V?$standard_base@_WV?$stream_output_adapter@_W@__crt_stdio_output@@@2@@__crt_stdio_output@@AAE_NXZ 10032df0 f i libucrtd:output.obj
 0001:00031df0       ?type_case_a@?$output_processor@_WV?$string_output_adapter@_W@__crt_stdio_output@@V?$format_validation_base@_WV?$string_output_adapter@_W@__crt_stdio_output@@@2@@__crt_stdio_output@@AAE_NXZ 10032df0 f i libucrtd:output.obj
 0001:00031df0       ?type_case_a@?$output_processor@_WV?$string_output_adapter@_W@__crt_stdio_output@@V?$standard_base@_WV?$string_output_adapter@_W@__crt_stdio_output@@@2@@__crt_stdio_output@@AAE_NXZ 10032df0 f i libucrtd:output.obj
 0001:00032050       ?type_case_c@?$output_processor@DV?$string_output_adapter@D@__crt_stdio_output@@V?$format_validation_base@DV?$string_output_adapter@D@__crt_stdio_output@@@2@@__crt_stdio_output@@AAE_NXZ 10033050 f i libucrtd:output.obj
 0001:00032070       ?type_case_c@?$output_processor@_WV?$string_output_adapter@_W@__crt_stdio_output@@V?$standard_base@_WV?$string_output_adapter@_W@__crt_stdio_output@@@2@@__crt_stdio_output@@AAE_NXZ 10033070 f i libucrtd:output.obj
 0001:00032070       ?type_case_c@?$output_processor@_WV?$string_output_adapter@_W@__crt_stdio_output@@V?$format_validation_base@_WV?$string_output_adapter@_W@__crt_stdio_output@@@2@@__crt_stdio_output@@AAE_NXZ 10033070 f i libucrtd:output.obj
 0001:00032070       ?type_case_c@?$output_processor@_WV?$stream_output_adapter@_W@__crt_stdio_output@@V?$standard_base@_WV?$stream_output_adapter@_W@__crt_stdio_output@@@2@@__crt_stdio_output@@AAE_NXZ 10033070 f i libucrtd:output.obj
 0001:00032090       ?type_case_c_tchar@?$output_processor@DV?$string_output_adapter@D@__crt_stdio_output@@V?$format_validation_base@DV?$string_output_adapter@D@__crt_stdio_output@@@2@@__crt_stdio_output@@AAE_ND@Z 10033090 f i libucrtd:output.obj
 0001:000321a0       ?type_case_c_tchar@?$output_processor@_WV?$string_output_adapter@_W@__crt_stdio_output@@V?$format_validation_base@_WV?$string_output_adapter@_W@__crt_stdio_output@@@2@@__crt_stdio_output@@AAE_N_W@Z 100331a0 f i libucrtd:output.obj
 0001:000321a0       ?type_case_c_tchar@?$output_processor@_WV?$stream_output_adapter@_W@__crt_stdio_output@@V?$standard_base@_WV?$stream_output_adapter@_W@__crt_stdio_output@@@2@@__crt_stdio_output@@AAE_N_W@Z 100331a0 f i libucrtd:output.obj
 0001:000321a0       ?type_case_c_tchar@?$output_processor@_WV?$string_output_adapter@_W@__crt_stdio_output@@V?$standard_base@_WV?$string_output_adapter@_W@__crt_stdio_output@@@2@@__crt_stdio_output@@AAE_N_W@Z 100331a0 f i libucrtd:output.obj
 0001:000322a0       ?type_case_d@?$output_processor@DV?$string_output_adapter@D@__crt_stdio_output@@V?$format_validation_base@DV?$string_output_adapter@D@__crt_stdio_output@@@2@@__crt_stdio_output@@AAE_NXZ 100332a0 f i libucrtd:output.obj
 0001:000322d0       ?type_case_d@?$output_processor@_WV?$stream_output_adapter@_W@__crt_stdio_output@@V?$standard_base@_WV?$stream_output_adapter@_W@__crt_stdio_output@@@2@@__crt_stdio_output@@AAE_NXZ 100332d0 f i libucrtd:output.obj
 0001:00032300       ?type_case_d@?$output_processor@_WV?$string_output_adapter@_W@__crt_stdio_output@@V?$format_validation_base@_WV?$string_output_adapter@_W@__crt_stdio_output@@@2@@__crt_stdio_output@@AAE_NXZ 10033300 f i libucrtd:output.obj
 0001:00032330       ?type_case_d@?$output_processor@_WV?$string_output_adapter@_W@__crt_stdio_output@@V?$standard_base@_WV?$string_output_adapter@_W@__crt_stdio_output@@@2@@__crt_stdio_output@@AAE_NXZ 10033330 f i libucrtd:output.obj
 0001:00032360       ?type_case_integer@?$output_processor@DV?$string_output_adapter@D@__crt_stdio_output@@V?$format_validation_base@DV?$string_output_adapter@D@__crt_stdio_output@@@2@@__crt_stdio_output@@AAE_NI_N@Z 10033360 f i libucrtd:output.obj
 0001:000326a0       ?type_case_integer@?$output_processor@_WV?$stream_output_adapter@_W@__crt_stdio_output@@V?$standard_base@_WV?$stream_output_adapter@_W@__crt_stdio_output@@@2@@__crt_stdio_output@@AAE_NI_N@Z 100336a0 f i libucrtd:output.obj
 0001:000329e0       ?type_case_integer@?$output_processor@_WV?$string_output_adapter@_W@__crt_stdio_output@@V?$format_validation_base@_WV?$string_output_adapter@_W@__crt_stdio_output@@@2@@__crt_stdio_output@@AAE_NI_N@Z 100339e0 f i libucrtd:output.obj
 0001:00032d20       ?type_case_integer@?$output_processor@_WV?$string_output_adapter@_W@__crt_stdio_output@@V?$standard_base@_WV?$string_output_adapter@_W@__crt_stdio_output@@@2@@__crt_stdio_output@@AAE_NI_N@Z 10033d20 f i libucrtd:output.obj
 0001:00033060       ?type_case_n@?$output_processor@DV?$string_output_adapter@D@__crt_stdio_output@@V?$format_validation_base@DV?$string_output_adapter@D@__crt_stdio_output@@@2@@__crt_stdio_output@@AAE_NXZ 10034060 f i libucrtd:output.obj
 0001:00033250       ?type_case_n@?$output_processor@_WV?$stream_output_adapter@_W@__crt_stdio_output@@V?$standard_base@_WV?$stream_output_adapter@_W@__crt_stdio_output@@@2@@__crt_stdio_output@@AAE_NXZ 10034250 f i libucrtd:output.obj
 0001:00033440       ?type_case_n@?$output_processor@_WV?$string_output_adapter@_W@__crt_stdio_output@@V?$format_validation_base@_WV?$string_output_adapter@_W@__crt_stdio_output@@@2@@__crt_stdio_output@@AAE_NXZ 10034440 f i libucrtd:output.obj
 0001:00033630       ?type_case_n@?$output_processor@_WV?$string_output_adapter@_W@__crt_stdio_output@@V?$standard_base@_WV?$string_output_adapter@_W@__crt_stdio_output@@@2@@__crt_stdio_output@@AAE_NXZ 10034630 f i libucrtd:output.obj
 0001:00033820       ?type_case_o@?$output_processor@DV?$string_output_adapter@D@__crt_stdio_output@@V?$format_validation_base@DV?$string_output_adapter@D@__crt_stdio_output@@@2@@__crt_stdio_output@@AAE_NXZ 10034820 f i libucrtd:output.obj
 0001:00033860       ?type_case_o@?$output_processor@_WV?$stream_output_adapter@_W@__crt_stdio_output@@V?$standard_base@_WV?$stream_output_adapter@_W@__crt_stdio_output@@@2@@__crt_stdio_output@@AAE_NXZ 10034860 f i libucrtd:output.obj
 0001:000338a0       ?type_case_o@?$output_processor@_WV?$string_output_adapter@_W@__crt_stdio_output@@V?$format_validation_base@_WV?$string_output_adapter@_W@__crt_stdio_output@@@2@@__crt_stdio_output@@AAE_NXZ 100348a0 f i libucrtd:output.obj
 0001:000338e0       ?type_case_o@?$output_processor@_WV?$string_output_adapter@_W@__crt_stdio_output@@V?$standard_base@_WV?$string_output_adapter@_W@__crt_stdio_output@@@2@@__crt_stdio_output@@AAE_NXZ 100348e0 f i libucrtd:output.obj
 0001:00033920       ?type_case_p@?$output_processor@DV?$string_output_adapter@D@__crt_stdio_output@@V?$format_validation_base@DV?$string_output_adapter@D@__crt_stdio_output@@@2@@__crt_stdio_output@@AAE_NXZ 10034920 f i libucrtd:output.obj
 0001:00033950       ?type_case_p@?$output_processor@_WV?$stream_output_adapter@_W@__crt_stdio_output@@V?$standard_base@_WV?$stream_output_adapter@_W@__crt_stdio_output@@@2@@__crt_stdio_output@@AAE_NXZ 10034950 f i libucrtd:output.obj
 0001:00033980       ?type_case_p@?$output_processor@_WV?$string_output_adapter@_W@__crt_stdio_output@@V?$format_validation_base@_WV?$string_output_adapter@_W@__crt_stdio_output@@@2@@__crt_stdio_output@@AAE_NXZ 10034980 f i libucrtd:output.obj
 0001:000339b0       ?type_case_p@?$output_processor@_WV?$string_output_adapter@_W@__crt_stdio_output@@V?$standard_base@_WV?$string_output_adapter@_W@__crt_stdio_output@@@2@@__crt_stdio_output@@AAE_NXZ 100349b0 f i libucrtd:output.obj
 0001:000339e0       ?type_case_s@?$output_processor@DV?$string_output_adapter@D@__crt_stdio_output@@V?$format_validation_base@DV?$string_output_adapter@D@__crt_stdio_output@@@2@@__crt_stdio_output@@AAE_NXZ 100349e0 f i libucrtd:output.obj
 0001:00033ad0       ?type_case_s@?$output_processor@_WV?$string_output_adapter@_W@__crt_stdio_output@@V?$standard_base@_WV?$string_output_adapter@_W@__crt_stdio_output@@@2@@__crt_stdio_output@@AAE_NXZ 10034ad0 f i libucrtd:output.obj
 0001:00033ad0       ?type_case_s@?$output_processor@_WV?$stream_output_adapter@_W@__crt_stdio_output@@V?$standard_base@_WV?$stream_output_adapter@_W@__crt_stdio_output@@@2@@__crt_stdio_output@@AAE_NXZ 10034ad0 f i libucrtd:output.obj
 0001:00033ad0       ?type_case_s@?$output_processor@_WV?$string_output_adapter@_W@__crt_stdio_output@@V?$format_validation_base@_WV?$string_output_adapter@_W@__crt_stdio_output@@@2@@__crt_stdio_output@@AAE_NXZ 10034ad0 f i libucrtd:output.obj
 0001:00033bc0       ?type_case_s_compute_narrow_string_length@?$output_processor@DV?$string_output_adapter@D@__crt_stdio_output@@V?$format_validation_base@DV?$string_output_adapter@D@__crt_stdio_output@@@2@@__crt_stdio_output@@ABEHHD@Z 10034bc0 f i libucrtd:output.obj
 0001:00033bf0       ?type_case_s_compute_narrow_string_length@?$output_processor@_WV?$string_output_adapter@_W@__crt_stdio_output@@V?$format_validation_base@_WV?$string_output_adapter@_W@__crt_stdio_output@@@2@@__crt_stdio_output@@ABEHH_W@Z 10034bf0 f i libucrtd:output.obj
 0001:00033bf0       ?type_case_s_compute_narrow_string_length@?$output_processor@_WV?$string_output_adapter@_W@__crt_stdio_output@@V?$standard_base@_WV?$string_output_adapter@_W@__crt_stdio_output@@@2@@__crt_stdio_output@@ABEHH_W@Z 10034bf0 f i libucrtd:output.obj
 0001:00033bf0       ?type_case_s_compute_narrow_string_length@?$output_processor@_WV?$stream_output_adapter@_W@__crt_stdio_output@@V?$standard_base@_WV?$stream_output_adapter@_W@__crt_stdio_output@@@2@@__crt_stdio_output@@ABEHH_W@Z 10034bf0 f i libucrtd:output.obj
 0001:00033c60       ?type_case_u@?$output_processor@DV?$string_output_adapter@D@__crt_stdio_output@@V?$format_validation_base@DV?$string_output_adapter@D@__crt_stdio_output@@@2@@__crt_stdio_output@@AAE_NXZ 10034c60 f i libucrtd:output.obj
 0001:00033c80       ?type_case_u@?$output_processor@_WV?$stream_output_adapter@_W@__crt_stdio_output@@V?$standard_base@_WV?$stream_output_adapter@_W@__crt_stdio_output@@@2@@__crt_stdio_output@@AAE_NXZ 10034c80 f i libucrtd:output.obj
 0001:00033ca0       ?type_case_u@?$output_processor@_WV?$string_output_adapter@_W@__crt_stdio_output@@V?$format_validation_base@_WV?$string_output_adapter@_W@__crt_stdio_output@@@2@@__crt_stdio_output@@AAE_NXZ 10034ca0 f i libucrtd:output.obj
 0001:00033cc0       ?type_case_u@?$output_processor@_WV?$string_output_adapter@_W@__crt_stdio_output@@V?$standard_base@_WV?$string_output_adapter@_W@__crt_stdio_output@@@2@@__crt_stdio_output@@AAE_NXZ 10034cc0 f i libucrtd:output.obj
 0001:00033ce0       ?type_case_x@?$output_processor@DV?$string_output_adapter@D@__crt_stdio_output@@V?$format_validation_base@DV?$string_output_adapter@D@__crt_stdio_output@@@2@@__crt_stdio_output@@AAE_NXZ 10034ce0 f i libucrtd:output.obj
 0001:00033d00       ?type_case_x@?$output_processor@_WV?$stream_output_adapter@_W@__crt_stdio_output@@V?$standard_base@_WV?$stream_output_adapter@_W@__crt_stdio_output@@@2@@__crt_stdio_output@@AAE_NXZ 10034d00 f i libucrtd:output.obj
 0001:00033d20       ?type_case_x@?$output_processor@_WV?$string_output_adapter@_W@__crt_stdio_output@@V?$format_validation_base@_WV?$string_output_adapter@_W@__crt_stdio_output@@@2@@__crt_stdio_output@@AAE_NXZ 10034d20 f i libucrtd:output.obj
 0001:00033d40       ?type_case_x@?$output_processor@_WV?$string_output_adapter@_W@__crt_stdio_output@@V?$standard_base@_WV?$string_output_adapter@_W@__crt_stdio_output@@@2@@__crt_stdio_output@@AAE_NXZ 10034d40 f i libucrtd:output.obj
 0001:00033d60       ?unset_flag@?$output_processor@_WV?$string_output_adapter@_W@__crt_stdio_output@@V?$format_validation_base@_WV?$string_output_adapter@_W@__crt_stdio_output@@@2@@__crt_stdio_output@@AAEXI@Z 10034d60 f i libucrtd:output.obj
 0001:00033d60       ?unset_flag@?$output_processor@DV?$string_output_adapter@D@__crt_stdio_output@@V?$format_validation_base@DV?$string_output_adapter@D@__crt_stdio_output@@@2@@__crt_stdio_output@@AAEXI@Z 10034d60 f i libucrtd:output.obj
 0001:00033d60       ?unset_flag@?$output_processor@_WV?$string_output_adapter@_W@__crt_stdio_output@@V?$standard_base@_WV?$string_output_adapter@_W@__crt_stdio_output@@@2@@__crt_stdio_output@@AAEXI@Z 10034d60 f i libucrtd:output.obj
 0001:00033d60       ?unset_flag@?$output_processor@_WV?$stream_output_adapter@_W@__crt_stdio_output@@V?$standard_base@_WV?$stream_output_adapter@_W@__crt_stdio_output@@@2@@__crt_stdio_output@@AAEXI@Z 10034d60 f i libucrtd:output.obj
 0001:00033d80       ?update_field_width@?$standard_base@_WV?$stream_output_adapter@_W@__crt_stdio_output@@@__crt_stdio_output@@IAE_NXZ 10034d80 f i libucrtd:output.obj
 0001:00033d80       ?update_field_width@?$standard_base@_WV?$string_output_adapter@_W@__crt_stdio_output@@@__crt_stdio_output@@IAE_NXZ 10034d80 f i libucrtd:output.obj
 0001:00033d80       ?update_field_width@?$standard_base@DV?$string_output_adapter@D@__crt_stdio_output@@@__crt_stdio_output@@IAE_NXZ 10034d80 f i libucrtd:output.obj
 0001:00033db0       ?update_precision@?$standard_base@DV?$string_output_adapter@D@__crt_stdio_output@@@__crt_stdio_output@@IAE_NXZ 10034db0 f i libucrtd:output.obj
 0001:00033db0       ?update_precision@?$standard_base@_WV?$string_output_adapter@_W@__crt_stdio_output@@@__crt_stdio_output@@IAE_NXZ 10034db0 f i libucrtd:output.obj
 0001:00033db0       ?update_precision@?$standard_base@_WV?$stream_output_adapter@_W@__crt_stdio_output@@@__crt_stdio_output@@IAE_NXZ 10034db0 f i libucrtd:output.obj
 0001:00033de0       ?validate@?$stream_output_adapter@_W@__crt_stdio_output@@QBE_NXZ 10034de0 f i libucrtd:output.obj
 0001:00033e80       ?validate@?$string_output_adapter@D@__crt_stdio_output@@QBE_NXZ 10034e80 f i libucrtd:output.obj
 0001:00033f10       ?validate@?$string_output_adapter@_W@__crt_stdio_output@@QBE_NXZ 10034f10 f i libucrtd:output.obj
 0001:00033fa0       ?validate_and_update_state_at_beginning_of_format_character@?$standard_base@DV?$string_output_adapter@D@__crt_stdio_output@@@__crt_stdio_output@@IAE_NXZ 10034fa0 f i libucrtd:output.obj
 0001:00033fa0       ?should_format@?$standard_base@_WV?$string_output_adapter@_W@__crt_stdio_output@@@__crt_stdio_output@@IAE_NXZ 10034fa0 f i libucrtd:output.obj
 0001:00033fa0       ?should_format@?$standard_base@_WV?$stream_output_adapter@_W@__crt_stdio_output@@@__crt_stdio_output@@IAE_NXZ 10034fa0 f i libucrtd:output.obj
 0001:00033fa0       ?validate_state_for_type_case_a@?$standard_base@_WV?$string_output_adapter@_W@__crt_stdio_output@@@__crt_stdio_output@@IBE_NXZ 10034fa0 f i libucrtd:output.obj
 0001:00033fa0       ?validate_and_update_state_at_end_of_format_string@?$standard_base@_WV?$stream_output_adapter@_W@__crt_stdio_output@@@__crt_stdio_output@@IBE_NXZ 10034fa0 f i libucrtd:output.obj
 0001:00033fa0       ?validate_and_update_state_at_beginning_of_format_character@?$standard_base@_WV?$string_output_adapter@_W@__crt_stdio_output@@@__crt_stdio_output@@IAE_NXZ 10034fa0 f i libucrtd:output.obj
 0001:00033fa0       ?validate_and_update_state_at_beginning_of_format_character@?$standard_base@_WV?$stream_output_adapter@_W@__crt_stdio_output@@@__crt_stdio_output@@IAE_NXZ 10034fa0 f i libucrtd:output.obj
 0001:00033fa0       ?validate_and_update_state_at_end_of_format_string@?$standard_base@_WV?$string_output_adapter@_W@__crt_stdio_output@@@__crt_stdio_output@@IBE_NXZ 10034fa0 f i libucrtd:output.obj
 0001:00033fa0       ?should_format@?$standard_base@DV?$string_output_adapter@D@__crt_stdio_output@@@__crt_stdio_output@@IAE_NXZ 10034fa0 f i libucrtd:output.obj
 0001:00033fa0       ?validate_state_for_type_case_a@?$standard_base@_WV?$stream_output_adapter@_W@__crt_stdio_output@@@__crt_stdio_output@@IBE_NXZ 10034fa0 f i libucrtd:output.obj
 0001:00033fa0       ?validate_state_for_type_case_a@?$standard_base@DV?$string_output_adapter@D@__crt_stdio_output@@@__crt_stdio_output@@IBE_NXZ 10034fa0 f i libucrtd:output.obj
 0001:00033fb0       ?validate_and_update_state_at_end_of_format_string@?$format_validation_base@DV?$string_output_adapter@D@__crt_stdio_output@@@__crt_stdio_output@@IBE_NXZ 10034fb0 f i libucrtd:output.obj
 0001:00034050       ?validate_and_update_state_at_end_of_format_string@?$format_validation_base@_WV?$string_output_adapter@_W@__crt_stdio_output@@@__crt_stdio_output@@IBE_NXZ 10035050 f i libucrtd:output.obj
 0001:000340f0       ?wide_null_string@?$output_processor@DV?$string_output_adapter@D@__crt_stdio_output@@V?$format_validation_base@DV?$string_output_adapter@D@__crt_stdio_output@@@2@@__crt_stdio_output@@CAPA_WXZ 100350f0 f i libucrtd:output.obj
 0001:000340f0       ?wide_null_string@?$output_processor@_WV?$string_output_adapter@_W@__crt_stdio_output@@V?$standard_base@_WV?$string_output_adapter@_W@__crt_stdio_output@@@2@@__crt_stdio_output@@CAPA_WXZ 100350f0 f i libucrtd:output.obj
 0001:000340f0       ?wide_null_string@?$output_processor@_WV?$stream_output_adapter@_W@__crt_stdio_output@@V?$standard_base@_WV?$stream_output_adapter@_W@__crt_stdio_output@@@2@@__crt_stdio_output@@CAPA_WXZ 100350f0 f i libucrtd:output.obj
 0001:000340f0       ?wide_null_string@?$output_processor@_WV?$string_output_adapter@_W@__crt_stdio_output@@V?$format_validation_base@_WV?$string_output_adapter@_W@__crt_stdio_output@@@2@@__crt_stdio_output@@CAPA_WXZ 100350f0 f i libucrtd:output.obj
 0001:00034100       ?write_character@?$stream_output_adapter@_W@__crt_stdio_output@@QBEX_WQAH@Z 10035100 f i libucrtd:output.obj
 0001:00034180       ?write_character@?$string_output_adapter@D@__crt_stdio_output@@QBE_NDQAH@Z 10035180 f i libucrtd:output.obj
 0001:00034210       ?write_character@?$string_output_adapter@_W@__crt_stdio_output@@QBE_N_WQAH@Z 10035210 f i libucrtd:output.obj
 0001:000342b0       ?write_stored_string_tchar@?$output_processor@DV?$string_output_adapter@D@__crt_stdio_output@@V?$format_validation_base@DV?$string_output_adapter@D@__crt_stdio_output@@@2@@__crt_stdio_output@@AAE_ND@Z 100352b0 f i libucrtd:output.obj
 0001:000343c0       ?write_stored_string_tchar@?$output_processor@_WV?$stream_output_adapter@_W@__crt_stdio_output@@V?$standard_base@_WV?$stream_output_adapter@_W@__crt_stdio_output@@@2@@__crt_stdio_output@@AAE_N_W@Z 100353c0 f i libucrtd:output.obj
 0001:000344b0       ?write_stored_string_tchar@?$output_processor@_WV?$string_output_adapter@_W@__crt_stdio_output@@V?$standard_base@_WV?$string_output_adapter@_W@__crt_stdio_output@@@2@@__crt_stdio_output@@AAE_N_W@Z 100354b0 f i libucrtd:output.obj
 0001:000344b0       ?write_stored_string_tchar@?$output_processor@_WV?$string_output_adapter@_W@__crt_stdio_output@@V?$format_validation_base@_WV?$string_output_adapter@_W@__crt_stdio_output@@@2@@__crt_stdio_output@@AAE_N_W@Z 100354b0 f i libucrtd:output.obj
 0001:000345a0       ?write_string@?$stream_output_adapter@_W@__crt_stdio_output@@QBEXQB_WHQAH1@Z 100355a0 f i libucrtd:output.obj
 0001:00034660       ?write_string@?$string_output_adapter@D@__crt_stdio_output@@QBEXQBDHQAH1@Z 10035660 f i libucrtd:output.obj
 0001:00034770       ?write_string@?$string_output_adapter@_W@__crt_stdio_output@@QBEXQB_WHQAH1@Z 10035770 f i libucrtd:output.obj
 0001:00034890       ___acrt_isleadbyte_l_noupdate 10035890 f i libucrtd:output.obj
 0001:000348b0       ___stdio_common_vfwprintf  100358b0 f   libucrtd:output.obj
 0001:000348e0       ___stdio_common_vsnprintf_s 100358e0 f   libucrtd:output.obj
 0001:00034910       ___stdio_common_vsnwprintf_s 10035910 f   libucrtd:output.obj
 0001:00034940       ___stdio_common_vsprintf_s 10035940 f   libucrtd:output.obj
 0001:00034970       ___stdio_common_vswprintf  10035970 f   libucrtd:output.obj
 0001:000349a0       ??$is_overflow_condition@K@__crt_strtox@@YA_NIK@Z 100359a0 f i libucrtd:atox.obj
 0001:00034a00       ??$parse_integer@KV?$c_string_character_source@D@__crt_strtox@@@__crt_strtox@@YAKQAU__crt_locale_pointers@@V?$c_string_character_source@D@0@H_N@Z 10035a00 f i libucrtd:atox.obj
 0001:00034d70       ??$parse_integer@KV?$c_string_character_source@_W@__crt_strtox@@@__crt_strtox@@YAKQAU__crt_locale_pointers@@V?$c_string_character_source@_W@0@H_N@Z 10035d70 f i libucrtd:atox.obj
 0001:000350e0       ??0?$c_string_character_source@D@__crt_strtox@@QAE@QBDQAPBD@Z 100360e0 f i libucrtd:atox.obj
 0001:000350e0       ??0?$c_string_character_source@_W@__crt_strtox@@QAE@QB_WQAPB_W@Z 100360e0 f i libucrtd:atox.obj
 0001:00035120       ??1?$c_string_character_source@_W@__crt_strtox@@QAE@XZ 10036120 f i libucrtd:atox.obj
 0001:00035120       ??1?$c_string_character_source@D@__crt_strtox@@QAE@XZ 10036120 f i libucrtd:atox.obj
 0001:00035150       ?get@?$c_string_character_source@D@__crt_strtox@@QAEDXZ 10036150 f i libucrtd:atox.obj
 0001:00035180       ?get@?$c_string_character_source@_W@__crt_strtox@@QAE_WXZ 10036180 f i libucrtd:atox.obj
 0001:000351b0       ?is_space@__crt_strtox@@YA_NDQAU__crt_locale_pointers@@@Z 100361b0 f i libucrtd:atox.obj
 0001:000351f0       ?is_space@__crt_strtox@@YA_N_WPAU__crt_locale_pointers@@@Z 100361f0 f i libucrtd:atox.obj
 0001:00035220       ?maximum_signed_value@__crt_strtox@@YAJK@Z 10036220 f i libucrtd:atox.obj
 0001:00035230       ?minimum_signed_value@__crt_strtox@@YAJK@Z 10036230 f i libucrtd:atox.obj
 0001:00035240       ?parse_digit@__crt_strtox@@YAID@Z 10036240 f i libucrtd:atox.obj
 0001:000352a0       ?parse_digit@__crt_strtox@@YAI_W@Z 100362a0 f i libucrtd:atox.obj
 0001:00035320       ?restore_state@?$c_string_character_source@D@__crt_strtox@@QAE_NQBD@Z 10036320 f i libucrtd:atox.obj
 0001:00035320       ?restore_state@?$c_string_character_source@_W@__crt_strtox@@QAE_NQB_W@Z 10036320 f i libucrtd:atox.obj
 0001:00035340       ?unget@?$c_string_character_source@D@__crt_strtox@@QAEXD@Z 10036340 f i libucrtd:atox.obj
 0001:000353f0       ?unget@?$c_string_character_source@_W@__crt_strtox@@QAEX_W@Z 100363f0 f i libucrtd:atox.obj
 0001:000354a0       ?validate@?$c_string_character_source@D@__crt_strtox@@QBE_NXZ 100364a0 f i libucrtd:atox.obj
 0001:00035530       ?validate@?$c_string_character_source@_W@__crt_strtox@@QBE_NXZ 10036530 f i libucrtd:atox.obj
 0001:000355c0       ?wide_character_to_digit@__crt_strtox@@YAH_W@Z 100365c0 f i libucrtd:atox.obj
 0001:000358f0       __fd_int                   100368f0 f   libucrtd:_test.obj
 0001:00035ad0       ___acrt_call_reportfault   10036ad0 f   libucrtd:invalid_parameter.obj
 0001:00035c30       ___acrt_initialize_invalid_parameter_handler 10036c30 f   libucrtd:invalid_parameter.obj
 0001:00035c50       __invalid_parameter        10036c50 f   libucrtd:invalid_parameter.obj
 0001:00035d20       __invalid_parameter_noinfo 10036d20 f   libucrtd:invalid_parameter.obj
 0001:00035d40       __invoke_watson            10036d40 f   libucrtd:invalid_parameter.obj
 0001:00035f50       ___acrt_report_runtime_error 10036f50 f   libucrtd:report_runtime_error.obj
 0001:00036140       __query_app_type           10037140 f   libucrtd:report_runtime_error.obj
 0001:00036150       ___acrt_errno_from_os_error 10037150 f   libucrtd:errno.obj
 0001:000361d0       ___acrt_errno_map_os_error 100371d0 f   libucrtd:errno.obj
 0001:00036200       ___doserrno                10037200 f   libucrtd:errno.obj
 0001:00036230       __errno                    10037230 f   libucrtd:errno.obj
 0001:00036ab0       __itoa_s                   10037ab0 f   libucrtd:xtoa.obj
 0001:00036b00       __itow_s                   10037b00 f   libucrtd:xtoa.obj
 0001:00036b50       __set_error_mode           10037b50 f   libucrtd:set_error_mode.obj
 0001:00037030       _wcscat_s                  10038030 f   libucrtd:wcscat_s.obj
 0001:00037370       _wcscpy_s                  10038370 f   libucrtd:wcscpy_s.obj
 0001:00037860       _wcsncat_s                 10038860 f   libucrtd:wcsncat_s.obj
 0001:00037c90       _strcat_s                  10038c90 f   libucrtd:strcat_s.obj
 0001:00037e30       ??$message_box@PAUHWND__@@ABQB_WABQB_WABI@?$__crt_char_traits@_W@@SAH$$QAPAUHWND__@@ABQB_W1ABI@Z 10038e30 f i libucrtd:crtmbox.obj
 0001:00037e30       ??$message_box@$$TAAPB_WAAPB_WAAI@?$__crt_char_traits@_W@@SAH$$QA$$TAAPB_W1AAI@Z 10038e30 f i libucrtd:crtmbox.obj
 0001:00037e30       ??$message_box@$$TABQB_WABQB_WK@?$__crt_char_traits@_W@@SAH$$QA$$TABQB_W1$$QAK@Z 10038e30 f i libucrtd:crtmbox.obj
 0001:00037eb0       ??$output_debug_string@ABQB_W@?$__crt_char_traits@_W@@SAXABQB_W@Z 10038eb0 f i libucrtd:crtmbox.obj
 0001:00037ed0       ??1?$__crt_unique_handle_t@U__crt_handle_traits@@@@QAE@XZ 10038ed0 f i libucrtd:crtmbox.obj
 0001:00037ef0       ??B?$__crt_unique_handle_t@U__crt_handle_traits@@@@QBE_NXZ 10038ef0 f i libucrtd:crtmbox.obj
 0001:00037f10       ?close@?$__crt_unique_handle_t@U__crt_handle_traits@@@@QAEXXZ 10038f10 f i libucrtd:crtmbox.obj
 0001:00037f50       ?close@__crt_handle_traits@@SA_NPAX@Z 10038f50 f i libucrtd:crtmbox.obj
 0001:00037f80       ?is_valid@?$__crt_unique_handle_t@U__crt_handle_traits@@@@QBE_NXZ 10038f80 f i libucrtd:crtmbox.obj
 0001:00037fb0       ___acrt_show_wide_message_box 10038fb0 f   libucrtd:crtmbox.obj
 0001:00037fd0       ___acrt_initialize_stdio   10038fd0 f   libucrtd:_file.obj
 0001:00038140       ___acrt_iob_func           10039140 f   libucrtd:_file.obj
 0001:00038150       ___acrt_uninitialize_stdio 10039150 f   libucrtd:_file.obj
 0001:000381d0       __lock_file                100391d0 f   libucrtd:_file.obj
 0001:00038200       __unlock_file              10039200 f   libucrtd:_file.obj
 0001:00038230       ?__acrt_stdio_reset_buffer@@YAXV__crt_stdio_stream@@@Z 10039230 f i libucrtd:fflush.obj
 0001:00038260       ?has_all_of@__crt_stdio_stream@@QBE_NJ@Z 10039260 f i libucrtd:fflush.obj
 0001:000382a0       ?has_big_buffer@__crt_stdio_stream@@QBE_NXZ 100392a0 f i libucrtd:fflush.obj
 0001:000382c0       ?is_in_use@__crt_stdio_stream@@QBE_NXZ 100392c0 f i libucrtd:fflush.obj
 0001:00038300       ?set_flags@__crt_stdio_stream@@QBE_NJ@Z 10039300 f i libucrtd:fflush.obj
 0001:00038350       ?unset_flags@__crt_stdio_stream@@QBE_NJ@Z 10039350 f i libucrtd:fflush.obj
 0001:000383a0       ___acrt_stdio_flush_nolock 100393a0 f   libucrtd:fflush.obj
 0001:00038480       __fflush_nolock            10039480 f   libucrtd:fflush.obj
 0001:00038500       __flushall                 10039500 f   libucrtd:fflush.obj
 0001:000386b0       _fflush                    100396b0 f   libucrtd:fflush.obj
 0001:00038750       ??$?RV<lambda_c58464cc0393550ab06f01720b646001>@@AAV<lambda_108d78a972a15edee025c8b3efe121dc>@@V<lambda_1a39be00af773e7199199dafcba04cc5>@@@?$__crt_seh_guarded_call@H@@QAEH$$QAV<lambda_c58464cc0393550ab06f01720b646001>@@AAV<lambda_108d78a972a15edee025c8b3efe121dc>@@$$QAV<lambda_1a39be00af773e7199199dafcba04cc5>@@@Z 10039750 f i libucrtd:setvbuf.obj
 0001:000387e0       ??$__acrt_lock_stream_and_call@V<lambda_108d78a972a15edee025c8b3efe121dc>@@@@YAHQAU_iobuf@@$$QAV<lambda_108d78a972a15edee025c8b3efe121dc>@@@Z 100397e0 f i libucrtd:setvbuf.obj
 0001:00038a00       _setvbuf                   10039a00 f   libucrtd:setvbuf.obj
 0001:00038be0       ??$?B$$A6AXH@Z@__crt_fast_encoded_nullptr_t@@QBEP6AXH@ZXZ 10039be0 f i libucrtd:signal.obj
 0001:00038be0       ??$?B$$A6GXPAXK0@Z@__crt_fast_encoded_nullptr_t@@QBEP6GXPAXK0@ZXZ 10039be0 f i libucrtd:exit.obj
 0001:00038c00       ??$?RV<lambda_a048d3beccc847880fc8490e18b82769>@@AAV<lambda_ec61778202f4f5fc7e7711acc23c3bca>@@V<lambda_f7496a158712204296dd6628a163878e>@@@?$__crt_seh_guarded_call@P6AXH@Z@@QAEP6AXH@Z$$QAV<lambda_a048d3beccc847880fc8490e18b82769>@@AAV<lambda_ec61778202f4f5fc7e7711acc23c3bca>@@$$QAV<lambda_f7496a158712204296dd6628a163878e>@@@Z 10039c00 f i libucrtd:signal.obj
 0001:00038c90       ??$__acrt_lock_and_call@V<lambda_ec61778202f4f5fc7e7711acc23c3bca>@@@@YAP6AXH@ZW4__acrt_lock_id@@$$QAV<lambda_ec61778202f4f5fc7e7711acc23c3bca>@@@Z 10039c90 f i libucrtd:signal.obj
 0001:00038e00       ___acrt_get_sigabrt_handler 10039e00 f   libucrtd:signal.obj
 0001:00038e20       ___acrt_initialize_signal_handlers 10039e20 f   libucrtd:signal.obj
 0001:00038e60       ___fpecode                 10039e60 f   libucrtd:signal.obj
 0001:00038e70       _raise                     10039e70 f   libucrtd:signal.obj
 0001:00039250       __cintrindisp2             1003a250 f   libucrtd:87cdisp.obj
 0001:00039294       __cintrindisp1             1003a294 f   libucrtd:87cdisp.obj
 0001:000392d7       __ctrandisp2               1003a2d7 f   libucrtd:87cdisp.obj
 0001:00039466       __ctrandisp1               1003a466 f   libucrtd:87cdisp.obj
 0001:00039499       __fload                    1003a499 f   libucrtd:87cdisp.obj
 0001:000394e0       __trandisp1                1003a4e0 f   libucrtd:87disp.obj
 0001:00039547       __trandisp2                1003a547 f   libucrtd:87disp.obj
 0001:000395d3       __rttospopde               1003a5d3     libucrtd:87disp.obj
 0001:000395d8       __rttospop                 1003a5d8     libucrtd:87disp.obj
 0001:000395da       __rtnospop                 1003a5da     libucrtd:87disp.obj
 0001:000395dc       __rttosnpop                1003a5dc     libucrtd:87disp.obj
 0001:000395dd       __rtnospopde               1003a5dd     libucrtd:87disp.obj
 0001:000395e4       __rtzeropop                1003a5e4     libucrtd:87disp.obj
 0001:000395e6       __rtzeronpop               1003a5e6     libucrtd:87disp.obj
 0001:000395eb       __rtzerospop               1003a5eb     libucrtd:87disp.obj
 0001:000395f8       __rtonepop                 1003a5f8     libucrtd:87disp.obj
 0001:000395fa       __rtonenpop                1003a5fa     libucrtd:87disp.obj
 0001:000395ff       __tosnan1                  1003a5ff     libucrtd:87disp.obj
 0001:0003962a       __nosnan2                  1003a62a     libucrtd:87disp.obj
 0001:0003962c       __tosnan2                  1003a62c     libucrtd:87disp.obj
 0001:00039654       __nan2                     1003a654     libucrtd:87disp.obj
 0001:00039693       __rtindfpop                1003a693     libucrtd:87disp.obj
 0001:00039695       __rtindfnpop               1003a695     libucrtd:87disp.obj
 0001:000396a6       __rttosnpopde              1003a6a6     libucrtd:87disp.obj
 0001:000396b0       __rtatan2inf               1003a6b0     libucrtd:87disp.obj
 0001:000396cd       __rtchsifneg               1003a6cd     libucrtd:87disp.obj
 0001:000396e0       ___libm_error_support      1003a6e0 f   libucrtd:libm_error.obj
 0001:00039cb0       _acos                      1003acb0 f   libucrtd:acos.obj
 0001:00039cf0       __CIacos                   1003acf0 f   libucrtd:acos.obj
 0001:00039d2b       __CIacos_default           1003ad2b f   libucrtd:acos.obj
 0001:00039d3f       __acos_default             1003ad3f     libucrtd:acos.obj
 0001:00039e00       _cos                       1003ae00 f   libucrtd:cos.obj
 0001:00039e40       __CIcos                    1003ae40 f   libucrtd:cos.obj
 0001:00039e7b       __CIcos_default            1003ae7b f   libucrtd:cos.obj
 0001:00039e8f       __cos_default              1003ae8f     libucrtd:cos.obj
 0001:00039f30       _pow                       1003af30 f   libucrtd:pow.obj
 0001:00039f70       __CIpow                    1003af70 f   libucrtd:pow.obj
 0001:00039fab       __CIpow_default            1003afab f   libucrtd:pow.obj
 0001:00039fc4       __pow_default              1003afc4     libucrtd:pow.obj
 0001:0003a1c0       _sin                       1003b1c0 f   libucrtd:sin.obj
 0001:0003a200       __CIsin                    1003b200 f   libucrtd:sin.obj
 0001:0003a23b       __CIsin_default            1003b23b f   libucrtd:sin.obj
 0001:0003a24f       __sin_default              1003b24f     libucrtd:sin.obj
 0001:0003a2f0       __CIsqrt                   1003b2f0 f   libucrtd:sqrt.obj
 0001:0003a304       _sqrt                      1003b304     libucrtd:sqrt.obj
 0001:0003a3b0       ___acrt_initialize_sse2    1003b3b0 f   libucrtd:mathfcns.obj
 0001:0003a3d0       __ceil_default             1003b3d0 f   libucrtd:ceil.obj
 0001:0003a4f0       __floor_default            1003b4f0 f   libucrtd:floor.obj
 0001:0003a610       ?value@?$dual_state_global@PAU__crt_multibyte_data@@@__crt_state_management@@QAEAAPAU__crt_multibyte_data@@XZ 1003b610 f i libucrtd:mbctype.obj
 0001:0003a610       ?value@?$dual_state_global@P6AXH@Z@__crt_state_management@@QAEAAP6AXH@ZXZ 1003b610 f i libucrtd:signal.obj
 0001:0003a610       ?value@?$dual_state_global@P6AHPAU_exception@@@Z@__crt_state_management@@QAEAAP6AHPAU_exception@@@ZXZ 1003b610 f i libucrtd:matherr.obj
 0001:0003a610       ?value@?$dual_state_global@J@__crt_state_management@@QAEAAJXZ 1003b610 f i libucrtd:new_mode.obj
 0001:0003a610       ?value@?$dual_state_global@P6AXPB_W00II@Z@__crt_state_management@@QAEAAP6AXPB_W00II@ZXZ 1003b610 f i libucrtd:invalid_parameter.obj
 0001:0003a610       ?value@?$dual_state_global@P6AHI@Z@__crt_state_management@@QAEAAP6AHI@ZXZ 1003b610 f i libucrtd:new_handler.obj
 0001:0003a610       ?value@?$dual_state_global@PAU__crt_locale_data@@@__crt_state_management@@QAEAAPAU__crt_locale_data@@XZ 1003b610 f i libucrtd:per_thread_data.obj
 0001:0003a610       ?value@?$dual_state_global@PAE@__crt_state_management@@QAEAAPAEXZ 1003b610 f i libucrtd:mbctype.obj
 0001:0003a630       ___acrt_has_user_matherr   1003b630 f   libucrtd:matherr.obj
 0001:0003a670       ___acrt_initialize_user_matherr 1003b670 f   libucrtd:matherr.obj
 0001:0003a690       ___acrt_invoke_user_matherr 1003b690 f   libucrtd:matherr.obj
 0001:0003a6f0       __decomp                   1003b6f0 f   libucrtd:util.obj
 0001:0003a820       __set_exp                  1003b820 f   libucrtd:util.obj
 0001:0003a860       __sptype                   1003b860 f   libucrtd:util.obj
 0001:0003a8e0       __clrfp                    1003b8e0 f   libucrtd:fpctrl.obj
 0001:0003a900       __ctrlfp                   1003b900 f   libucrtd:fpctrl.obj
 0001:0003a930       __set_statfp               1003b930 f   libucrtd:fpctrl.obj
 0001:0003a9a0       __statfp                   1003b9a0 f   libucrtd:fpctrl.obj
 0001:0003a9c0       ??$?RV<lambda_3518db117f0e7cdb002338c5d3c47b6c>@@AAV<lambda_b2ea41f6bbb362cd97d94c6828d90b61>@@V<lambda_abdedf541bb04549bc734292b4a045d4>@@@?$__crt_seh_guarded_call@X@@QAEX$$QAV<lambda_3518db117f0e7cdb002338c5d3c47b6c>@@AAV<lambda_b2ea41f6bbb362cd97d94c6828d90b61>@@$$QAV<lambda_abdedf541bb04549bc734292b4a045d4>@@@Z 1003b9c0 f i libucrtd:per_thread_data.obj
 0001:0003aa40       ??$?RV<lambda_5b71d36f03204c0beab531769a5b5694>@@AAV<lambda_be2b3da3f62db62e9dad5dc70221a656>@@V<lambda_8f9ce462984622f9bf76b59e2aaaf805>@@@?$__crt_seh_guarded_call@X@@QAEX$$QAV<lambda_5b71d36f03204c0beab531769a5b5694>@@AAV<lambda_be2b3da3f62db62e9dad5dc70221a656>@@$$QAV<lambda_8f9ce462984622f9bf76b59e2aaaf805>@@@Z 1003ba40 f i libucrtd:per_thread_data.obj
 0001:0003aac0       ??$?RV<lambda_952b238c83a62ef8e81c72265e1e9aa0>@@AAV<lambda_801f60a70ab65355beb13c41cbe335bb>@@V<lambda_84d84f98815add542a0d6e6ca338feb2>@@@?$__crt_seh_guarded_call@X@@QAEX$$QAV<lambda_952b238c83a62ef8e81c72265e1e9aa0>@@AAV<lambda_801f60a70ab65355beb13c41cbe335bb>@@$$QAV<lambda_84d84f98815add542a0d6e6ca338feb2>@@@Z 1003bac0 f i libucrtd:per_thread_data.obj
 0001:0003ab40       ??$?RV<lambda_9df27f884b057bc3edfc946cb5b7cf47>@@AAV<lambda_e69574bed617af4e071282c136b37893>@@V<lambda_cc0d902bcbbeb830f749456577db4721>@@@?$__crt_seh_guarded_call@X@@QAEX$$QAV<lambda_9df27f884b057bc3edfc946cb5b7cf47>@@AAV<lambda_e69574bed617af4e071282c136b37893>@@$$QAV<lambda_cc0d902bcbbeb830f749456577db4721>@@@Z 1003bb40 f i libucrtd:per_thread_data.obj
 0001:0003abc0       ??$__acrt_lock_and_call@V<lambda_801f60a70ab65355beb13c41cbe335bb>@@@@YAXW4__acrt_lock_id@@$$QAV<lambda_801f60a70ab65355beb13c41cbe335bb>@@@Z 1003bbc0 f i libucrtd:per_thread_data.obj
 0001:0003ac00       ??$__acrt_lock_and_call@V<lambda_b2ea41f6bbb362cd97d94c6828d90b61>@@@@YAXW4__acrt_lock_id@@$$QAV<lambda_b2ea41f6bbb362cd97d94c6828d90b61>@@@Z 1003bc00 f i libucrtd:per_thread_data.obj
 0001:0003ac40       ??$__acrt_lock_and_call@V<lambda_be2b3da3f62db62e9dad5dc70221a656>@@@@YAXW4__acrt_lock_id@@$$QAV<lambda_be2b3da3f62db62e9dad5dc70221a656>@@@Z 1003bc40 f i libucrtd:per_thread_data.obj
 0001:0003ac80       ??$__acrt_lock_and_call@V<lambda_e69574bed617af4e071282c136b37893>@@@@YAXW4__acrt_lock_id@@$$QAV<lambda_e69574bed617af4e071282c136b37893>@@@Z 1003bc80 f i libucrtd:per_thread_data.obj
 0001:0003acc0       ??0__crt_scoped_get_last_error_reset@@QAE@XZ 1003bcc0 f i libucrtd:per_thread_data.obj
 0001:0003ace0       ??1__crt_scoped_get_last_error_reset@@QAE@XZ 1003bce0 f i libucrtd:per_thread_data.obj
 0001:0003b050       ?detach@?$__crt_unique_heap_ptr@U__crt_multibyte_data@@U__crt_internal_free_policy@@@@QAEPAU__crt_multibyte_data@@XZ 1003c050 f i libucrtd:mbctype.obj
 0001:0003b050       ?detach@?$__crt_unique_heap_ptr@P6AXXZU__crt_internal_free_policy@@@@QAEPAP6AXXZXZ 1003c050 f i libucrtd:onexit.obj
 0001:0003b050       ?detach@?$__crt_unique_heap_ptr@U__crt_lowio_handle_data@@U__crt_internal_free_policy@@@@QAEPAU__crt_lowio_handle_data@@XZ 1003c050 f i libucrtd:osfinfo.obj
 0001:0003b050       ?detach@?$__crt_unique_heap_ptr@U__acrt_ptd@@U__crt_internal_free_policy@@@@QAEPAU__acrt_ptd@@XZ 1003c050 f i libucrtd:per_thread_data.obj
 0001:0003b050       ?detach@?$__crt_unique_heap_ptr@PAU__crt_stdio_stream_data@@U__crt_internal_free_policy@@@@QAEPAPAU__crt_stdio_stream_data@@XZ 1003c050 f i libucrtd:_file.obj
 0001:0003b1a0       ?is_valid@?$__crt_unique_heap_ptr@U__crt_lowio_handle_data@@U__crt_internal_free_policy@@@@QBE_NXZ 1003c1a0 f i libucrtd:osfinfo.obj
 0001:0003b1a0       ?is_valid@?$__crt_unique_heap_ptr@U__acrt_ptd@@U__crt_internal_free_policy@@@@QBE_NXZ 1003c1a0 f i libucrtd:per_thread_data.obj
 0001:0003b1a0       ?is_valid@?$__crt_unique_heap_ptr@U__crt_multibyte_data@@U__crt_internal_free_policy@@@@QBE_NXZ 1003c1a0 f i libucrtd:mbctype.obj
 0001:0003b1a0       ??B?$__crt_scoped_stack_ptr@_W@@QBE_NXZ 1003c1a0 f i libucrtd:lcmapstringa.obj
 0001:0003b1a0       ?valid@__crt_stdio_stream@@QBE_NXZ 1003c1a0 f i libucrtd:output.obj
 0001:0003b290       ___acrt_freeptd            1003c290 f   libucrtd:per_thread_data.obj
 0001:0003b2c0       ___acrt_getptd             1003c2c0 f   libucrtd:per_thread_data.obj
 0001:0003b2e0       ___acrt_getptd_head        1003c2e0 f   libucrtd:per_thread_data.obj
 0001:0003b300       ___acrt_getptd_noexit      1003c300 f   libucrtd:per_thread_data.obj
 0001:0003b310       ___acrt_initialize_ptd     1003c310 f   libucrtd:per_thread_data.obj
 0001:0003b350       ___acrt_uninitialize_ptd   1003c350 f   libucrtd:per_thread_data.obj
 0001:0003b380       ___acrt_initialize_locks   1003c380 f   libucrtd:locks.obj
 0001:0003b3e0       ___acrt_lock               1003c3e0 f   libucrtd:locks.obj
 0001:0003b400       ___acrt_uninitialize_locks 1003c400 f   libucrtd:locks.obj
 0001:0003b450       ___acrt_unlock             1003c450 f   libucrtd:locks.obj
 0001:0003b470       ?get_invalid_value@__crt_handle_traits@@SAPAXXZ 1003c470 f   libucrtd:crtmbox.obj
 0001:0003b970       ___acrt_FlsAlloc@4         1003c970 f   libucrtd:winapi_thunks.obj
 0001:0003b9c0       ___acrt_FlsFree@4          1003c9c0 f   libucrtd:winapi_thunks.obj
 0001:0003ba20       ___acrt_FlsGetValue@4      1003ca20 f   libucrtd:winapi_thunks.obj
 0001:0003ba80       ___acrt_FlsSetValue@8      1003ca80 f   libucrtd:winapi_thunks.obj
 0001:0003bae0       ___acrt_InitializeCriticalSectionEx@12 1003cae0 f   libucrtd:winapi_thunks.obj
 0001:0003bb40       ___acrt_LCMapStringEx@36   1003cb40 f   libucrtd:winapi_thunks.obj
 0001:0003bbd0       ___acrt_LocaleNameToLCID@8 1003cbd0 f   libucrtd:winapi_thunks.obj
 0001:0003bc30       ___acrt_MessageBoxW@16     1003cc30 f   libucrtd:winapi_thunks.obj
 0001:0003bc90       ___acrt_can_show_message_box 1003cc90 f   libucrtd:winapi_thunks.obj
 0001:0003bcc0       ___acrt_get_parent_window  1003ccc0 f   libucrtd:winapi_thunks.obj
 0001:0003bd40       ___acrt_initialize_winapi_thunks 1003cd40 f   libucrtd:winapi_thunks.obj
 0001:0003bda0       ___acrt_is_interactive     1003cda0 f   libucrtd:winapi_thunks.obj
 0001:0003be50       ___acrt_is_packaged_app    1003ce50 f   libucrtd:winapi_thunks.obj
 0001:0003bf60       ___acrt_uninitialize_winapi_thunks 1003cf60 f   libucrtd:winapi_thunks.obj
 0001:0003bfd0       ??$?RV<lambda_d80abc18c428629cddc270f096dcc61b>@@AAV<lambda_3f8189bce64b4997e9cacee8178dce4a>@@V<lambda_fdb30781f88e85fcd814d1d789f55c14>@@@?$__crt_seh_guarded_call@X@@QAEX$$QAV<lambda_d80abc18c428629cddc270f096dcc61b>@@AAV<lambda_3f8189bce64b4997e9cacee8178dce4a>@@$$QAV<lambda_fdb30781f88e85fcd814d1d789f55c14>@@@Z 1003cfd0 f i libucrtd:mbctype.obj
 0001:0003c050       ??$__acrt_lock_and_call@V<lambda_3f8189bce64b4997e9cacee8178dce4a>@@@@YAXW4__acrt_lock_id@@$$QAV<lambda_3f8189bce64b4997e9cacee8178dce4a>@@@Z 1003d050 f i libucrtd:mbctype.obj
 0001:0003c090       ??$initialize_from_array@$$BY10BAA@E@?$dual_state_global@PAE@__crt_state_management@@QAAXAAY10BAA@E@Z 1003d090 f i libucrtd:mbctype.obj
 0001:0003c0e0       ??$initialize_from_array@$$BY10BAB@E@?$dual_state_global@PAE@__crt_state_management@@QAAXAAY10BAB@E@Z 1003d0e0 f i libucrtd:mbctype.obj
 0001:0003c160       ??B?$__crt_unique_heap_ptr@U__acrt_ptd@@U__crt_internal_free_policy@@@@QBE_NXZ 1003d160 f i libucrtd:per_thread_data.obj
 0001:0003c160       ??B?$__crt_unique_heap_ptr@U__crt_lowio_handle_data@@U__crt_internal_free_policy@@@@QBE_NXZ 1003d160 f i libucrtd:osfinfo.obj
 0001:0003c160       ??B?$__crt_unique_heap_ptr@U__crt_multibyte_data@@U__crt_internal_free_policy@@@@QBE_NXZ 1003d160 f i libucrtd:mbctype.obj
 0001:0003c2f0       ?dangerous_get_state_array@?$dual_state_global@PAU__crt_multibyte_data@@@__crt_state_management@@QAEPAPAU__crt_multibyte_data@@XZ 1003d2f0 f i libucrtd:mbctype.obj
 0001:0003c2f0       ?dangerous_get_state_array@?$dual_state_global@PAU__crt_locale_data@@@__crt_state_management@@QAEPAPAU__crt_locale_data@@XZ 1003d2f0 f i libucrtd:per_thread_data.obj
 0001:0003c2f0       ?get_address_of@?$__crt_unique_handle_t@U__crt_hmodule_traits@@@@QAEPAPAUHINSTANCE__@@XZ 1003d2f0 f i libucrtd:exit.obj
 0001:0003c2f0       ?dangerous_get_state_array@?$dual_state_global@PAE@__crt_state_management@@QAEPAPAEXZ 1003d2f0 f i libucrtd:mbctype.obj
 0001:0003c3c0       ?initialize@?$dual_state_global@P6AXPB_W00II@Z@__crt_state_management@@QAEXQ6AXPB_W00II@Z@Z 1003d3c0 f i libucrtd:invalid_parameter.obj
 0001:0003c3c0       ?initialize@?$dual_state_global@P6AHPAU_exception@@@Z@__crt_state_management@@QAEXQ6AHPAU_exception@@@Z@Z 1003d3c0 f i libucrtd:matherr.obj
 0001:0003c3c0       ?initialize@?$dual_state_global@PAU__crt_locale_data@@@__crt_state_management@@QAEXQAU__crt_locale_data@@@Z 1003d3c0 f i libucrtd:initialization.obj
 0001:0003c3c0       ?initialize@?$dual_state_global@P6AHI@Z@__crt_state_management@@QAEXQ6AHI@Z@Z 1003d3c0 f i libucrtd:new_handler.obj
 0001:0003c3c0       ?initialize@?$dual_state_global@P6AXH@Z@__crt_state_management@@QAEXQ6AXH@Z@Z 1003d3c0 f i libucrtd:signal.obj
 0001:0003c3c0       ?initialize@?$dual_state_global@PAU__crt_multibyte_data@@@__crt_state_management@@QAEXQAU__crt_multibyte_data@@@Z 1003d3c0 f i libucrtd:mbctype.obj
 0001:0003cb00       ___acrt_initialize_multibyte 1003db00 f   libucrtd:mbctype.obj
 0001:0003cbb0       ___acrt_update_thread_multibyte_data 1003dbb0 f   libucrtd:mbctype.obj
 0001:0003cbe0       __setmbcp_nolock           1003dbe0 f   libucrtd:mbctype.obj
 0001:0003d0a1       ___dcrt_get_narrow_environment_from_os 1003e0a1 f   libucrtd:get_environment_from_os.obj
 0001:0003d140       ___acrt_initialize_heap    1003e140 f   libucrtd:heap_handle.obj
 0001:0003d170       ___acrt_uninitialize_heap  1003e170 f   libucrtd:heap_handle.obj
 0001:0003d450       ___acrt_initialize_lowio   1003e450 f   libucrtd:ioinit.obj
 0001:0003d4f0       ___acrt_uninitialize_lowio 1003e4f0 f   libucrtd:ioinit.obj
 0001:0003d550       ___acrt_initialize_command_line 1003e550 f   libucrtd:argv_data.obj
 0001:0003d570       ___acrt_execute_initializers 1003e570 f   libucrtd:shared_initialization.obj
 0001:0003d640       ___acrt_execute_uninitializers 1003e640 f   libucrtd:shared_initialization.obj
 0001:0003d6b0       ??$__crt_fast_decode_pointer@P6AHPAU_exception@@@Z@@YAP6AHPAU_exception@@@ZQ6AH0@Z@Z 1003e6b0 f i libucrtd:matherr.obj
 0001:0003d6b0       ??$__crt_fast_decode_pointer@P6AXH@Z@@YAP6AXH@ZQ6AXH@Z@Z 1003e6b0 f i libucrtd:signal.obj
 0001:0003d6b0       ??$__crt_fast_decode_pointer@P6AHI@Z@@YAP6AHI@ZQ6AHI@Z@Z 1003e6b0 f i libucrtd:new_handler.obj
 0001:0003d6b0       ??$__crt_fast_decode_pointer@P6GXPAXK0@Z@@YAP6GXPAXK0@ZQ6GX0K0@Z@Z 1003e6b0 f i libucrtd:exit.obj
 0001:0003d6b0       ??$__crt_fast_decode_pointer@P6AXPB_W00II@Z@@YAP6AXPB_W00II@ZQ6AX000II@Z@Z 1003e6b0 f i libucrtd:invalid_parameter.obj
 0001:0003d6e0       ___acrt_initialize_new_handler 1003e6e0 f   libucrtd:new_handler.obj
 0001:0003d700       __callnewh                 1003e700 f   libucrtd:new_handler.obj
 0001:0003d760       __query_new_handler        1003e760 f   libucrtd:new_handler.obj
 0001:0003d7f0       ?has_temporary_buffer@__crt_stdio_stream@@QBE_NXZ 1003e7f0 f i libucrtd:_sftbuf.obj
 0001:0003d810       ___acrt_stdio_begin_temporary_buffering_nolock 1003e810 f   libucrtd:_sftbuf.obj
 0001:0003d9d0       ___acrt_stdio_end_temporary_buffering_nolock 1003e9d0 f   libucrtd:_sftbuf.obj
 0001:0003da60       __free_base                1003ea60 f   libucrtd:free_base.obj
 0001:0003dab0       __msize                    1003eab0 f   libucrtd:msize.obj
 0001:0003dad0       __realloc_base             1003ead0 f   libucrtd:realloc_base.obj
 0001:0003db70       __chvalidator              1003eb70 f   libucrtd:isctype.obj
 0001:0003dbc0       __chvalidator_l            1003ebc0 f   libucrtd:isctype.obj
 0001:0003dc60       __isctype_l                1003ec60 f   libucrtd:isctype.obj
 0001:0003de30       __expand_base              1003ee30 f   libucrtd:expand.obj
 0001:0003df60       ___acrt_update_locale_info 1003ef60 f   libucrtd:locale_update.obj
 0001:0003dfa0       ___acrt_update_multibyte_info 1003efa0 f   libucrtd:locale_update.obj
 0001:0003dfe0       __query_new_mode           1003efe0 f   libucrtd:new_mode.obj
 0001:0003e000       __CrtDefaultAllocHook      1003f000 f   libucrtd:debug_heap_hook.obj
 0001:0003e010       ??$?RV<lambda_4393c4b5ef78814305fd0c1b31d2e9a8>@@AAV<lambda_85fa512c59a4d94d4a89f575eefd92a6>@@V<lambda_8f70eeb8060c49130c088d3137313000>@@@?$__crt_seh_guarded_call@X@@QAEX$$QAV<lambda_4393c4b5ef78814305fd0c1b31d2e9a8>@@AAV<lambda_85fa512c59a4d94d4a89f575eefd92a6>@@$$QAV<lambda_8f70eeb8060c49130c088d3137313000>@@@Z 1003f010 f i libucrtd:wsetlocale.obj
 0001:0003e090       ??$__acrt_lock_and_call@V<lambda_85fa512c59a4d94d4a89f575eefd92a6>@@@@YAXW4__acrt_lock_id@@$$QAV<lambda_85fa512c59a4d94d4a89f575eefd92a6>@@@Z 1003f090 f i libucrtd:wsetlocale.obj
 0001:0003e0d0       ??$uninitialize@V<lambda_6b129e2e150a224552ea232eca9364df>@@@?$dual_state_global@PAU__crt_locale_data@@@__crt_state_management@@QAEX$$QAV<lambda_6b129e2e150a224552ea232eca9364df>@@@Z 1003f0d0 f i libucrtd:wsetlocale.obj
 0001:0003e190       ___acrt_set_locale_changed 1003f190 f   libucrtd:wsetlocale.obj
 0001:0003e1b0       ___acrt_uninitialize_locale 1003f1b0 f   libucrtd:wsetlocale.obj
 0001:0003e1d0       __CrtGetDebugFillThreshold 1003f1d0 f   libucrtd:debug_fill_threshold.obj
 0001:0003e1e0       __VCrtDbgReportA           1003f1e0 f   libucrtd:dbgrptt.obj
 0001:0003ea80       __VCrtDbgReportW           1003fa80 f   libucrtd:dbgrptt.obj
 0001:0003f440       __snprintf_s               10040440 f i libucrtd:dbgrptt.obj
 0001:0003f490       __vsnprintf_s              10040490 f i libucrtd:dbgrptt.obj
 0001:0003f4c0       __vsnprintf_s_l            100404c0 f i libucrtd:dbgrptt.obj
 0001:0003f520       __vsnwprintf_s             10040520 f i libucrtd:dbgrptt.obj
 0001:0003f570       __isdigit_l                10040570 f i libucrtd:_ctype.obj
 0001:0003f5b0       _isdigit                   100405b0 f i libucrtd:_ctype.obj
 0001:0003f860       __tolower_l                10040860 f   libucrtd:tolower_toupper.obj
 0001:0003f880       _tolower                   10040880 f   libucrtd:tolower_toupper.obj
 0001:0003f8e0       ??$make_c_string_character_source@_WPAPA_W@__crt_strtox@@YA?AV?$c_string_character_source@_W@0@QB_WQAPA_W@Z 100408e0 f i libucrtd:strtox.obj
 0001:0003f8e0       ??$make_c_string_character_source@DPAPAD@__crt_strtox@@YA?AV?$c_string_character_source@D@0@QBDQAPAD@Z 100408e0 f i libucrtd:strtox.obj
 0001:0003f900       ??$parse_integer_from_string@JDPAPAD@__crt_strtox@@YAJQBDQAPADHQAU__crt_locale_pointers@@@Z 10040900 f i libucrtd:strtox.obj
 0001:0003f940       ??$parse_integer_from_string@J_WPAPA_W@__crt_strtox@@YAJQB_WQAPA_WHQAU__crt_locale_pointers@@@Z 10040940 f i libucrtd:strtox.obj
 0001:0003f980       _strtol                    10040980 f   libucrtd:strtox.obj
 0001:0003f9a0       _wcstol                    100409a0 f   libucrtd:strtox.obj
 0001:0003f9c0       __mbtowc_l                 100409c0 f   libucrtd:mbtowc.obj
 0001:0003fc00       _mbtowc                    10040c00 f   libucrtd:mbtowc.obj
 0001:0003fc20       __wctomb_s_l               10040c20 f   libucrtd:wctomb.obj
 0001:0003ff60       _wctomb_s                  10040f60 f   libucrtd:wctomb.obj
 0001:00040760       ??1?$__crt_simd_cleanup_guard@$00@@QAE@XZ 10041760 f i libucrtd:strnlen.obj
 0001:00040770       ??1?$__crt_simd_cleanup_guard@$0A@@@QAE@XZ 10041770 f i libucrtd:strnlen.obj
 0001:00040780       ?compare_equals@?$__crt_simd_traits@$00E@@SA?AT__m256i@@T2@0@Z 10041780 f i libucrtd:strnlen.obj
 0001:000407c0       ?compare_equals@?$__crt_simd_traits@$00G@@SA?AT__m256i@@T2@0@Z 100417c0 f i libucrtd:strnlen.obj
 0001:00040800       ?compare_equals@?$__crt_simd_traits@$0A@E@@SA?AT__m128i@@T2@0@Z 10041800 f i libucrtd:strnlen.obj
 0001:00040840       ?compare_equals@?$__crt_simd_traits@$0A@G@@SA?AT__m128i@@T2@0@Z 10041840 f i libucrtd:strnlen.obj
 0001:00040880       ?compute_byte_mask@?$__crt_simd_pack_traits@$00@@SAHT__m256i@@@Z 10041880 f i libucrtd:strnlen.obj
 0001:000408b0       ?compute_byte_mask@?$__crt_simd_pack_traits@$0A@@@SAHT__m128i@@@Z 100418b0 f i libucrtd:strnlen.obj
 0001:000408e0       ?get_zero_pack@?$__crt_simd_pack_traits@$00@@SA?AT__m256i@@XZ 100418e0 f i libucrtd:strnlen.obj
 0001:00040910       ?get_zero_pack@?$__crt_simd_pack_traits@$0A@@@SA?AT__m128i@@XZ 10041910 f i libucrtd:strnlen.obj
 0001:00040940       _strnlen                   10041940 f   libucrtd:strnlen.obj
 0001:00040960       _wcsnlen                   10041960 f   libucrtd:strnlen.obj
 0001:00040980       ?__acrt_fp_classify@@YA?AW4__acrt_fp_class@@ABN@Z 10041980 f i libucrtd:cvt.obj
 0001:00040aa0       ?__acrt_fp_is_negative@@YA_NABN@Z 10041aa0 f i libucrtd:cvt.obj
 0001:00041b40       ?strrchr@@YAPADQADH@Z      10042b40 f i libucrtd:cvt.obj
 0001:00041b60       ___acrt_fp_format          10042b60 f   libucrtd:cvt.obj
 0001:00041ff0       __fputwc_nolock            10042ff0 f   libucrtd:fputwc.obj
 0001:000421d0       ?lowio_handle@__crt_stdio_stream@@QBEHXZ 100431d0 f i libucrtd:fileno.obj
 0001:000421f0       __fileno                   100431f0 f   libucrtd:fileno.obj
 0001:00042290       __fputc_nolock             10043290 f   libucrtd:fputc.obj
 0001:00042320       __get_printf_count_output  10043320 f   libucrtd:printf_count_output.obj
 0001:00042350       _iswctype                  10043350 f   libucrtd:iswctype.obj
 0001:00042960       __getfpcontrolword         10043960 f   libucrtd:_fenvutils.obj
 0001:000429b0       __getfpstatusword          100439b0 f   libucrtd:_fenvutils.obj
 0001:00042a00       __setfpcontrolword         10043a00 f   libucrtd:_fenvutils.obj
 0001:00042ac0       __setfpstatusword          10043ac0 f   libucrtd:_fenvutils.obj
 0001:00042fb0       _wcsncpy_s                 10043fb0 f   libucrtd:wcsncpy_s.obj
 0001:00042fd0       __fcloseall                10043fd0 f   libucrtd:closeall.obj
 0001:00043100       ?has_crt_buffer@__crt_stdio_stream@@QBE_NXZ 10044100 f i libucrtd:_freebuf.obj
 0001:00043120       ___acrt_stdio_free_buffer_nolock 10044120 f   libucrtd:_freebuf.obj
 0001:000431d0       ??$?RV<lambda_a7d5e04a8e766f2a135287cf7b01dfe7>@@AAV<lambda_e9ab68cc08dfd839979545c079379e6e>@@V<lambda_14e08a59e78d15c51edeee53d25fb3be>@@@?$__crt_seh_guarded_call@H@@QAEH$$QAV<lambda_a7d5e04a8e766f2a135287cf7b01dfe7>@@AAV<lambda_e9ab68cc08dfd839979545c079379e6e>@@$$QAV<lambda_14e08a59e78d15c51edeee53d25fb3be>@@@Z 100441d0 f i libucrtd:commit.obj
 0001:00043260       ??$__acrt_lowio_lock_fh_and_call@V<lambda_e9ab68cc08dfd839979545c079379e6e>@@@@YAHH$$QAV<lambda_e9ab68cc08dfd839979545c079379e6e>@@@Z 10044260 f i libucrtd:commit.obj
 0001:00043360       __commit                   10044360 f   libucrtd:commit.obj
 0001:000441f0       __write                    100451f0 f   libucrtd:write.obj
 0001:00044440       __write_nolock             10045440 f   libucrtd:write.obj
 0001:00044890       __87except                 10045890 f   libucrtd:87except.obj
 0001:00044a80       __CIacos_pentium4          10045a80 f   libucrtd:acos_pentium4.obj
 0001:00044a98       __acos_pentium4            10045a98     libucrtd:acos_pentium4.obj
 0001:00044fe0       __startTwoArgErrorHandling 10045fe0 f   libucrtd:genexcep.obj
 0001:00044ff7       __startOneArgErrorHandling 10045ff7 f   libucrtd:genexcep.obj
 0001:00045040       __twoToTOS                 10046040 f   libucrtd:common.obj
 0001:00045055       __load_CW                  10046055 f   libucrtd:common.obj
 0001:0004506c       __convertTOStoQNaN         1004606c f   libucrtd:common.obj
 0001:00045085       __fload_withFB             10046085 f   libucrtd:common.obj
 0001:000450c8       __checkTOS_withFB          100460c8 f   libucrtd:common.obj
 0001:000450de       __fast_exit                100460de f   libucrtd:common.obj
 0001:000450eb       __math_exit                100460eb f   libucrtd:common.obj
 0001:00045115       __check_overflow_exit      10046115 f   libucrtd:common.obj
 0001:00045129       __check_range_exit         10046129 f   libucrtd:common.obj
 0001:000451d0       __CIcos_pentium4           100461d0 f   libucrtd:cos_pentium4.obj
 0001:000451e8       __cos_pentium4             100461e8     libucrtd:cos_pentium4.obj
 0001:00045380       __CIpow_pentium4           10046380 f   libucrtd:pow_pentium4.obj
 0001:00045399       __pow_pentium4             10046399     libucrtd:pow_pentium4.obj
 0001:00045eb1       __fFEXP                    10046eb1     libucrtd:87tran.obj
 0001:00045f08       __rtinfpopse               10046f08     libucrtd:87tran.obj
 0001:00045f0a       __rtinfnpopse              10046f0a     libucrtd:87tran.obj
 0001:00045f1a       __fFLN                     10046f1a     libucrtd:87tran.obj
 0001:00045fcf       __rtinfpop                 10046fcf     libucrtd:87tran.obj
 0001:00045fd1       __rtinfnpop                10046fd1     libucrtd:87tran.obj
 0001:00045fee       __ffexpm1                  10046fee     libucrtd:87tran.obj
 0001:000460a0       __d_inttype                100470a0 f   libucrtd:powhlp.obj
 0001:00046130       __powhlp                   10047130 f   libucrtd:powhlp.obj
 0001:000462d0       __CIsin_pentium4           100472d0 f   libucrtd:sin_pentium4.obj
 0001:000462e8       __sin_pentium4             100472e8     libucrtd:sin_pentium4.obj
 0001:000464a0       __frnd                     100474a0 f   libucrtd:frnd.obj
 0001:000464c0       ___acrt_add_locale_ref     100474c0 f   libucrtd:locale_refcounting.obj
 0001:000465c0       ___acrt_free_locale        100475c0 f   libucrtd:locale_refcounting.obj
 0001:00046880       ___acrt_locale_add_lc_time_reference 10047880 f   libucrtd:locale_refcounting.obj
 0001:000468c0       ___acrt_locale_free_lc_time_if_unreferenced 100478c0 f   libucrtd:locale_refcounting.obj
 0001:00046910       ___acrt_locale_release_lc_time_reference 10047910 f   libucrtd:locale_refcounting.obj
 0001:00046940       ___acrt_release_locale_ref 10047940 f   libucrtd:locale_refcounting.obj
 0001:00046a50       ___acrt_update_thread_locale_data 10047a50 f   libucrtd:locale_refcounting.obj
 0001:00046b20       __updatetlocinfoEx_nolock  10047b20 f   libucrtd:locale_refcounting.obj
 0001:00046d00       ___acrt_DownlevelLocaleNameToLCID 10047d00 f   libucrtd:lcidtoname_downlevel.obj
 0001:00046d70       ??1?$__crt_scoped_stack_ptr@_W@@QAE@XZ 10047d70 f i libucrtd:getstringtypea.obj
 0001:00046d90       ??C__crt_stdio_stream@@QBEPAU__crt_stdio_stream_data@@XZ 10047d90 f i libucrtd:output.obj
 0001:00046d90       ?save_state@?$c_string_character_source@_W@__crt_strtox@@QBEPB_WXZ 10047d90 f i libucrtd:atox.obj
 0001:00046d90       ?public_stream@__crt_stdio_stream@@QBEPAU_iobuf@@XZ 10047d90 f i libucrtd:output.obj
 0001:00046d90       ?get@?$__crt_unique_handle_t@U__crt_hmodule_traits@@@@QBEPAUHINSTANCE__@@XZ 10047d90 f i libucrtd:exit.obj
 0001:00046d90       ?get@?$__crt_unique_handle_t@U__crt_handle_traits@@@@QBEPAXXZ 10047d90 f i libucrtd:crtmbox.obj
 0001:00046d90       ?get@?$__crt_unique_heap_ptr@U__acrt_ptd@@U__crt_internal_free_policy@@@@QBEPAU__acrt_ptd@@XZ 10047d90 f i libucrtd:per_thread_data.obj
 0001:00046d90       ?get@?$__crt_scoped_stack_ptr@_W@@QBEPA_WXZ 10047d90 f i libucrtd:getstringtypea.obj
 0001:00046d90       ?get@?$__crt_unique_heap_ptr@U__crt_lowio_handle_data@@U__crt_internal_free_policy@@@@QBEPAU__crt_lowio_handle_data@@XZ 10047d90 f i libucrtd:osfinfo.obj
 0001:00046d90       ?get@?$__crt_unique_heap_ptr@U__crt_multibyte_data@@U__crt_internal_free_policy@@@@QBEPAU__crt_multibyte_data@@XZ 10047d90 f i libucrtd:mbctype.obj
 0001:00046d90       ?save_state@?$c_string_character_source@D@__crt_strtox@@QBEPBDXZ 10047d90 f i libucrtd:atox.obj
 0001:00046db0       __MallocaComputeSize       10047db0 f i libucrtd:getstringtypea.obj
 0001:00046de0       __MarkAllocaS              10047de0 f i libucrtd:getstringtypea.obj
 0001:00046e10       ___acrt_GetStringTypeA     10047e10 f   libucrtd:getstringtypea.obj
 0001:00046fc0       __freea_crt                10047fc0 f i libucrtd:getstringtypea.obj
 0001:000473f0       ___acrt_LCMapStringA       100483f0 f   libucrtd:lcmapstringa.obj
 0001:00047450       ___acrt_lowio_create_handle_array 10048450 f   libucrtd:osfinfo.obj
 0001:00047590       ___acrt_lowio_destroy_handle_array 10048590 f   libucrtd:osfinfo.obj
 0001:000475f0       ___acrt_lowio_ensure_fh_exists 100485f0 f   libucrtd:osfinfo.obj
 0001:00047750       ___acrt_lowio_lock_fh      10048750 f   libucrtd:osfinfo.obj
 0001:00047780       ___acrt_lowio_unlock_fh    10048780 f   libucrtd:osfinfo.obj
 0001:000477b0       __free_osfhnd              100487b0 f   libucrtd:osfinfo.obj
 0001:000478a0       __get_osfhandle            100488a0 f   libucrtd:osfinfo.obj
 0001:00047a20       ___pctype_func             10048a20 f   libucrtd:ctype.obj
 0001:00047a60       __isatty                   10048a60 f   libucrtd:isatty.obj
 0001:00047b30       __malloc_base              10048b30 f   libucrtd:malloc_base.obj
 0001:00047bc0       __isleadbyte_l             10048bc0 f i libucrtd:_wctype.obj
 0001:00047c00       ___acrt_locale_free_monetary 10048c00 f   libucrtd:initmon.obj
 0001:00047db0       ___acrt_locale_free_numeric 10048db0 f   libucrtd:initnum.obj
 0001:00047f00       ___acrt_locale_free_time   10048f00 f   libucrtd:inittime.obj
 0001:000483e0       __mbstowcs_s_l             100493e0 f   libucrtd:mbstowcs.obj
 0001:000487a0       _mbstowcs_s                100497a0 f   libucrtd:mbstowcs.obj
 0001:00048e30       __wcstombs_s_l             10049e30 f   libucrtd:wcstombs.obj
 0001:000491a0       _wcstombs_s                1004a1a0 f   libucrtd:wcstombs.obj
 0001:000491d0       ___acrt_fp_strflt_to_string 1004a1d0 f   libucrtd:_fptostr.obj
 0001:00049b20       ??0big_integer@__crt_strtox@@QAE@ABU01@@Z 1004ab20 f i libucrtd:cfout.obj
 0001:00049b20       ??4big_integer@__crt_strtox@@QAEAAU01@ABU01@@Z 1004ab20 f i libucrtd:cfout.obj
 0001:00049b60       ??0big_integer@__crt_strtox@@QAE@XZ 1004ab60 f i libucrtd:cfout.obj
 0001:00049ba0       ??0scoped_fp_state_reset@?A0x71ca7cfb@@QAE@XZ 1004aba0 f i libucrtd:cfout.obj
 0001:00049bf0       ??1scoped_fp_state_reset@?A0x71ca7cfb@@QAE@XZ 1004abf0 f i libucrtd:cfout.obj
 0001:00049c20       ??8__crt_strtox@@YA_NABUbig_integer@0@0@Z 1004ac20 f i libucrtd:cfout.obj
 0001:00049c80       ??9__crt_strtox@@YA_NABUbig_integer@0@0@Z 1004ac80 f i libucrtd:cfout.obj
 0001:00049cc0       ?add_carry@__crt_strtox@@YAIAAIII@Z 1004acc0 f i libucrtd:cfout.obj
 0001:00049d00       ?add_multiply_carry@__crt_strtox@@YAIAAIIII@Z 1004ad00 f i libucrtd:cfout.obj
 0001:00049d40       ?bit_scan_reverse@__crt_strtox@@YAII@Z 1004ad40 f i libucrtd:cfout.obj
 0001:00049d70       ?count_sequential_high_zeroes@__crt_strtox@@YAII@Z 1004ad70 f i libucrtd:cfout.obj
 0001:00049db0       ?divide@__crt_strtox@@YA_KAAUbig_integer@1@ABU21@@Z 1004adb0 f i libucrtd:cfout.obj
 0001:0004a830       ?is_zero@__crt_strtox@@YA_NABUbig_integer@1@@Z 1004b830 f i libucrtd:cfout.obj
 0001:0004a860       ?make_big_integer@__crt_strtox@@YA?AUbig_integer@1@_K@Z 1004b860 f i libucrtd:cfout.obj
 0001:0004a910       ?make_big_integer_power_of_two@__crt_strtox@@YA?AUbig_integer@1@I@Z 1004b910 f i libucrtd:cfout.obj
 0001:0004a9c0       ?multiply@__crt_strtox@@YA_NAAUbig_integer@1@ABU21@@Z 1004b9c0 f i libucrtd:cfout.obj
 0001:0004ad40       ?multiply@__crt_strtox@@YA_NAAUbig_integer@1@I@Z 1004bd40 f i libucrtd:cfout.obj
 0001:0004ae10       ?multiply_64_32@__crt_strtox@@YA_K_KI@Z 1004be10 f i libucrtd:cfout.obj
 0001:0004ae30       ?multiply_by_power_of_ten@__crt_strtox@@YA_NAAUbig_integer@1@I@Z 1004be30 f i libucrtd:cfout.obj
 0001:0004afd0       ?multiply_core@__crt_strtox@@YAIQAIII@Z 1004bfd0 f i libucrtd:cfout.obj
 0001:0004b040       ?shift_left@__crt_strtox@@YA_NAAUbig_integer@1@I@Z 1004c040 f i libucrtd:cfout.obj
 0001:0004b390       ___acrt_fltout             1004c390 f   libucrtd:cfout.obj
 0001:0004bd60       ___acrt_stdio_flush_and_write_narrow_nolock 1004cd60 f   libucrtd:_flsbuf.obj
 0001:0004bd90       ___acrt_stdio_flush_and_write_wide_nolock 1004cd90 f   libucrtd:_flsbuf.obj
 0001:0004bdc0       __fclose_nolock            1004cdc0 f   libucrtd:fclose.obj
 0001:0004bf00       _fclose                    1004cf00 f   libucrtd:fclose.obj
 0001:0004c3d0       __lseeki64                 1004d3d0 f   libucrtd:lseek.obj
 0001:0004c3f0       __lseeki64_nolock          1004d3f0 f   libucrtd:lseek.obj
 0001:0004c40f       __putwch_nolock            1004d40f f   libucrtd:putwch.obj
 0001:0004c460       __fpclass                  1004d460 f   libucrtd:ieeemisc.obj
 0001:0004c560       ___strncnt                 1004d560 f   libucrtd:strncnt.obj
 0001:0004c5b0       _log10                     1004d5b0 f   libucrtd:log10.obj
 0001:0004c5f0       __CIlog10                  1004d5f0 f   libucrtd:log10.obj
 0001:0004c62b       __CIlog10_default          1004d62b f   libucrtd:log10.obj
 0001:0004c63f       __log10_default            1004d63f     libucrtd:log10.obj
 0001:0004c700       _fegetenv                  1004d700 f   libucrtd:fegetenv.obj
 0001:0004c720       _fesetenv                  1004d720 f   libucrtd:fesetenv.obj
 0001:0004c790       _feholdexcept              1004d790 f   libucrtd:feholdexcept.obj
 0001:0004c800       ___acrt_stdio_allocate_buffer_nolock 1004d800 f   libucrtd:_getbuf.obj
 0001:0004c910       ??$?RV<lambda_4d8dda1ac129e11742d77ae5e3bbda74>@@AAV<lambda_a8f98972ebaa5f7148d35bffe53bd70d>@@V<lambda_5193b64c98d743723bd5dcf162a72339>@@@?$__crt_seh_guarded_call@H@@QAEH$$QAV<lambda_4d8dda1ac129e11742d77ae5e3bbda74>@@AAV<lambda_a8f98972ebaa5f7148d35bffe53bd70d>@@$$QAV<lambda_5193b64c98d743723bd5dcf162a72339>@@@Z 1004d910 f i libucrtd:close.obj
 0001:0004c9a0       ??$__acrt_lowio_lock_fh_and_call@V<lambda_a8f98972ebaa5f7148d35bffe53bd70d>@@@@YAHH$$QAV<lambda_a8f98972ebaa5f7148d35bffe53bd70d>@@@Z 1004d9a0 f i libucrtd:close.obj
 0001:0004cb40       __close                    1004db40 f   libucrtd:close.obj
 0001:0004ccc0       __close_nolock             1004dcc0 f   libucrtd:close.obj
 0001:0004cd20       ?__acrt_stdio_free_stream@@YAXV__crt_stdio_stream@@@Z 1004dd20 f   libucrtd:stream.obj
 0001:0004cda0       ?deallocate@__crt_stdio_stream@@QAEXXZ 1004dda0 f i libucrtd:stream.obj
 0001:0004cdb9       ___dcrt_lowio_initialize_console_output 1004ddb9 f   libucrtd:initcon.obj
 0001:0004cdd8       ___dcrt_terminate_console_output 1004ddd8 f   libucrtd:initcon.obj
 0001:0004cdf0       ___ascii_strnicmp          1004ddf0 f   libucrtd:_strnicm.obj
 0001:0004ce60       __CIlog10_pentium4         1004de60 f   libucrtd:log10_pentium4.obj
 0001:0004ce78       __log10_pentium4           1004de78     libucrtd:log10_pentium4.obj
 0001:0004d240       __clearfp                  1004e240 f   libucrtd:ieee87.obj
 0001:0004d290       __FindPESection            1004e290 f   LIBCMTD:pesect.obj
 0001:0004d310       __IsNonwritableInCurrentImage 1004e310 f   LIBCMTD:pesect.obj
 0001:0004d440       __ValidateImageBase        1004e440 f   LIBCMTD:pesect.obj
 0001:0004d4a0       __allshl                   1004e4a0 f   LIBCMTD:llshl.obj
 0001:0004d4c0       __aulldiv                  1004e4c0 f   LIBCMTD:ulldiv.obj
 0001:0004d530       __aullrem                  1004e530 f   LIBCMTD:ullrem.obj
 0001:0004d5b0       ??1type_info@@UAE@XZ       1004e5b0 f   LIBCMTD:std_type_info_static.obj
 0001:0004d5d0       ??_Gtype_info@@UAEPAXI@Z   1004e5d0 f i LIBCMTD:std_type_info_static.obj
 0001:0004d5d0       ??_Etype_info@@UAEPAXI@Z   1004e5d0 f i LIBCMTD:std_type_info_static.obj
 0001:0004d600       __chkstk                   1004e600 f   LIBCMTD:chkstk.obj
 0001:0004d600       __alloca_probe             1004e600 f   LIBCMTD:chkstk.obj
 0001:0004d630       __allmul                   1004e630 f   LIBCMTD:llmul.obj
 0001:0004d670       __alldiv                   1004e670 f   LIBCMTD:lldiv.obj
 0001:0004d720       __allrem                   1004e720 f   LIBCMTD:llrem.obj
 0001:0004d7e0       __aullshr                  1004e7e0 f   LIBCMTD:ullshr.obj
 0001:0004d800       __SEH_prolog4              1004e800 f   LIBCMTD:_sehprolg4_.obj
 0001:0004d846       __SEH_epilog4              1004e846 f   LIBCMTD:_sehprolg4_.obj
 0001:0004d860       ??3@YAXPAXI@Z              1004e860 f   LIBCMTD:delete_scalar_size.obj
 0001:0004d880       ??3@YAXPAX@Z               1004e880 f   LIBCMTD:delete_scalar.obj
 0001:0004d894       _RtlUnwind@16              1004e894 f   kernel32:KERNEL32.dll
 0001:0004d89a       _SystemFunction036@8       1004e89a f   advapi32:ADVAPI32.dll
 0001:0004d8a0       _strchr                    1004e8a0 f   libvcruntimed:strchr.obj
 0001:0004d90e       ___from_strstr_to_strchr   1004e90e     libvcruntimed:strchr.obj
 0001:0004d9d0       _memmove                   1004e9d0 f   libvcruntimed:memmove.obj
 0001:0004df50       _strrchr                   1004ef50 f   libvcruntimed:strrchr.obj
 0001:0004e090       ?_CallCatchBlock2@@YAPAXPAUEHRegistrationNode@@PBU_s_FuncInfo@@PAXHK@Z 1004f090 f   libvcruntimed:trnsctrl.obj
 0001:0004e100       ?_CallSETranslator@@YAHPAUEHExceptionRecord@@PAUEHRegistrationNode@@PAX2PBU_s_FuncInfo@@H1@Z 1004f100 f   libvcruntimed:trnsctrl.obj
 0001:0004e1f0       ?_GetRangeOfTrysToCheck@@YAPBU_s_TryBlockMapEntry@@PBU_s_FuncInfo@@HHPAI1@Z 1004f1f0 f   libvcruntimed:trnsctrl.obj
 0001:0004e270       ?_JumpToContinuation@@YGXPAXPAUEHRegistrationNode@@@Z 1004f270 f   libvcruntimed:trnsctrl.obj
 0001:0004e2b0       ?_UnwindNestedFrames@@YGXPAUEHRegistrationNode@@PAUEHExceptionRecord@@@Z 1004f2b0 f   libvcruntimed:trnsctrl.obj
 0001:0004e310       __CatchGuardHandler        1004f310 f   libvcruntimed:trnsctrl.obj
 0001:0004e360       __CreateFrameInfo          1004f360 f   libvcruntimed:trnsctrl.obj
 0001:0004e390       __FindAndUnlinkFrame       1004f390 f   libvcruntimed:trnsctrl.obj
 0001:0004e3e0       __IsExceptionObjectToBeDestroyed 1004f3e0 f   libvcruntimed:trnsctrl.obj
 0001:0004e410       __TranslatorGuardHandler   1004f410 f   libvcruntimed:trnsctrl.obj
 0001:0004e4c0       ___CxxFrameHandler3        1004f4c0 f   libvcruntimed:trnsctrl.obj
 0001:0004e500       __CallSettingFrame@12      1004f500 f   libvcruntimed:lowhelpr.obj
 0001:0004e527       __NLG_Return               1004f527     libvcruntimed:lowhelpr.obj
 0001:0004e550       ___DestructExceptionObject 1004f550 f   libvcruntimed:frame.obj
 0001:0004e680       ??0bad_exception@std@@QAE@ABV01@@Z 1004f680 f i libvcruntimed:frame.obj
 0001:0004e6b0       ??0bad_exception@std@@QAE@XZ 1004f6b0 f i libvcruntimed:frame.obj
 0001:0004e6e0       ??0exception@std@@QAE@ABV01@@Z 1004f6e0 f i libvcruntimed:frame.obj
 0001:0004e720       ??0exception@std@@QAE@QBDH@Z 1004f720 f i libvcruntimed:frame.obj
 0001:0004e750       ??1bad_exception@std@@UAE@XZ 1004f750 f i libvcruntimed:frame.obj
 0001:0004e770       ??1exception@std@@UAE@XZ   1004f770 f i libvcruntimed:frame.obj
 0001:0004e7a0       ??8type_info@@QBE_NABV0@@Z 1004f7a0 f i libvcruntimed:frame.obj
 0001:0004e7e0       ??_Gbad_exception@std@@UAEPAXI@Z 1004f7e0 f i libvcruntimed:frame.obj
 0001:0004e7e0       ??_Ebad_exception@std@@UAEPAXI@Z 1004f7e0 f i libvcruntimed:frame.obj
 0001:0004e810       ??_Gexception@std@@UAEPAXI@Z 1004f810 f i libvcruntimed:frame.obj
 0001:0004e810       ??_Eexception@std@@UAEPAXI@Z 1004f810 f i libvcruntimed:frame.obj
 0001:0004f3f0       ?_CallMemberFunction2@@YGXQAX00H@Z 100503f0 f i libvcruntimed:frame.obj
 0001:0004f3f0       ?_CallMemberFunction0@@YGXQAX0@Z 100503f0 f i libvcruntimed:frame.obj
 0001:0004f3f0       ?_CallMemberFunction1@@YGXQAX00@Z 100503f0 f i libvcruntimed:frame.obj
 0001:0004f400       ?_ValidateRead@@YA_NPBXI@Z 10050400 f i libvcruntimed:frame.obj
 0001:0004f400       ?_ValidateExecute@@YA_NP6GHXZ@Z 10050400 f i libvcruntimed:frame.obj
 0001:0004f400       ?_ValidateWrite@@YA_NPAXI@Z 10050400 f i libvcruntimed:frame.obj
 0001:0004f420       ?what@exception@std@@UBEPBDXZ 10050420 f i libvcruntimed:frame.obj
 0001:0004f450       ___AdjustPointer           10050450 f   libvcruntimed:frame.obj
 0001:0004f4a0       ___BuildCatchObject        100504a0 f   libvcruntimed:frame.obj
 0001:0004f5b0       ___BuildCatchObjectHelper  100505b0 f   libvcruntimed:frame.obj
 0001:0004f8e0       ___FrameUnwindFilter       100508e0 f   libvcruntimed:frame.obj
 0001:0004f960       ___FrameUnwindToState      10050960 f   libvcruntimed:frame.obj
 0001:0004fae0       ___InternalCxxFrameHandler 10050ae0 f   libvcruntimed:frame.obj
 0001:0004fc90       ___TypeMatch               10050c90 f   libvcruntimed:frame.obj
 0001:0004fd70       _unexpected                10050d70 f   libvcruntimed:unexpected.obj
 0001:0004fdb0       ??$?RD@__crt_public_free_policy@@QBEXQBD@Z 10050db0 f i libvcruntimed:std_exception.obj
 0001:0004fdd0       ??1?$__crt_unique_heap_ptr@DU__crt_public_free_policy@@@@QAE@XZ 10050dd0 f i libvcruntimed:std_exception.obj
 0001:0004fdf0       ??B?$__crt_unique_heap_ptr@DU__crt_internal_free_policy@@@@QBE_NXZ 10050df0 f i libvcruntimed:std_type_info.obj
 0001:0004fdf0       ??B?$__crt_unique_heap_ptr@DU__crt_public_free_policy@@@@QBE_NXZ 10050df0 f i libvcruntimed:std_exception.obj
 0001:0004fdf0       ??B?$__crt_unique_heap_ptr@U__vcrt_ptd@@U__crt_internal_free_policy@@@@QBE_NXZ 10050df0 f i libvcruntimed:per_thread_data.obj
 0001:0004fe10       ?release@?$__crt_unique_heap_ptr@DU__crt_public_free_policy@@@@QAEXXZ 10050e10 f i libvcruntimed:std_exception.obj
 0001:0004fe40       ___std_exception_copy      10050e40 f   libvcruntimed:std_exception.obj
 0001:0004ff20       ___std_exception_destroy   10050f20 f   libvcruntimed:std_exception.obj
 0001:0004ff50       __CxxThrowException@8      10050f50 f   libvcruntimed:throw.obj
 0002:00000000       __imp__SystemFunction036@8 10052000     advapi32:ADVAPI32.dll
 0002:00000004       \177ADVAPI32_NULL_THUNK_DATA 10052004     advapi32:ADVAPI32.dll
 0002:00000008       __imp__CreateFileW@28      10052008     kernel32:KERNEL32.dll
 0002:0000000c       __imp__SetFilePointerEx@20 1005200c     kernel32:KERNEL32.dll
 0002:00000010       __imp__SetStdHandle@8      10052010     kernel32:KERNEL32.dll
 0002:00000014       __imp__GetConsoleMode@8    10052014     kernel32:KERNEL32.dll
 0002:00000018       __imp__GetConsoleCP@0      10052018     kernel32:KERNEL32.dll
 0002:0000001c       __imp__FlushFileBuffers@4  1005201c     kernel32:KERNEL32.dll
 0002:00000020       __imp__GetStringTypeW@16   10052020     kernel32:KERNEL32.dll
 0002:00000024       __imp__HeapQueryInformation@20 10052024     kernel32:KERNEL32.dll
 0002:00000028       __imp__UnhandledExceptionFilter@4 10052028     kernel32:KERNEL32.dll
 0002:0000002c       __imp__SetUnhandledExceptionFilter@4 1005202c     kernel32:KERNEL32.dll
 0002:00000030       __imp__GetCurrentProcess@0 10052030     kernel32:KERNEL32.dll
 0002:00000034       __imp__TerminateProcess@8  10052034     kernel32:KERNEL32.dll
 0002:00000038       __imp__IsProcessorFeaturePresent@4 10052038     kernel32:KERNEL32.dll
 0002:0000003c       __imp__QueryPerformanceCounter@4 1005203c     kernel32:KERNEL32.dll
 0002:00000040       __imp__GetCurrentProcessId@0 10052040     kernel32:KERNEL32.dll
 0002:00000044       __imp__GetCurrentThreadId@0 10052044     kernel32:KERNEL32.dll
 0002:00000048       __imp__GetSystemTimeAsFileTime@4 10052048     kernel32:KERNEL32.dll
 0002:0000004c       __imp__InitializeSListHead@4 1005204c     kernel32:KERNEL32.dll
 0002:00000050       __imp__IsDebuggerPresent@0 10052050     kernel32:KERNEL32.dll
 0002:00000054       __imp__GetStartupInfoW@4   10052054     kernel32:KERNEL32.dll
 0002:00000058       __imp__GetModuleHandleW@4  10052058     kernel32:KERNEL32.dll
 0002:0000005c       __imp__GetLastError@0      1005205c     kernel32:KERNEL32.dll
 0002:00000060       __imp__GetModuleFileNameW@12 10052060     kernel32:KERNEL32.dll
 0002:00000064       __imp__InterlockedFlushSList@4 10052064     kernel32:KERNEL32.dll
 0002:00000068       __imp__InitializeCriticalSectionAndSpinCount@8 10052068     kernel32:KERNEL32.dll
 0002:0000006c       __imp__TlsAlloc@0          1005206c     kernel32:KERNEL32.dll
 0002:00000070       __imp__TlsGetValue@4       10052070     kernel32:KERNEL32.dll
 0002:00000074       __imp__TlsSetValue@8       10052074     kernel32:KERNEL32.dll
 0002:00000078       __imp__TlsFree@4           10052078     kernel32:KERNEL32.dll
 0002:0000007c       __imp__FreeLibrary@4       1005207c     kernel32:KERNEL32.dll
 0002:00000080       __imp__GetProcAddress@8    10052080     kernel32:KERNEL32.dll
 0002:00000084       __imp__LoadLibraryExW@12   10052084     kernel32:KERNEL32.dll
 0002:00000088       __imp__RtlUnwind@16        10052088     kernel32:KERNEL32.dll
 0002:0000008c       __imp__SetLastError@4      1005208c     kernel32:KERNEL32.dll
 0002:00000090       __imp__EnterCriticalSection@4 10052090     kernel32:KERNEL32.dll
 0002:00000094       __imp__LeaveCriticalSection@4 10052094     kernel32:KERNEL32.dll
 0002:00000098       __imp__DeleteCriticalSection@4 10052098     kernel32:KERNEL32.dll
 0002:0000009c       __imp__GetStdHandle@4      1005209c     kernel32:KERNEL32.dll
 0002:000000a0       __imp__GetFileType@4       100520a0     kernel32:KERNEL32.dll
 0002:000000a4       __imp__GetModuleFileNameA@12 100520a4     kernel32:KERNEL32.dll
 0002:000000a8       __imp__GetModuleHandleExW@12 100520a8     kernel32:KERNEL32.dll
 0002:000000ac       __imp__WriteConsoleW@20    100520ac     kernel32:KERNEL32.dll
 0002:000000b0       __imp__RaiseException@16   100520b0     kernel32:KERNEL32.dll
 0002:000000b4       __imp__ExitProcess@4       100520b4     kernel32:KERNEL32.dll
 0002:000000b8       __imp__MultiByteToWideChar@24 100520b8     kernel32:KERNEL32.dll
 0002:000000bc       __imp__WideCharToMultiByte@32 100520bc     kernel32:KERNEL32.dll
 0002:000000c0       __imp__HeapAlloc@12        100520c0     kernel32:KERNEL32.dll
 0002:000000c4       __imp__HeapValidate@12     100520c4     kernel32:KERNEL32.dll
 0002:000000c8       __imp__GetSystemInfo@4     100520c8     kernel32:KERNEL32.dll
 0002:000000cc       __imp__WriteFile@20        100520cc     kernel32:KERNEL32.dll
 0002:000000d0       __imp__OutputDebugStringA@4 100520d0     kernel32:KERNEL32.dll
 0002:000000d4       __imp__OutputDebugStringW@4 100520d4     kernel32:KERNEL32.dll
 0002:000000d8       __imp__CloseHandle@4       100520d8     kernel32:KERNEL32.dll
 0002:000000dc       __imp__WaitForSingleObjectEx@12 100520dc     kernel32:KERNEL32.dll
 0002:000000e0       __imp__CreateThread@24     100520e0     kernel32:KERNEL32.dll
 0002:000000e4       __imp__EncodePointer@4     100520e4     kernel32:KERNEL32.dll
 0002:000000e8       __imp__DecodePointer@4     100520e8     kernel32:KERNEL32.dll
 0002:000000ec       __imp__LCMapStringW@24     100520ec     kernel32:KERNEL32.dll
 0002:000000f0       __imp__IsValidCodePage@4   100520f0     kernel32:KERNEL32.dll
 0002:000000f4       __imp__GetACP@0            100520f4     kernel32:KERNEL32.dll
 0002:000000f8       __imp__GetOEMCP@0          100520f8     kernel32:KERNEL32.dll
 0002:000000fc       __imp__GetCPInfo@8         100520fc     kernel32:KERNEL32.dll
 0002:00000100       __imp__GetEnvironmentStringsW@0 10052100     kernel32:KERNEL32.dll
 0002:00000104       __imp__FreeEnvironmentStringsW@4 10052104     kernel32:KERNEL32.dll
 0002:00000108       __imp__GetProcessHeap@0    10052108     kernel32:KERNEL32.dll
 0002:0000010c       __imp__GetCommandLineA@0   1005210c     kernel32:KERNEL32.dll
 0002:00000110       __imp__GetCommandLineW@0   10052110     kernel32:KERNEL32.dll
 0002:00000114       __imp__HeapFree@12         10052114     kernel32:KERNEL32.dll
 0002:00000118       __imp__HeapReAlloc@16      10052118     kernel32:KERNEL32.dll
 0002:0000011c       __imp__HeapSize@12         1005211c     kernel32:KERNEL32.dll
 0002:00000120       \177KERNEL32_NULL_THUNK_DATA 10052120     kernel32:KERNEL32.dll
 0002:00000124       __imp__glTexParameteri@12  10052124     OpenGL32:OPENGL32.dll
 0002:00000128       __imp__glTexImage2D@36     10052128     OpenGL32:OPENGL32.dll
 0002:0000012c       __imp__glGenTextures@8     1005212c     OpenGL32:OPENGL32.dll
 0002:00000130       __imp__glEnable@4          10052130     OpenGL32:OPENGL32.dll
 0002:00000134       __imp__glDrawArrays@12     10052134     OpenGL32:OPENGL32.dll
 0002:00000138       __imp__glClearColor@16     10052138     OpenGL32:OPENGL32.dll
 0002:0000013c       __imp__glClear@4           1005213c     OpenGL32:OPENGL32.dll
 0002:00000140       __imp__glBlendFunc@8       10052140     OpenGL32:OPENGL32.dll
 0002:00000144       __imp__glBindTexture@8     10052144     OpenGL32:OPENGL32.dll
 0002:00000148       \177OPENGL32_NULL_THUNK_DATA 10052148     OpenGL32:OPENGL32.dll
 0002:0000014c       ___guard_check_icall_fptr  1005214c     LIBCMTD:guard_support.obj
 0002:00000150       ___xc_a                    10052150     LIBCMTD:initializers.obj
 0002:00000154       ___xc_z                    10052154     LIBCMTD:initializers.obj
 0002:00000158       ___xi_a                    10052158     LIBCMTD:initializers.obj
 0002:0000015c       ___acrt_stdio_initializer  1005215c     libucrtd:stdio_initializer.obj
 0002:00000160       ___acrt_tran_sse2_initializer 10052160     libucrtd:sse2_initializer.obj
 0002:00000164       ___acrt_multibyte_initializer 10052164     libucrtd:multibyte_initializer.obj
 0002:00000168       ___xi_z                    10052168     LIBCMTD:initializers.obj
 0002:0000016c       ___xp_a                    1005216c     LIBCMTD:initializers.obj
 0002:00000170       ___acrt_locale_terminator  10052170     libucrtd:locale_initializer.obj
 0002:00000174       ___dcrt_console_output_terminator 10052174     libucrtd:console_output_initializer.obj
 0002:00000178       ___acrt_stdio_terminator   10052178     libucrtd:stdio_initializer.obj
 0002:0000017c       ___xp_z                    1005217c     LIBCMTD:initializers.obj
 0002:00000180       ___xt_a                    10052180     LIBCMTD:initializers.obj
 0002:00000184       ___xt_z                    10052184     LIBCMTD:initializers.obj
 0002:000012a0       ??_C@_01EJNLAFE@P?$AA@     100532a0     app.obj
 0002:000012a4       ??_C@_0BA@NMEIMCEK@InvalidCodePath?$AA@ 100532a4     app.obj
 0002:000012b4       __real@00000000            100532b4     app.obj
 0002:000012b8       __real@0000000000000000    100532b8     app.obj
 0002:000012c0       __real@358637bd            100532c0     app.obj
 0002:000012c4       __real@3c23d70a            100532c4     app.obj
 0002:000012c8       __real@3cf5c28f            100532c8     app.obj
 0002:000012cc       __real@3d75c28f            100532cc     app.obj
 0002:000012d0       __real@3da3d70a            100532d0     app.obj
 0002:000012d4       __real@3dcccccd            100532d4     app.obj
 0002:000012d8       __real@3e19999a            100532d8     app.obj
 0002:000012dc       __real@3e3851ec            100532dc     app.obj
 0002:000012e0       __real@3e800000            100532e0     app.obj
 0002:000012e4       __real@3ea8f5c3            100532e4     app.obj
 0002:000012e8       __real@3eb33333            100532e8     app.obj
 0002:000012ec       __real@3f000000            100532ec     app.obj
 0002:000012f0       __real@3f19999a            100532f0     app.obj
 0002:000012f4       __real@3f2b851f            100532f4     app.obj
 0002:000012f8       __real@3f400000            100532f8     app.obj
 0002:000012fc       __real@3f7d70a4            100532fc     app.obj
 0002:00001300       __real@3f800000            10053300     app.obj
 0002:00001308       __real@3fd5555560000000    10053308     app.obj
 0002:00001310       __real@3fddb3d7            10053310     app.obj
 0002:00001318       __real@3ff0000000000000    10053318     app.obj
 0002:00001320       __real@3ff028f5c0000000    10053320     app.obj
 0002:00001328       __real@3ff921fafc8b007a    10053328     app.obj
 0002:00001330       __real@40000000            10053330     app.obj
 0002:00001338       __real@4000000000000000    10053338     app.obj
 0002:00001340       __real@40400000            10053340     app.obj
 0002:00001344       __real@40800000            10053344     app.obj
 0002:00001348       __real@40a00000            10053348     app.obj
 0002:0000134c       __real@40c00000            1005334c     app.obj
 0002:00001350       __real@40c90fdb            10053350     app.obj
 0002:00001354       __real@41100000            10053354     app.obj
 0002:00001358       __real@41200000            10053358     app.obj
 0002:0000135c       __real@41300000            1005335c     app.obj
 0002:00001360       __real@41480000            10053360     app.obj
 0002:00001364       __real@41600000            10053364     app.obj
 0002:00001368       __real@41700000            10053368     app.obj
 0002:0000136c       __real@41800000            1005336c     app.obj
 0002:00001370       __real@41900000            10053370     app.obj
 0002:00001374       __real@41980000            10053374     app.obj
 0002:00001378       __real@41b40000            10053378     app.obj
 0002:0000137c       __real@41c00000            1005337c     app.obj
 0002:00001380       __real@41c80000            10053380     app.obj
 0002:00001384       __real@41d80000            10053384     app.obj
 0002:00001388       __real@41e00000            10053388     app.obj
 0002:0000138c       __real@41f00000            1005338c     app.obj
 0002:00001390       __real@41f80000            10053390     app.obj
 0002:00001394       __real@42000000            10053394     app.obj
 0002:00001398       __real@42180000            10053398     app.obj
 0002:0000139c       __real@42200000            1005339c     app.obj
 0002:000013a0       __real@422c0000            100533a0     app.obj
 0002:000013a4       __real@42340000            100533a4     app.obj
 0002:000013a8       __real@42400000            100533a8     app.obj
 0002:000013ac       __real@425c0000            100533ac     app.obj
 0002:000013b0       __real@42700000            100533b0     app.obj
 0002:000013b4       __real@427c0000            100533b4     app.obj
 0002:000013b8       __real@42c80000            100533b8     app.obj
 0002:000013bc       __real@42f40000            100533bc     app.obj
 0002:000013c0       __real@431f0000            100533c0     app.obj
 0002:000013c4       __real@43480000            100533c4     app.obj
 0002:000013c8       __real@43660000            100533c8     app.obj
 0002:000013cc       __real@437f0000            100533cc     app.obj
 0002:000013d0       __real@43960000            100533d0     app.obj
 0002:000013d4       __real@43af0000            100533d4     app.obj
 0002:000013d8       __real@43e10000            100533d8     app.obj
 0002:000013dc       __real@44160000            100533dc     app.obj
 0002:000013e0       __real@461c4000            100533e0     app.obj
 0002:000013e4       __real@46800000            100533e4     app.obj
 0002:000013e8       __real@475ac000            100533e8     app.obj
 0002:000013ec       __real@47800000            100533ec     app.obj
 0002:000013f0       __real@47c35000            100533f0     app.obj
 0002:000013f4       __real@497423f0            100533f4     app.obj
 0002:000013f8       __real@bf000000            100533f8     app.obj
 0002:000013fc       __real@bf800000            100533fc     app.obj
 0002:00001400       __real@c0000000            10053400     app.obj
 0002:00001404       __real@c1d80000            10053404     app.obj
 0002:00001408       __real@c47a0000            10053408     app.obj
 0002:00001410       __xmm@00000000000000000000000000000000 10053410     app.obj
 0002:00001420       __xmm@3f8000003f8000003f8000003f800000 10053420     app.obj
 0002:00001430       __xmm@41f00000000000000000000000000000 10053430     app.obj
 0002:00001440       __xmm@7fffffffffffffff7fffffffffffffff 10053440     app.obj
 0002:00001450       __xmm@80000000000000008000000000000000 10053450     app.obj
 0002:00001460       __xmm@80000000800000008000000080000000 10053460     app.obj
 0002:000014f4       __pRawDllMain              100534f4     LIBCMTD:dll_dllmain.obj
 0002:000014f4       __pDefaultRawDllMain       100534f4     LIBCMTD:dll_dllmain.obj
 0002:00001500       __Microsoft_CRTProvider    10053500     libvcruntimed:telemetry.obj
 0002:00001504       ??_C@_00CNPNBAHC@?$AA@     10053504     libvcruntimed:telemetry.obj
 0002:00001508       ??_C@_11LOCGONAA@?$AA?$AA@ 10053508     libvcruntimed:telemetry.obj
 0002:0000150c       ??_C@_0O@JEOPJOMI@Main?5Invoked?4?$AA@ 1005350c     libvcruntimed:telemetry.obj
 0002:0000151c       ??_C@_0P@NEAEIBDO@Main?5Returned?4?$AA@ 1005351c     libvcruntimed:telemetry.obj
 0002:0000153c       ??_C@_1BC@DNHGCMLG@?$AAa?$AAd?$AAv?$AAa?$AAp?$AAi?$AA3?$AA2?$AA?$AA@ 1005353c     libvcruntimed:winapi_downlevel.obj
 0002:00001550       ??_C@_1DM@KHCHBNEB@?$AAa?$AAp?$AAi?$AA?9?$AAm?$AAs?$AA?9?$AAw?$AAi?$AAn?$AA?9?$AAc?$AAo?$AAr?$AAe?$AA?9?$AAf?$AAi?$AAb?$AAe?$AAr?$AAs?$AA?9?$AAl?$AA1?$AA?9?$AA1?$AA?9?$AA1?$AA?$AA@ 10053550     libvcruntimed:winapi_downlevel.obj
 0002:0000158c       ??_C@_1DK@LPPGFMPP@?$AAa?$AAp?$AAi?$AA?9?$AAm?$AAs?$AA?9?$AAw?$AAi?$AAn?$AA?9?$AAc?$AAo?$AAr?$AAe?$AA?9?$AAs?$AAy?$AAn?$AAc?$AAh?$AA?9?$AAl?$AA1?$AA?9?$AA2?$AA?9?$AA0?$AA?$AA@ 1005358c     libvcruntimed:winapi_downlevel.obj
 0002:000015c8       ??_C@_1BC@GDMECMAK@?$AAk?$AAe?$AAr?$AAn?$AAe?$AAl?$AA3?$AA2?$AA?$AA@ 100535c8     libvcruntimed:winapi_downlevel.obj
 0002:000015dc       ??_C@_17CNPHIMPH@?$AA?$CF?$AAl?$AAs?$AA?$AA@ 100535dc     libvcruntimed:winapi_downlevel.obj
 0002:000015e8       ??_C@_1EM@LBIFGLGH@?$AAc?$AAa?$AAc?$AAh?$AAe?$AAd?$AA_?$AAh?$AAa?$AAn?$AAd?$AAl?$AAe?$AA?5?$AA?$DN?$AA?$DN?$AA?5?$AAI?$AAN?$AAV?$AAA?$AAL?$AAI?$AAD?$AA_?$AAH?$AAA?$AAN?$AAD?$AAL?$AAE?$AA_@ 100535e8     libvcruntimed:winapi_downlevel.obj
 0002:00001638       ??_C@_1HM@FGPKDEPG@?$AAf?$AA?3?$AA?2?$AAd?$AAd?$AA?2?$AAv?$AAc?$AAt?$AAo?$AAo?$AAl?$AAs?$AA?2?$AAc?$AAr?$AAt?$AA?2?$AAv?$AAc?$AAr?$AAu?$AAn?$AAt?$AAi?$AAm?$AAe?$AA?2?$AAs?$AAr?$AAc?$AA?2@ 10053638     libvcruntimed:winapi_downlevel.obj
 0002:000016b4       ??_C@_1DI@MAHEDLDB@?$AAc?$AAa?$AAc?$AAh?$AAe?$AAd?$AA_?$AAh?$AAa?$AAn?$AAd?$AAl?$AAe?$AA?5?$AA?$DN?$AA?$DN?$AA?5?$AAn?$AAe?$AAw?$AA_?$AAh?$AAa?$AAn?$AAd?$AAl?$AAe?$AA?$AA@ 100536b4     libvcruntimed:winapi_downlevel.obj
 0002:000016f0       ??_C@_1FC@IBNCGNKL@?$AAc?$AAa?$AAc?$AAh?$AAe?$AAd?$AA_?$AAf?$AAp?$AA?5?$AA?$DN?$AA?$DN?$AA?5?$AAi?$AAn?$AAv?$AAa?$AAl?$AAi?$AAd?$AA_?$AAf?$AAu?$AAn?$AAc?$AAt?$AAi?$AAo?$AAn?$AA_?$AAs?$AAe@ 100536f0     libvcruntimed:winapi_downlevel.obj
 0002:00001744       ??_C@_1CI@GDJBAGLP@?$AAc?$AAa?$AAc?$AAh?$AAe?$AAd?$AA_?$AAf?$AAp?$AA?5?$AA?$DN?$AA?$DN?$AA?5?$AAn?$AAe?$AAw?$AA_?$AAf?$AAp?$AA?$AA@ 10053744     libvcruntimed:winapi_downlevel.obj
 0002:00001770       ??_C@_0O@BAMBGLIE@EventRegister?$AA@ 10053770     libvcruntimed:winapi_downlevel.obj
 0002:00001784       ??_C@_0BE@BJEEGHGK@EventSetInformation?$AA@ 10053784     libvcruntimed:winapi_downlevel.obj
 0002:0000179c       ??_C@_0BA@FAKLIPIC@EventUnregister?$AA@ 1005379c     libvcruntimed:winapi_downlevel.obj
 0002:000017b0       ??_C@_0BD@PKLHJPHD@EventWriteTransfer?$AA@ 100537b0     libvcruntimed:winapi_downlevel.obj
 0002:000017cc       ??_C@_08KNHFBNJ@FlsAlloc?$AA@ 100537cc     libvcruntimed:winapi_downlevel.obj
 0002:000017e0       ??_C@_07PEJMOBNF@FlsFree?$AA@ 100537e0     libvcruntimed:winapi_downlevel.obj
 0002:000017f0       ??_C@_0M@GDNOONDI@FlsGetValue?$AA@ 100537f0     libvcruntimed:winapi_downlevel.obj
 0002:00001804       ??_C@_0M@JCPCPOEF@FlsSetValue?$AA@ 10053804     libvcruntimed:winapi_downlevel.obj
 0002:00001818       ??_C@_0BM@HCFOFFN@InitializeCriticalSectionEx?$AA@ 10053818     libvcruntimed:winapi_downlevel.obj
 0002:00001834       ??_C@_0DN@JAECLCAP@f?3?2dd?2vctools?2crt?2vcruntime?2src?2@ 10053834     libvcruntimed:per_thread_data.obj
 0002:00001a08       ??_C@_08EHJDFFNH@__based?$CI?$AA@ 10053a08     libvcruntimed:undname.obj
 0002:00001a14       ??_C@_07KOLFKCDI@__cdecl?$AA@ 10053a14     libvcruntimed:undname.obj
 0002:00001a1c       ??_C@_08GHMPAG@__pascal?$AA@ 10053a1c     libvcruntimed:undname.obj
 0002:00001a28       ??_C@_09IFJBGAPI@__stdcall?$AA@ 10053a28     libvcruntimed:undname.obj
 0002:00001a34       ??_C@_0L@NPHFGOKO@__thiscall?$AA@ 10053a34     libvcruntimed:undname.obj
 0002:00001a40       ??_C@_0L@JMKHOMEK@__fastcall?$AA@ 10053a40     libvcruntimed:undname.obj
 0002:00001a4c       ??_C@_0N@BCKKPABJ@__vectorcall?$AA@ 10053a4c     libvcruntimed:undname.obj
 0002:00001a5c       ??_C@_09HIJEGCPM@__clrcall?$AA@ 10053a5c     libvcruntimed:undname.obj
 0002:00001a68       ??_C@_06GHPCKEAG@__eabi?$AA@ 10053a68     libvcruntimed:undname.obj
 0002:00001a70       ??_C@_07JOMMBBKO@__ptr64?$AA@ 10053a70     libvcruntimed:undname.obj
 0002:00001a78       ??_C@_0L@PILCLIHE@__restrict?$AA@ 10053a78     libvcruntimed:undname.obj
 0002:00001a84       ??_C@_0M@GFIIJFMG@__unaligned?$AA@ 10053a84     libvcruntimed:undname.obj
 0002:00001a90       ??_C@_09DHDLOLLB@restrict?$CI?$AA@ 10053a90     libvcruntimed:undname.obj
 0002:00001a9c       ??_C@_04NIHEBCM@?5new?$AA@ 10053a9c     libvcruntimed:undname.obj
 0002:00001aa4       ??_C@_07FPCDHGMM@?5delete?$AA@ 10053aa4     libvcruntimed:undname.obj
 0002:00001aac       ??_C@_01NEMOKFLO@?$DN?$AA@ 10053aac     libvcruntimed:undname.obj
 0002:00001ab0       ??_C@_02GPIOPFAK@?$DO?$DO?$AA@ 10053ab0     libvcruntimed:undname.obj
 0002:00001ab4       ??_C@_02FODMEDOG@?$DM?$DM?$AA@ 10053ab4     libvcruntimed:undname.obj
 0002:00001ab8       ??_C@_01DCLJPIOD@?$CB?$AA@ 10053ab8     libvcruntimed:undname.obj
 0002:00001abc       ??_C@_02EGOFBIJA@?$DN?$DN?$AA@ 10053abc     libvcruntimed:undname.obj
 0002:00001ac0       ??_C@_02FDNJECIE@?$CB?$DN?$AA@ 10053ac0     libvcruntimed:undname.obj
 0002:00001ac4       ??_C@_02GPECMEKF@?$FL?$FN?$AA@ 10053ac4     libvcruntimed:undname.obj
 0002:00001ac8       ??_C@_08LHJFAFGD@operator?$AA@ 10053ac8     libvcruntimed:undname.obj
 0002:00001ad4       ??_C@_02HBOOOICD@?9?$DO?$AA@ 10053ad4     libvcruntimed:undname.obj
 0002:00001ad8       ??_C@_01NBENCBCI@?$CK?$AA@ 10053ad8     libvcruntimed:undname.obj
 0002:00001adc       ??_C@_02ECNGHCIF@?$CL?$CL?$AA@ 10053adc     libvcruntimed:undname.obj
 0002:00001ae0       ??_C@_02BAABKJLB@?9?9?$AA@ 10053ae0     libvcruntimed:undname.obj
 0002:00001ae4       ??_C@_01JOAMLHOP@?9?$AA@   10053ae4     libvcruntimed:undname.obj
 0002:00001ae8       ??_C@_01MIFGBAGJ@?$CL?$AA@ 10053ae8     libvcruntimed:undname.obj
 0002:00001aec       ??_C@_01HNPIGOCE@?$CG?$AA@ 10053aec     libvcruntimed:undname.obj
 0002:00001af0       ??_C@_03MNHNFDLC@?9?$DO?$CK?$AA@ 10053af0     libvcruntimed:undname.obj
 0002:00001af4       ??_C@_01KMDKNFGN@?1?$AA@   10053af4     libvcruntimed:undname.obj
 0002:00001af8       ??_C@_01FGNFDNOH@?$CF?$AA@ 10053af8     libvcruntimed:undname.obj
 0002:00001afc       ??_C@_01MNNFJEPP@?$DM?$AA@ 10053afc     libvcruntimed:undname.obj
 0002:00001b00       ??_C@_02EHCHHCKH@?$DM?$DN?$AA@ 10053b00     libvcruntimed:undname.obj
 0002:00001b04       ??_C@_01PPODPGHN@?$DO?$AA@ 10053b04     libvcruntimed:undname.obj
 0002:00001b08       ??_C@_02EEKDKGMJ@?$DO?$DN?$AA@ 10053b08     libvcruntimed:undname.obj
 0002:00001b0c       ??_C@_01IHBHIGKO@?0?$AA@   10053b0c     libvcruntimed:undname.obj
 0002:00001b10       ??_C@_02HCKGKOFO@?$CI?$CJ?$AA@ 10053b10     libvcruntimed:undname.obj
 0002:00001b14       ??_C@_01PJKLJHI@?$HO?$AA@  10053b14     libvcruntimed:undname.obj
 0002:00001b18       ??_C@_01JKBOJNNK@?$FO?$AA@ 10053b18     libvcruntimed:undname.obj
 0002:00001b1c       ??_C@_01DNKMNLPK@?$HM?$AA@ 10053b1c     libvcruntimed:undname.obj
 0002:00001b20       ??_C@_02PPKAJPJL@?$CG?$CG?$AA@ 10053b20     libvcruntimed:undname.obj
 0002:00001b24       ??_C@_02NONPIBCD@?$HM?$HM?$AA@ 10053b24     libvcruntimed:undname.obj
 0002:00001b28       ??_C@_02FPIMKNGF@?$CK?$DN?$AA@ 10053b28     libvcruntimed:undname.obj
 0002:00001b2c       ??_C@_02FOEOMHFC@?$CL?$DN?$AA@ 10053b2c     libvcruntimed:undname.obj
 0002:00001b30       ??_C@_02FKMDLLOA@?9?$DN?$AA@ 10053b30     libvcruntimed:undname.obj
 0002:00001b34       ??_C@_02FJEHGPIO@?1?$DN?$AA@ 10053b34     libvcruntimed:undname.obj
 0002:00001b38       ??_C@_02FENAOKFI@?$CF?$DN?$AA@ 10053b38     libvcruntimed:undname.obj
 0002:00001b3c       ??_C@_03IKFCCPFF@?$DO?$DO?$DN?$AA@ 10053b3c     libvcruntimed:undname.obj
 0002:00001b40       ??_C@_03CDNPDDLA@?$DM?$DM?$DN?$AA@ 10053b40     libvcruntimed:undname.obj
 0002:00001b44       ??_C@_02FGJGFEAB@?$CG?$DN?$AA@ 10053b44     libvcruntimed:undname.obj
 0002:00001b48       ??_C@_02DHLNPPGH@?$HM?$DN?$AA@ 10053b48     libvcruntimed:undname.obj
 0002:00001b4c       ??_C@_02MHEGNOJ@?$FO?$DN?$AA@ 10053b4c     libvcruntimed:undname.obj
 0002:00001b50       ??_C@_09IFPLHPGF@?$GAvftable?8?$AA@ 10053b50     libvcruntimed:undname.obj
 0002:00001b5c       ??_C@_09BLBHBJP@?$GAvbtable?8?$AA@ 10053b5c     libvcruntimed:undname.obj
 0002:00001b68       ??_C@_07FEEIOKP@?$GAvcall?8?$AA@ 10053b68     libvcruntimed:undname.obj
 0002:00001b70       ??_C@_08LLFFHHDJ@?$GAtypeof?8?$AA@ 10053b70     libvcruntimed:undname.obj
 0002:00001b7c       ??_C@_0BF@KDPPACIK@?$GAlocal?5static?5guard?8?$AA@ 10053b7c     libvcruntimed:undname.obj
 0002:00001b94       ??_C@_08OBABFOLI@?$GAstring?8?$AA@ 10053b94     libvcruntimed:undname.obj
 0002:00001ba0       ??_C@_0BD@JDLKDPAB@?$GAvbase?5destructor?8?$AA@ 10053ba0     libvcruntimed:undname.obj
 0002:00001bb4       ??_C@_0BN@DEGPLNFK@?$GAvector?5deleting?5destructor?8?$AA@ 10053bb4     libvcruntimed:undname.obj
 0002:00001bd4       ??_C@_0BO@OBMKPJIG@?$GAdefault?5constructor?5closure?8?$AA@ 10053bd4     libvcruntimed:undname.obj
 0002:00001bf4       ??_C@_0BN@IMDCHIKM@?$GAscalar?5deleting?5destructor?8?$AA@ 10053bf4     libvcruntimed:undname.obj
 0002:00001c14       ??_C@_0BO@PFGOCPJJ@?$GAvector?5constructor?5iterator?8?$AA@ 10053c14     libvcruntimed:undname.obj
 0002:00001c34       ??_C@_0BN@LFPFMEDL@?$GAvector?5destructor?5iterator?8?$AA@ 10053c34     libvcruntimed:undname.obj
 0002:00001c54       ??_C@_0CE@IKBNEHA@?$GAvector?5vbase?5constructor?5iterat@ 10053c54     libvcruntimed:undname.obj
 0002:00001c78       ??_C@_0BL@NILFHHPC@?$GAvirtual?5displacement?5map?8?$AA@ 10053c78     libvcruntimed:undname.obj
 0002:00001c94       ??_C@_0CB@JONCMFFK@?$GAeh?5vector?5constructor?5iterator?8@ 10053c94     libvcruntimed:undname.obj
 0002:00001cb8       ??_C@_0CA@GCEOPDGL@?$GAeh?5vector?5destructor?5iterator?8?$AA@ 10053cb8     libvcruntimed:undname.obj
 0002:00001cd8       ??_C@_0CH@OOJPLCPH@?$GAeh?5vector?5vbase?5constructor?5ite@ 10053cd8     libvcruntimed:undname.obj
 0002:00001d00       ??_C@_0BL@LLKPOHJI@?$GAcopy?5constructor?5closure?8?$AA@ 10053d00     libvcruntimed:undname.obj
 0002:00001d1c       ??_C@_0BA@KBCDOMBN@?$GAudt?5returning?8?$AA@ 10053d1c     libvcruntimed:undname.obj
 0002:00001d2c       ??_C@_03KLGMFNMG@?$GAEH?$AA@ 10053d2c     libvcruntimed:undname.obj
 0002:00001d30       ??_C@_05KHLCHHI@?$GARTTI?$AA@ 10053d30     libvcruntimed:undname.obj
 0002:00001d38       ??_C@_0BA@KKLDJDLB@?$GAlocal?5vftable?8?$AA@ 10053d38     libvcruntimed:undname.obj
 0002:00001d48       ??_C@_0CE@IIHCMGGL@?$GAlocal?5vftable?5constructor?5closu@ 10053d48     libvcruntimed:undname.obj
 0002:00001d6c       ??_C@_06FHBGPFGH@?5new?$FL?$FN?$AA@ 10053d6c     libvcruntimed:undname.obj
 0002:00001d74       ??_C@_09LBNFPBCA@?5delete?$FL?$FN?$AA@ 10053d74     libvcruntimed:undname.obj
 0002:00001d80       ??_C@_0P@HJKNJFNN@?$GAomni?5callsig?8?$AA@ 10053d80     libvcruntimed:undname.obj
 0002:00001d90       ??_C@_0BL@CNOONJFP@?$GAplacement?5delete?5closure?8?$AA@ 10053d90     libvcruntimed:undname.obj
 0002:00001dac       ??_C@_0BN@CKNJLHMB@?$GAplacement?5delete?$FL?$FN?5closure?8?$AA@ 10053dac     libvcruntimed:undname.obj
 0002:00001dcc       ??_C@_0CG@CFDHKGGD@?$GAmanaged?5vector?5constructor?5iter@ 10053dcc     libvcruntimed:undname.obj
 0002:00001df4       ??_C@_0CF@IMGKMJNO@?$GAmanaged?5vector?5destructor?5itera@ 10053df4     libvcruntimed:undname.obj
 0002:00001e1c       ??_C@_0CG@HLDDJMAG@?$GAeh?5vector?5copy?5constructor?5iter@ 10053e1c     libvcruntimed:undname.obj
 0002:00001e44       ??_C@_0CM@FCBBDIGB@?$GAeh?5vector?5vbase?5copy?5constructo@ 10053e44     libvcruntimed:undname.obj
 0002:00001e70       ??_C@_0BL@CLIPGLGB@?$GAdynamic?5initializer?5for?5?8?$AA@ 10053e70     libvcruntimed:undname.obj
 0002:00001e8c       ??_C@_0CB@PDBIFEP@?$GAdynamic?5atexit?5destructor?5for?5?8@ 10053e8c     libvcruntimed:undname.obj
 0002:00001eb0       ??_C@_0CD@CGAJBKEJ@?$GAvector?5copy?5constructor?5iterato@ 10053eb0     libvcruntimed:undname.obj
 0002:00001ed4       ??_C@_0CJ@GJELGAMM@?$GAvector?5vbase?5copy?5constructor?5i@ 10053ed4     libvcruntimed:undname.obj
 0002:00001f00       ??_C@_0CL@FGIJHLCE@?$GAmanaged?5vector?5copy?5constructor@ 10053f00     libvcruntimed:undname.obj
 0002:00001f2c       ??_C@_0BM@PMGGMLDN@?$GAlocal?5static?5thread?5guard?8?$AA@ 10053f2c     libvcruntimed:undname.obj
 0002:00001f48       ??_C@_0N@BDNMDMOL@operator?5?$CC?$CC?5?$AA@ 10053f48     libvcruntimed:undname.obj
 0002:00001f58       ??_C@_0BC@DAFEJGAK@?5Type?5Descriptor?8?$AA@ 10053f58     libvcruntimed:undname.obj
 0002:00001f6c       ??_C@_0BM@LDKODKLH@?5Base?5Class?5Descriptor?5at?5?$CI?$AA@ 10053f6c     libvcruntimed:undname.obj
 0002:00001f88       ??_C@_0BD@LGICGFMM@?5Base?5Class?5Array?8?$AA@ 10053f88     libvcruntimed:undname.obj
 0002:00001f9c       ??_C@_0BN@MECKDCOJ@?5Class?5Hierarchy?5Descriptor?8?$AA@ 10053f9c     libvcruntimed:undname.obj
 0002:00001fbc       ??_C@_0BK@CFCOFLF@?5Complete?5Object?5Locator?8?$AA@ 10053fbc     libvcruntimed:undname.obj
 0002:00001fd8       ??_C@_1EK@MBDPDCGA@?$AAM?$AAi?$AAc?$AAr?$AAo?$AAs?$AAo?$AAf?$AAt?$AA?5?$AAV?$AAi?$AAs?$AAu?$AAa?$AAl?$AA?5?$AAC?$AA?$CL?$AA?$CL?$AA?5?$AAR?$AAu?$AAn?$AAt?$AAi?$AAm?$AAe?$AA?5?$AAL?$AAi?$AAb@ 10053fd8     libucrtd:assert.obj
 0002:00002028       ??_C@_1FE@LHBLIKM@?$AAA?$AAs?$AAs?$AAe?$AAr?$AAt?$AAi?$AAo?$AAn?$AA?5?$AAf?$AAa?$AAi?$AAl?$AAe?$AAd?$AA?3?$AA?5?$AA?$CF?$AAT?$AAs?$AA?0?$AA?5?$AAf?$AAi?$AAl?$AAe?$AA?5?$AA?$CF?$AAT?$AAs?$AA?0@ 10054028     libucrtd:assert.obj
 0002:0000207c       ??_C@_0BC@LAIDCHCH@Assertion?5failed?$CB?$AA@ 1005407c     libucrtd:assert.obj
 0002:00002090       ??_C@_1CE@OJBNHDMO@?$AAA?$AAs?$AAs?$AAe?$AAr?$AAt?$AAi?$AAo?$AAn?$AA?5?$AAf?$AAa?$AAi?$AAl?$AAe?$AAd?$AA?$CB?$AA?$AA@ 10054090     libucrtd:assert.obj
 0002:000020b4       ??_C@_1BE@PHKBBGE@?$AAP?$AAr?$AAo?$AAg?$AAr?$AAa?$AAm?$AA?3?$AA?5?$AA?$AA@ 100540b4     libucrtd:assert.obj
 0002:000020c8       ??_C@_1O@HEMHKNDC@?$AAF?$AAi?$AAl?$AAe?$AA?3?$AA?5?$AA?$AA@ 100540c8     libucrtd:assert.obj
 0002:000020d8       ??_C@_1O@KCAFKHJE@?$AAL?$AAi?$AAn?$AAe?$AA?3?$AA?5?$AA?$AA@ 100540d8     libucrtd:assert.obj
 0002:000020e8       ??_C@_1BK@PEDCIPMA@?$AAE?$AAx?$AAp?$AAr?$AAe?$AAs?$AAs?$AAi?$AAo?$AAn?$AA?3?$AA?5?$AA?$AA@ 100540e8     libucrtd:assert.obj
 0002:00002108       ??_C@_1OA@EGMLFBHJ@?$AAF?$AAo?$AAr?$AA?5?$AAi?$AAn?$AAf?$AAo?$AAr?$AAm?$AAa?$AAt?$AAi?$AAo?$AAn?$AA?5?$AAo?$AAn?$AA?5?$AAh?$AAo?$AAw?$AA?5?$AAy?$AAo?$AAu?$AAr?$AA?5?$AAp?$AAr?$AAo?$AAg@ 10054108     libucrtd:assert.obj
 0002:000021e8       ??_C@_1HK@POCJMFGK@?$AA?$CI?$AAP?$AAr?$AAe?$AAs?$AAs?$AA?5?$AAR?$AAe?$AAt?$AAr?$AAy?$AA?5?$AAt?$AAo?$AA?5?$AAd?$AAe?$AAb?$AAu?$AAg?$AA?5?$AAt?$AAh?$AAe?$AA?5?$AAa?$AAp?$AAp?$AAl?$AAi?$AAc@ 100541e8     libucrtd:assert.obj
 0002:00002264       ??_C@_17LGKOMLJ@?$AA?4?$AA?4?$AA?4?$AA?$AA@ 10054264     libucrtd:assert.obj
 0002:0000226c       ??_C@_01EEMJAFIK@?6?$AA@   1005426c     libucrtd:assert.obj
 0002:00002270       ??_C@_13LBAGMAIH@?$AA?6?$AA?$AA@ 10054270     libucrtd:assert.obj
 0002:00002274       ??_C@_15IABLJNFO@?$AA?6?$AA?6?$AA?$AA@ 10054274     libucrtd:assert.obj
 0002:0000227c       ??_C@_0BH@DNAGHKFM@?$DMprogram?5name?5unknown?$DO?$AA@ 1005427c     libucrtd:assert.obj
 0002:00002294       ??_C@_1CO@EAEJAADC@?$AA?$DM?$AAp?$AAr?$AAo?$AAg?$AAr?$AAa?$AAm?$AA?5?$AAn?$AAa?$AAm?$AAe?$AA?5?$AAu?$AAn?$AAk?$AAn?$AAo?$AAw?$AAn?$AA?$DO?$AA?$AA@ 10054294     libucrtd:assert.obj
 0002:000022c8       ??_C@_1GE@PMLOPPED@?$AAm?$AAi?$AAn?$AAk?$AAe?$AAr?$AAn?$AAe?$AAl?$AA?2?$AAc?$AAr?$AAt?$AAs?$AA?2?$AAu?$AAc?$AAr?$AAt?$AA?2?$AAs?$AAr?$AAc?$AA?2?$AAa?$AAp?$AAp?$AAc?$AAr?$AAt?$AA?2?$AAs@ 100542c8     libucrtd:assert.obj
 0002:00002330       ??_C@_1FE@LPBNNEBB@?$AAc?$AAo?$AAm?$AAm?$AAo?$AAn?$AA_?$AAa?$AAs?$AAs?$AAe?$AAr?$AAt?$AA_?$AAt?$AAo?$AA_?$AAm?$AAe?$AAs?$AAs?$AAa?$AAg?$AAe?$AA_?$AAb?$AAo?$AAx?$AA_?$AAb?$AAu?$AAi@ 10054330     libucrtd:assert.obj
 0002:00002388       ??_C@_1KC@PIMENJIN@?$AAt?$AAr?$AAa?$AAi?$AAt?$AAs?$AA?3?$AA?3?$AAt?$AAc?$AAs?$AAc?$AAp?$AAy?$AA_?$AAs?$AA?$CI?$AAa?$AAs?$AAs?$AAe?$AAr?$AAt?$AA_?$AAb?$AAu?$AAf?$AAf?$AAe?$AAr?$AA?0?$AA?5@ 10054388     libucrtd:assert.obj
 0002:00002430       ??_C@_1KM@HGCBPADM@?$AAt?$AAr?$AAa?$AAi?$AAt?$AAs?$AA?3?$AA?3?$AAt?$AAc?$AAs?$AAc?$AAa?$AAt?$AA_?$AAs?$AA?$CI?$AAa?$AAs?$AAs?$AAe?$AAr?$AAt?$AA_?$AAb?$AAu?$AAf?$AAf?$AAe?$AAr?$AA?0?$AA?5@ 10054430     libucrtd:assert.obj
 0002:000024e0       ??_C@_1KK@KDENILFB@?$AAt?$AAr?$AAa?$AAi?$AAt?$AAs?$AA?3?$AA?3?$AAt?$AAc?$AAs?$AAc?$AAa?$AAt?$AA_?$AAs?$AA?$CI?$AAa?$AAs?$AAs?$AAe?$AAr?$AAt?$AA_?$AAb?$AAu?$AAf?$AAf?$AAe?$AAr?$AA?0?$AA?5@ 100544e0     libucrtd:assert.obj
 0002:00002590       ??_C@_1PE@ECNALGCA@?$AAt?$AAr?$AAa?$AAi?$AAt?$AAs?$AA?3?$AA?3?$AAt?$AAc?$AAs?$AAc?$AAp?$AAy?$AA_?$AAs?$AA?$CI?$AAp?$AAr?$AAo?$AAg?$AAr?$AAa?$AAm?$AA_?$AAn?$AAa?$AAm?$AAe?$AA?0?$AA?5?$AA?$CI@ 10054590     libucrtd:assert.obj
 0002:00002688       ??_C@_1BBM@BCEFIAB@?$AAm?$AAe?$AAm?$AAc?$AAp?$AAy?$AA_?$AAs?$AA?$CI?$AA?5?$AAp?$AAc?$AAh?$AA?0?$AA?5?$AAs?$AAi?$AAz?$AAe?$AAo?$AAf?$AA?$CI?$AAC?$AAh?$AAa?$AAr?$AAa?$AAc?$AAt?$AAe?$AAr?$AA?$CJ@ 10054688     libucrtd:assert.obj
 0002:000027a8       ??_C@_1HE@CDLKDPFH@?$AAt?$AAr?$AAa?$AAi?$AAt?$AAs?$AA?3?$AA?3?$AAt?$AAc?$AAs?$AAc?$AAa?$AAt?$AA_?$AAs?$AA?$CI?$AAa?$AAs?$AAs?$AAe?$AAr?$AAt?$AA_?$AAb?$AAu?$AAf?$AAf?$AAe?$AAr?$AA?0?$AA?5@ 100547a8     libucrtd:assert.obj
 0002:00002820       ??_C@_1JO@KJEGDHLC@?$AAt?$AAr?$AAa?$AAi?$AAt?$AAs?$AA?3?$AA?3?$AAt?$AAc?$AAs?$AAc?$AAa?$AAt?$AA_?$AAs?$AA?$CI?$AAa?$AAs?$AAs?$AAe?$AAr?$AAt?$AA_?$AAb?$AAu?$AAf?$AAf?$AAe?$AAr?$AA?0?$AA?5@ 10054820     libucrtd:assert.obj
 0002:000028c0       ??_C@_1KE@NJCNOBGA@?$AAt?$AAr?$AAa?$AAi?$AAt?$AAs?$AA?3?$AA?3?$AAt?$AAc?$AAs?$AAc?$AAa?$AAt?$AA_?$AAs?$AA?$CI?$AAa?$AAs?$AAs?$AAe?$AAr?$AAt?$AA_?$AAb?$AAu?$AAf?$AAf?$AAe?$AAr?$AA?0?$AA?5@ 100548c0     libucrtd:assert.obj
 0002:00002968       ??_C@_1LC@HKLLCKBM@?$AAt?$AAr?$AAa?$AAi?$AAt?$AAs?$AA?3?$AA?3?$AAt?$AAc?$AAs?$AAn?$AAc?$AAa?$AAt?$AA_?$AAs?$AA?$CI?$AAa?$AAs?$AAs?$AAe?$AAr?$AAt?$AA_?$AAb?$AAu?$AAf?$AAf?$AAe?$AAr?$AA?0@ 10054968     libucrtd:assert.obj
 0002:00002a20       ??_C@_1KI@JBNHIIKF@?$AAt?$AAr?$AAa?$AAi?$AAt?$AAs?$AA?3?$AA?3?$AAt?$AAc?$AAs?$AAc?$AAa?$AAt?$AA_?$AAs?$AA?5?$AA?$CI?$AAa?$AAs?$AAs?$AAe?$AAr?$AAt?$AA_?$AAb?$AAu?$AAf?$AAf?$AAe?$AAr?$AA?0@ 10054a20     libucrtd:assert.obj
 0002:00002ac8       ??_C@_1IK@KKBPPOFO@?$AAt?$AAr?$AAa?$AAi?$AAt?$AAs?$AA?3?$AA?3?$AAt?$AAc?$AAs?$AAc?$AAa?$AAt?$AA_?$AAs?$AA?5?$AA?$CI?$AAa?$AAs?$AAs?$AAe?$AAr?$AAt?$AA_?$AAb?$AAu?$AAf?$AAf?$AAe?$AAr?$AA?0@ 10054ac8     libucrtd:assert.obj
 0002:00002b58       ??_C@_1LO@BFIEBOKI@?$AAt?$AAr?$AAa?$AAi?$AAt?$AAs?$AA?3?$AA?3?$AAt?$AAc?$AAs?$AAn?$AAc?$AAa?$AAt?$AA_?$AAs?$AA?$CI?$AAa?$AAs?$AAs?$AAe?$AAr?$AAt?$AA_?$AAb?$AAu?$AAf?$AAf?$AAe?$AAr?$AA?0@ 10054b58     libucrtd:assert.obj
 0002:00002c18       ??_C@_1KE@OEANDPDB@?$AAt?$AAr?$AAa?$AAi?$AAt?$AAs?$AA?3?$AA?3?$AAt?$AAc?$AAs?$AAn?$AAc?$AAa?$AAt?$AA_?$AAs?$AA?$CI?$AAa?$AAs?$AAs?$AAe?$AAr?$AAt?$AA_?$AAb?$AAu?$AAf?$AAf?$AAe?$AAr?$AA?0@ 10054c18     libucrtd:assert.obj
 0002:00002cc0       ??_C@_1LG@LMABGFBP@?$AAt?$AAr?$AAa?$AAi?$AAt?$AAs?$AA?3?$AA?3?$AAt?$AAc?$AAs?$AAc?$AAa?$AAt?$AA_?$AAs?$AA?5?$AA?$CI?$AAa?$AAs?$AAs?$AAe?$AAr?$AAt?$AA_?$AAb?$AAu?$AAf?$AAf?$AAe?$AAr?$AA?0@ 10054cc0     libucrtd:assert.obj
 0002:00002d78       ??_C@_1IA@JPAKIPAA@?$AAt?$AAr?$AAa?$AAi?$AAt?$AAs?$AA?3?$AA?3?$AAt?$AAc?$AAs?$AAc?$AAa?$AAt?$AA_?$AAs?$AA?$CI?$AAa?$AAs?$AAs?$AAe?$AAr?$AAt?$AA_?$AAb?$AAu?$AAf?$AAf?$AAe?$AAr?$AA?0?$AA?5@ 10054d78     libucrtd:assert.obj
 0002:00002df8       ??_C@_1KE@PADDJOL@?$AAt?$AAr?$AAa?$AAi?$AAt?$AAs?$AA?3?$AA?3?$AAt?$AAc?$AAs?$AAc?$AAa?$AAt?$AA_?$AAs?$AA?$CI?$AAa?$AAs?$AAs?$AAe?$AAr?$AAt?$AA_?$AAb?$AAu?$AAf?$AAf?$AAe?$AAr?$AA?0?$AA?5@ 10054df8     libucrtd:assert.obj
 0002:00002ea0       ??_C@_1BAK@NPHNFBPH@?$AAt?$AAr?$AAa?$AAi?$AAt?$AAs?$AA?3?$AA?3?$AAi?$AAt?$AAo?$AAt?$AA_?$AAs?$AA?$CI?$AA?5?$AAl?$AAi?$AAn?$AAe?$AA_?$AAn?$AAu?$AAm?$AAb?$AAe?$AAr?$AA?0?$AA?5?$AAa?$AAs?$AAs@ 10054ea0     libucrtd:assert.obj
 0002:00002fb0       ??_C@_1LA@JOKMAPHG@?$AAt?$AAr?$AAa?$AAi?$AAt?$AAs?$AA?3?$AA?3?$AAt?$AAc?$AAs?$AAc?$AAa?$AAt?$AA_?$AAs?$AA?$CI?$AAa?$AAs?$AAs?$AAe?$AAr?$AAt?$AA_?$AAb?$AAu?$AAf?$AAf?$AAe?$AAr?$AA?0?$AA?5@ 10054fb0     libucrtd:assert.obj
 0002:00003060       ??_C@_1LA@IFFOJJCK@?$AAt?$AAr?$AAa?$AAi?$AAt?$AAs?$AA?3?$AA?3?$AAt?$AAc?$AAs?$AAn?$AAc?$AAa?$AAt?$AA_?$AAs?$AA?$CI?$AA?5?$AAa?$AAs?$AAs?$AAe?$AAr?$AAt?$AA_?$AAb?$AAu?$AAf?$AAf?$AAe?$AAr@ 10055060     libucrtd:assert.obj
 0002:00003110       ??_C@_1KG@MFCBNPOK@?$AAt?$AAr?$AAa?$AAi?$AAt?$AAs?$AA?3?$AA?3?$AAt?$AAc?$AAs?$AAc?$AAa?$AAt?$AA_?$AAs?$AA?$CI?$AAa?$AAs?$AAs?$AAe?$AAr?$AAt?$AA_?$AAb?$AAu?$AAf?$AAf?$AAe?$AAr?$AA?0?$AA?5@ 10055110     libucrtd:assert.obj
 0002:000031b8       ??_C@_1IC@EDHOAOJ@?$AAt?$AAr?$AAa?$AAi?$AAt?$AAs?$AA?3?$AA?3?$AAt?$AAc?$AAs?$AAc?$AAa?$AAt?$AA_?$AAs?$AA?$CI?$AAa?$AAs?$AAs?$AAe?$AAr?$AAt?$AA_?$AAb?$AAu?$AAf?$AAf?$AAe?$AAr?$AA?0?$AA?5@ 100551b8     libucrtd:assert.obj
 0002:00003240       ??_C@_1KE@NALOKOIG@?$AAt?$AAr?$AAa?$AAi?$AAt?$AAs?$AA?3?$AA?3?$AAt?$AAc?$AAs?$AAc?$AAa?$AAt?$AA_?$AAs?$AA?$CI?$AAa?$AAs?$AAs?$AAe?$AAr?$AAt?$AA_?$AAb?$AAu?$AAf?$AAf?$AAe?$AAr?$AA?0?$AA?5@ 10055240     libucrtd:assert.obj
 0002:000032e8       ??_C@_1KE@GGOFBC@?$AAt?$AAr?$AAa?$AAi?$AAt?$AAs?$AA?3?$AA?3?$AAt?$AAc?$AAs?$AAc?$AAa?$AAt?$AA_?$AAs?$AA?$CI?$AAa?$AAs?$AAs?$AAe?$AAr?$AAt?$AA_?$AAb?$AAu?$AAf?$AAf?$AAe?$AAr?$AA?0?$AA?5@ 100552e8     libucrtd:assert.obj
 0002:00003390       __OP_FMODjmptab            10055390     libucrtd:87fmod.obj
 0002:00003898       ??_C@_03KHJOGHMM@exp?$AA@  10055898     libucrtd:fpexcept.obj
 0002:0000389c       ??_C@_03JGHBODFD@pow?$AA@  1005589c     libucrtd:fpexcept.obj
 0002:000038a0       ??_C@_03MGHMBJCF@log?$AA@  100558a0     libucrtd:fpexcept.obj
 0002:000038a4       ??_C@_05HGHHAHAP@log10?$AA@ 100558a4     libucrtd:fpexcept.obj
 0002:000038ac       ??_C@_04COOMCNPB@sinh?$AA@ 100558ac     libucrtd:fpexcept.obj
 0002:000038b4       ??_C@_04HPJJNFIM@cosh?$AA@ 100558b4     libucrtd:fpexcept.obj
 0002:000038bc       ??_C@_04FJHINJAO@tanh?$AA@ 100558bc     libucrtd:fpexcept.obj
 0002:000038c4       ??_C@_04FIHNOPOL@asin?$AA@ 100558c4     libucrtd:fpexcept.obj
 0002:000038cc       ??_C@_04PDIFKINK@acos?$AA@ 100558cc     libucrtd:fpexcept.obj
 0002:000038d4       ??_C@_04MLLJIGOK@atan?$AA@ 100558d4     libucrtd:fpexcept.obj
 0002:000038dc       ??_C@_05KNGEOGJB@atan2?$AA@ 100558dc     libucrtd:fpexcept.obj
 0002:000038e4       ??_C@_04EIAKFFMI@sqrt?$AA@ 100558e4     libucrtd:fpexcept.obj
 0002:000038ec       ??_C@_03BLEJJJBH@sin?$AA@  100558ec     libucrtd:fpexcept.obj
 0002:000038f0       ??_C@_03LALBNOCG@cos?$AA@  100558f0     libucrtd:fpexcept.obj
 0002:000038f4       ??_C@_03IIINPABG@tan?$AA@  100558f4     libucrtd:fpexcept.obj
 0002:000038f8       ??_C@_04GFPJNGEK@ceil?$AA@ 100558f8     libucrtd:fpexcept.obj
 0002:00003900       ??_C@_05PBJFFIGL@floor?$AA@ 10055900     libucrtd:fpexcept.obj
 0002:00003908       ??_C@_04ODHECPBC@fabs?$AA@ 10055908     libucrtd:fpexcept.obj
 0002:00003910       ??_C@_04EHEDPDJG@modf?$AA@ 10055910     libucrtd:fpexcept.obj
 0002:00003918       ??_C@_05CEJMAHNP@ldexp?$AA@ 10055918     libucrtd:fpexcept.obj
 0002:00003920       ??_C@_05KBKMEMPO@_cabs?$AA@ 10055920     libucrtd:fpexcept.obj
 0002:00003928       ??_C@_06MEIMCGCF@_hypot?$AA@ 10055928     libucrtd:fpexcept.obj
 0002:00003930       ??_C@_04KEPJIHGP@fmod?$AA@ 10055930     libucrtd:fpexcept.obj
 0002:00003938       ??_C@_05GKKHEGJL@frexp?$AA@ 10055938     libucrtd:fpexcept.obj
 0002:00003940       ??_C@_03MJLDFKDL@_y0?$AA@  10055940     libucrtd:fpexcept.obj
 0002:00003944       ??_C@_03NAKIGLHK@_y1?$AA@  10055944     libucrtd:fpexcept.obj
 0002:00003948       ??_C@_03ONILCKOB@_yn?$AA@  10055948     libucrtd:fpexcept.obj
 0002:0000394c       ??_C@_05JGDBENOH@_logb?$AA@ 1005594c     libucrtd:fpexcept.obj
 0002:00003954       ??_C@_0L@KDOEJCKC@_nextafter?$AA@ 10055954     libucrtd:fpexcept.obj
 0002:00003960       ___acrt_exception_action_table 10055960     libucrtd:exception_filter.obj
 0002:000039f0       ___acrt_signal_action_table_count 100559f0     libucrtd:exception_filter.obj
 0002:000039f4       ___acrt_signal_action_first_fpe_index 100559f4     libucrtd:exception_filter.obj
 0002:000039f8       ___acrt_signal_action_fpe_count 100559f8     libucrtd:exception_filter.obj
 0002:000039fc       ??_C@_1BI@BGOHAHKC@?$AAm?$AAs?$AAc?$AAo?$AAr?$AAe?$AAe?$AA?4?$AAd?$AAl?$AAl?$AA?$AA@ 100559fc     libucrtd:exit.obj
 0002:00003a14       ??_C@_0P@MIGLKIOC@CorExitProcess?$AA@ 10055a14     libucrtd:exit.obj
 0002:00003a28       ??_C@_0EG@LEHKHOEH@minkernel?2crts?2ucrt?2src?2desktopc@ 10055a28     libucrtd:environment_initialization.obj
 0002:00003a70       ??_C@_1IM@IMOFFPLG@?$AAm?$AAi?$AAn?$AAk?$AAe?$AAr?$AAn?$AAe?$AAl?$AA?2?$AAc?$AAr?$AAt?$AAs?$AA?2?$AAu?$AAc?$AAr?$AAt?$AA?2?$AAs?$AAr?$AAc?$AA?2?$AAd?$AAe?$AAs?$AAk?$AAt?$AAo?$AAp?$AAc@ 10055a70     libucrtd:environment_initialization.obj
 0002:00003afc       ??_C@_1CG@MNNNBNAK@?$AAc?$AAr?$AAe?$AAa?$AAt?$AAe?$AA_?$AAe?$AAn?$AAv?$AAi?$AAr?$AAo?$AAn?$AAm?$AAe?$AAn?$AAt?$AA?$AA@ 10055afc     libucrtd:environment_initialization.obj
 0002:00003b28       ??_C@_1HI@OOPIFFGA@?$AAt?$AAr?$AAa?$AAi?$AAt?$AAs?$AA?3?$AA?3?$AAt?$AAc?$AAs?$AAc?$AAp?$AAy?$AA_?$AAs?$AA?$CI?$AAv?$AAa?$AAr?$AAi?$AAa?$AAb?$AAl?$AAe?$AA?4?$AAg?$AAe?$AAt?$AA?$CI?$AA?$CJ?$AA?0@ 10055b28     libucrtd:environment_initialization.obj
 0002:00003ba0       ??_C@_0DC@NBHMIIKL@minkernel?2crts?2ucrt?2src?2appcrt?2s@ 10055ba0     libucrtd:onexit.obj
 0002:00003c64       ??_C@_04HJMOFLDF@Free?$AA@ 10055c64     libucrtd:debug_heap.obj
 0002:00003c6c       ??_C@_06EFAGIKOH@Normal?$AA@ 10055c6c     libucrtd:debug_heap.obj
 0002:00003c74       ??_C@_03OGPFLFLO@CRT?$AA@  10055c74     libucrtd:debug_heap.obj
 0002:00003c78       ??_C@_06KMEJCCGM@Ignore?$AA@ 10055c78     libucrtd:debug_heap.obj
 0002:00003c80       ??_C@_06PJIGMIJB@Client?$AA@ 10055c80     libucrtd:debug_heap.obj
 0002:00003c88       ??_C@_1CE@LJFEPPMP@?$AA_?$AAC?$AAr?$AAt?$AAC?$AAh?$AAe?$AAc?$AAk?$AAM?$AAe?$AAm?$AAo?$AAr?$AAy?$AA?$CI?$AA?$CJ?$AA?$AA@ 10055c88     libucrtd:debug_heap.obj
 0002:00003cb0       ??_C@_1GG@OCLHPJPK@?$AAm?$AAi?$AAn?$AAk?$AAe?$AAr?$AAn?$AAe?$AAl?$AA?2?$AAc?$AAr?$AAt?$AAs?$AA?2?$AAu?$AAc?$AAr?$AAt?$AA?2?$AAs?$AAr?$AAc?$AA?2?$AAa?$AAp?$AAp?$AAc?$AAr?$AAt?$AA?2?$AAh@ 10055cb0     libucrtd:debug_heap.obj
 0002:00003d18       ??_C@_0DF@BBEGIFEK@Client?5hook?5allocation?5failure?5a@ 10055d18     libucrtd:debug_heap.obj
 0002:00003d50       ??_C@_0CB@CCLOLAHO@Client?5hook?5allocation?5failure?4?6@ 10055d50     libucrtd:debug_heap.obj
 0002:00003d74       ??_C@_02DKCKIIND@?$CFs?$AA@ 10055d74     libucrtd:debug_heap.obj
 0002:00003d78       ??_C@_0DC@JEMAGEKG@Error?3?5memory?5allocation?3?5bad?5me@ 10055d78     libucrtd:debug_heap.obj
 0002:00003dac       ??_C@_0DI@KKJPDPGM@Client?5hook?5re?9allocation?5failur@ 10055dac     libucrtd:debug_heap.obj
 0002:00003de4       ??_C@_0CE@DOFMDOL@Client?5hook?5re?9allocation?5failur@ 10055de4     libucrtd:debug_heap.obj
 0002:00003e08       ??_C@_0FA@EFEIGJKG@Error?3?5memory?5allocation?3?5bad?5me@ 10055e08     libucrtd:debug_heap.obj
 0002:00003e58       ??_C@_0EM@LGFLMAGJ@The?5Block?5at?50x?$CFp?5was?5allocated?5@ 10055e58     libucrtd:debug_heap.obj
 0002:00003ea4       ??_C@_1DM@DEDLGNML@?$AA_?$AAC?$AAr?$AAt?$AAI?$AAs?$AAV?$AAa?$AAl?$AAi?$AAd?$AAH?$AAe?$AAa?$AAp?$AAP?$AAo?$AAi?$AAn?$AAt?$AAe?$AAr?$AA?$CI?$AAb?$AAl?$AAo?$AAc?$AAk?$AA?$CJ?$AA?$AA@ 10055ea4     libucrtd:debug_heap.obj
 0002:00003ee0       ??_C@_1PC@MCGKJLN@?$AAo?$AAl?$AAd?$AA_?$AAh?$AAe?$AAa?$AAd?$AA?9?$AA?$DO?$AA_?$AAl?$AAi?$AAn?$AAe?$AA_?$AAn?$AAu?$AAm?$AAb?$AAe?$AAr?$AA?5?$AA?$DN?$AA?$DN?$AA?5?$AAl?$AAi?$AAn?$AAe?$AA_?$AAn@ 10055ee0     libucrtd:debug_heap.obj
 0002:00003fd4       ??_C@_0DA@HFBKENN@Error?3?5possible?5heap?5corruption?5@ 10055fd4     libucrtd:debug_heap.obj
 0002:00004008       ??_C@_1JM@MCMEPJEP@?$AAr?$AAe?$AAa?$AAl?$AAl?$AAo?$AAc?$AAa?$AAt?$AAi?$AAo?$AAn?$AA_?$AAi?$AAs?$AA_?$AAa?$AAl?$AAl?$AAo?$AAw?$AAe?$AAd?$AA?5?$AA?$HM?$AA?$HM?$AA?5?$AA?$CI?$AA?$CB?$AAr?$AAe?$AAa@ 10056008     libucrtd:debug_heap.obj
 0002:000040a4       ??_C@_1DM@LNOPKAIJ@?$AA_?$AA_?$AAa?$AAc?$AAr?$AAt?$AA_?$AAl?$AAa?$AAs?$AAt?$AA_?$AAb?$AAl?$AAo?$AAc?$AAk?$AA?5?$AA?$DN?$AA?$DN?$AA?5?$AAo?$AAl?$AAd?$AA_?$AAh?$AAe?$AAa?$AAd?$AA?$AA@ 100560a4     libucrtd:debug_heap.obj
 0002:000040e0       ??_C@_1DO@HABCJBHO@?$AA_?$AA_?$AAa?$AAc?$AAr?$AAt?$AA_?$AAf?$AAi?$AAr?$AAs?$AAt?$AA_?$AAb?$AAl?$AAo?$AAc?$AAk?$AA?5?$AA?$DN?$AA?$DN?$AA?5?$AAo?$AAl?$AAd?$AA_?$AAh?$AAe?$AAa?$AAd?$AA?$AA@ 100560e0     libucrtd:debug_heap.obj
 0002:00004120       ??_C@_1CC@CKEAHJPH@?$AAb?$AAl?$AAo?$AAc?$AAk?$AA?5?$AA?$CB?$AA?$DN?$AA?5?$AAn?$AAu?$AAl?$AAl?$AAp?$AAt?$AAr?$AA?$AA@ 10056120     libucrtd:debug_heap.obj
 0002:00004148       ??_C@_0EJ@HEIBCIMJ@The?5Block?5at?50x?$CFp?5was?5allocated?5@ 10056148     libucrtd:debug_heap.obj
 0002:00004194       ??_C@_0BL@KEIPLFAC@Client?5hook?5free?5failure?4?6?$AA@ 10056194     libucrtd:debug_heap.obj
 0002:000041b0       ??_C@_1FA@KDNEBILF@?$AAi?$AAs?$AA_?$AAb?$AAl?$AAo?$AAc?$AAk?$AA_?$AAt?$AAy?$AAp?$AAe?$AA_?$AAv?$AAa?$AAl?$AAi?$AAd?$AA?$CI?$AAh?$AAe?$AAa?$AAd?$AAe?$AAr?$AA?9?$AA?$DO?$AA_?$AAb?$AAl?$AAo@ 100561b0     libucrtd:debug_heap.obj
 0002:00004200       ??_C@_0KI@JGFOHMEB@HEAP?5CORRUPTION?5DETECTED?3?5before@ 10056200     libucrtd:debug_heap.obj
 0002:000042a8       ??_C@_0IK@PJCGLBOB@HEAP?5CORRUPTION?5DETECTED?3?5before@ 100562a8     libucrtd:debug_heap.obj
 0002:00004338       ??_C@_0KE@MBMNHHHN@HEAP?5CORRUPTION?5DETECTED?3?5after?5@ 10056338     libucrtd:debug_heap.obj
 0002:000043e0       ??_C@_0IG@LEMBDCJK@HEAP?5CORRUPTION?5DETECTED?3?5after?5@ 100563e0     libucrtd:debug_heap.obj
 0002:00004468       ??_C@_1OK@GFEOEJAF@?$AAh?$AAe?$AAa?$AAd?$AAe?$AAr?$AA?9?$AA?$DO?$AA_?$AAl?$AAi?$AAn?$AAe?$AA_?$AAn?$AAu?$AAm?$AAb?$AAe?$AAr?$AA?5?$AA?$DN?$AA?$DN?$AA?5?$AAl?$AAi?$AAn?$AAe?$AA_?$AAn?$AAu?$AAm@ 10056468     libucrtd:debug_heap.obj
 0002:00004558       ??_C@_1ME@GFALMLNA@?$AAh?$AAe?$AAa?$AAd?$AAe?$AAr?$AA?9?$AA?$DO?$AA_?$AAb?$AAl?$AAo?$AAc?$AAk?$AA_?$AAu?$AAs?$AAe?$AA?5?$AA?$DN?$AA?$DN?$AA?5?$AAb?$AAl?$AAo?$AAc?$AAk?$AA_?$AAu?$AAs?$AAe?$AA?5@ 10056558     libucrtd:debug_heap.obj
 0002:0000461c       ??_C@_1DI@ILNOPEPI@?$AA_?$AA_?$AAa?$AAc?$AAr?$AAt?$AA_?$AAl?$AAa?$AAs?$AAt?$AA_?$AAb?$AAl?$AAo?$AAc?$AAk?$AA?5?$AA?$DN?$AA?$DN?$AA?5?$AAh?$AAe?$AAa?$AAd?$AAe?$AAr?$AA?$AA@ 1005661c     libucrtd:debug_heap.obj
 0002:00004654       ??_C@_1DK@KEHFGDIJ@?$AA_?$AA_?$AAa?$AAc?$AAr?$AAt?$AA_?$AAf?$AAi?$AAr?$AAs?$AAt?$AA_?$AAb?$AAl?$AAo?$AAc?$AAk?$AA?5?$AA?$DN?$AA?$DN?$AA?5?$AAh?$AAe?$AAa?$AAd?$AAe?$AAr?$AA?$AA@ 10056654     libucrtd:debug_heap.obj
 0002:00004690       ??_C@_1BG@MBKOGDLD@?$AA_?$AAm?$AAs?$AAi?$AAz?$AAe?$AA_?$AAd?$AAb?$AAg?$AA?$AA@ 10056690     libucrtd:debug_heap.obj
 0002:000046a8       ??_C@_07OHKEFPKJ@DAMAGED?$AA@ 100566a8     libucrtd:debug_heap.obj
 0002:000046b0       ??_C@_0KA@IHNJJKPL@HEAP?5CORRUPTION?5DETECTED?3?5on?5top@ 100566b0     libucrtd:debug_heap.obj
 0002:00004750       ??_C@_0IC@BBJIOOJH@HEAP?5CORRUPTION?5DETECTED?3?5on?5top@ 10056750     libucrtd:debug_heap.obj
 0002:000047d8       ??_C@_0EG@DGJMPDBH@?$CFhs?5located?5at?50x?$CFp?5is?5?$CFIu?5bytes@ 100567d8     libucrtd:debug_heap.obj
 0002:00004820       ??_C@_0CI@JMLBEDHJ@?$CFhs?5located?5at?50x?$CFp?5is?5?$CFIu?5bytes@ 10056820     libucrtd:debug_heap.obj
 0002:00004848       ??_C@_0EG@GPFHANHO@Cycle?5in?5block?5list?5detected?5whi@ 10056848     libucrtd:debug_heap.obj
 0002:00004890       ??_C@_0BJ@ELMAOCAJ@Heap?5validation?5failed?4?6?$AA@ 10056890     libucrtd:debug_heap.obj
 0002:000048b0       ??_C@_1IE@BBIFDGEB@?$AAn?$AAe?$AAw?$AA_?$AAb?$AAi?$AAt?$AAs?$AA?5?$AA?$DN?$AA?$DN?$AA?5?$AA_?$AAC?$AAR?$AAT?$AAD?$AAB?$AAG?$AA_?$AAR?$AAE?$AAP?$AAO?$AAR?$AAT?$AA_?$AAF?$AAL?$AAA?$AAG?$AA?5@ 100568b0     libucrtd:debug_heap.obj
 0002:00004934       ??_C@_1BO@GJFDNMNF@?$AA_?$AAC?$AAr?$AAt?$AAS?$AAe?$AAt?$AAD?$AAb?$AAg?$AAF?$AAl?$AAa?$AAg?$AA?$AA@ 10056934     libucrtd:debug_heap.obj
 0002:00004954       ??_C@_1CC@BBKMONGA@?$AAs?$AAt?$AAa?$AAt?$AAe?$AA?5?$AA?$CB?$AA?$DN?$AA?5?$AAn?$AAu?$AAl?$AAl?$AAp?$AAt?$AAr?$AA?$AA@ 10056954     libucrtd:debug_heap.obj
 0002:00004978       ??_C@_1CE@NJJKELF@?$AA_?$AAC?$AAr?$AAt?$AAM?$AAe?$AAm?$AAC?$AAh?$AAe?$AAc?$AAk?$AAp?$AAo?$AAi?$AAn?$AAt?$AA?$AA@ 10056978     libucrtd:debug_heap.obj
 0002:0000499c       ??_C@_0DP@LEFMFBOD@Bad?5memory?5block?5found?5at?50x?$CFp?4?6@ 1005699c     libucrtd:debug_heap.obj
 0002:000049dc       ??_C@_0CB@EAAIGELO@Bad?5memory?5block?5found?5at?50x?$CFp?4?6@ 100569dc     libucrtd:debug_heap.obj
 0002:00004a00       ??_C@_05MKKEDADM@?$CF?42X?5?$AA@ 10056a00     libucrtd:debug_heap.obj
 0002:00004a08       ??_C@_1CC@DIJAHFFJ@?$AAp?$AAr?$AAi?$AAn?$AAt?$AA_?$AAb?$AAl?$AAo?$AAc?$AAk?$AA_?$AAd?$AAa?$AAt?$AAa?$AA?$AA@ 10056a08     libucrtd:debug_heap.obj
 0002:00004a2c       ??_C@_1BI@KALLJECN@?$AA?$CI?$AA?$CK?$AA_?$AAe?$AAr?$AAr?$AAn?$AAo?$AA?$CI?$AA?$CJ?$AA?$CJ?$AA?$AA@ 10056a2c     libucrtd:debug_heap.obj
 0002:00004a44       ??_C@_0BA@HJBKCELP@?5Data?3?5?$DM?$CFs?$DO?5?$CFs?6?$AA@ 10056a44     libucrtd:debug_heap.obj
 0002:00004a54       ??_C@_0BE@KCIPKCIA@Dumping?5objects?5?9?$DO?6?$AA@ 10056a54     libucrtd:debug_heap.obj
 0002:00004a68       ??_C@_0BE@OIEFNFL@?$CDFile?5Error?$CD?$CI?$CFd?$CJ?5?3?5?$AA@ 10056a68     libucrtd:debug_heap.obj
 0002:00004a7c       ??_C@_0L@JMEFFCCJ@?$CFhs?$CI?$CFd?$CJ?5?3?5?$AA@ 10056a7c     libucrtd:debug_heap.obj
 0002:00004a88       ??_C@_06PKLGBFGM@?$HL?$CFld?$HN?5?$AA@ 10056a88     libucrtd:debug_heap.obj
 0002:00004a90       ??_C@_0DD@GHNAAKBB@client?5block?5at?50x?$CFp?0?5subtype?5?$CFx@ 10056a90     libucrtd:debug_heap.obj
 0002:00004ac4       ??_C@_0CH@FAGDDGPN@normal?5block?5at?50x?$CFp?0?5?$CFIu?5bytes?5@ 10056ac4     libucrtd:debug_heap.obj
 0002:00004aec       ??_C@_0DA@MDLBNIBM@crt?5block?5at?50x?$CFp?0?5subtype?5?$CFx?0?5?$CF@ 10056aec     libucrtd:debug_heap.obj
 0002:00004b1c       ??_C@_0BH@GFGKJDCO@Object?5dump?5complete?4?6?$AA@ 10056b1c     libucrtd:debug_heap.obj
 0002:00004b34       ??_C@_0BI@JBFPOEJA@Detected?5memory?5leaks?$CB?6?$AA@ 10056b34     libucrtd:debug_heap.obj
 0002:00004b50       ??_C@_1GI@BBAEIKL@?$AA?$CI?$AA?$CI?$AAd?$AAe?$AAs?$AAt?$AAi?$AAn?$AAa?$AAt?$AAi?$AAo?$AAn?$AA?$CJ?$AA?$CJ?$AA?5?$AA?$CB?$AA?$DN?$AA?5?$AAN?$AAU?$AAL?$AAL?$AA?5?$AA?$CG?$AA?$CG?$AA?5?$AA?$CI?$AA?$CI?$AAs?$AAi?$AAz@ 10056b50     libucrtd:strcpy_s.obj
 0002:00004bb8       ??_C@_1HI@PBJPCEBC@?$AAm?$AAi?$AAn?$AAk?$AAe?$AAr?$AAn?$AAe?$AAl?$AA?2?$AAc?$AAr?$AAt?$AAs?$AA?2?$AAu?$AAc?$AAr?$AAt?$AA?2?$AAi?$AAn?$AAc?$AA?2?$AAc?$AAo?$AAr?$AAe?$AAc?$AAr?$AAt?$AA_@ 10056bb8     libucrtd:strcpy_s.obj
 0002:00004c30       ??_C@_1CA@FHIAGDFH@?$AAc?$AAo?$AAm?$AAm?$AAo?$AAn?$AA_?$AAt?$AAc?$AAs?$AAc?$AAp?$AAy?$AA_?$AAs?$AA?$AA@ 10056c30     libucrtd:strcpy_s.obj
 0002:00004c50       ??_C@_1CK@EIOKGPJL@?$AA?$CI?$AA?$CI?$AA?$CI?$AAs?$AAo?$AAu?$AAr?$AAc?$AAe?$AA?$CJ?$AA?$CJ?$AA?$CJ?$AA?5?$AA?$CB?$AA?$DN?$AA?5?$AAN?$AAU?$AAL?$AAL?$AA?$AA@ 10056c50     libucrtd:strcpy_s.obj
 0002:00004c7c       ??_C@_1CI@HCPHDDLE@?$AAB?$AAu?$AAf?$AAf?$AAe?$AAr?$AA?5?$AAi?$AAs?$AA?5?$AAt?$AAo?$AAo?$AA?5?$AAs?$AAm?$AAa?$AAl?$AAl?$AA?$AA@ 10056c7c     libucrtd:strcpy_s.obj
 0002:00004ca4       ??_C@_1DM@MADKGDLO@?$AA?$CI?$AAL?$AA?$CC?$AAB?$AAu?$AAf?$AAf?$AAe?$AAr?$AA?5?$AAi?$AAs?$AA?5?$AAt?$AAo?$AAo?$AA?5?$AAs?$AAm?$AAa?$AAl?$AAl?$AA?$CC?$AA?5?$AA?$CG?$AA?$CG?$AA?5?$AA0?$AA?$CJ?$AA?$AA@ 10056ca4     libucrtd:strcpy_s.obj
 0002:00004cec       ??_C@_1BA@GLMCNLEM@?$AAW?$AAa?$AAr?$AAn?$AAi?$AAn?$AAg?$AA?$AA@ 10056cec     libucrtd:dbgrpt.obj
 0002:00004cfc       ??_C@_1M@ILHOPKA@?$AAE?$AAr?$AAr?$AAo?$AAr?$AA?$AA@ 10056cfc     libucrtd:dbgrpt.obj
 0002:00004d08       ??_C@_1CC@CGHMNGDG@?$AAA?$AAs?$AAs?$AAe?$AAr?$AAt?$AAi?$AAo?$AAn?$AA?5?$AAF?$AAa?$AAi?$AAl?$AAe?$AAd?$AA?$AA@ 10056d08     libucrtd:dbgrpt.obj
 0002:00004d30       ??_C@_1OG@PMPPFHAF@?$AA?6?$AA?6?$AAF?$AAo?$AAr?$AA?5?$AAi?$AAn?$AAf?$AAo?$AAr?$AAm?$AAa?$AAt?$AAi?$AAo?$AAn?$AA?5?$AAo?$AAn?$AA?5?$AAh?$AAo?$AAw?$AA?5?$AAy?$AAo?$AAu?$AAr?$AA?5?$AAp?$AAr@ 10056d30     libucrtd:dbgrpt.obj
 0002:00004e18       ??_C@_1MG@LJLILFFD@?$AAD?$AAe?$AAb?$AAu?$AAg?$AA?5?$AA?$CF?$AAl?$AAs?$AA?$CB?$AA?6?$AA?6?$AAP?$AAr?$AAo?$AAg?$AAr?$AAa?$AAm?$AA?3?$AA?5?$AA?$CF?$AAh?$AAs?$AA?$CF?$AAl?$AAs?$AA?$CF?$AAl?$AAs?$AA?$CF?$AAh@ 10056e18     libucrtd:dbgrpt.obj
 0002:00004ee0       ??_C@_1MG@OODCADGL@?$AAD?$AAe?$AAb?$AAu?$AAg?$AA?5?$AA?$CF?$AAl?$AAs?$AA?$CB?$AA?6?$AA?6?$AAP?$AAr?$AAo?$AAg?$AAr?$AAa?$AAm?$AA?3?$AA?5?$AA?$CF?$AAl?$AAs?$AA?$CF?$AAl?$AAs?$AA?$CF?$AAl?$AAs?$AA?$CF?$AAl@ 10056ee0     libucrtd:dbgrpt.obj
 0002:00004fa8       ??_C@_1FO@GMJDLAJD@?$AAm?$AAi?$AAn?$AAk?$AAe?$AAr?$AAn?$AAe?$AAl?$AA?2?$AAc?$AAr?$AAt?$AAs?$AA?2?$AAu?$AAc?$AAr?$AAt?$AA?2?$AAs?$AAr?$AAc?$AA?2?$AAa?$AAp?$AAp?$AAc?$AAr?$AAt?$AA?2?$AAm@ 10056fa8     libucrtd:dbgrpt.obj
 0002:00005008       ??_C@_1CM@EHMOGBJJ@?$AAc?$AAo?$AAm?$AAm?$AAo?$AAn?$AA_?$AAm?$AAe?$AAs?$AAs?$AAa?$AAg?$AAe?$AA_?$AAw?$AAi?$AAn?$AAd?$AAo?$AAw?$AA?$AA@ 10057008     libucrtd:dbgrpt.obj
 0002:00005038       ??_C@_1BA@GLLGCPCK@?$AA?6?$AAL?$AAi?$AAn?$AAe?$AA?3?$AA?5?$AA?$AA@ 10057038     libucrtd:dbgrpt.obj
 0002:00005048       ??_C@_1BA@LNHECFIM@?$AA?6?$AAF?$AAi?$AAl?$AAe?$AA?3?$AA?5?$AA?$AA@ 10057048     libucrtd:dbgrpt.obj
 0002:00005058       ??_C@_1BE@CGCJKGHI@?$AA?6?$AAM?$AAo?$AAd?$AAu?$AAl?$AAe?$AA?3?$AA?5?$AA?$AA@ 10057058     libucrtd:dbgrpt.obj
 0002:00005070       ??_C@_1JM@IBOIJEOO@?$AAw?$AAc?$AAs?$AAc?$AAp?$AAy?$AA_?$AAs?$AA?$CI?$AAm?$AAe?$AAs?$AAs?$AAa?$AAg?$AAe?$AA_?$AAb?$AAu?$AAf?$AAf?$AAe?$AAr?$AA?0?$AA?5?$AA4?$AA0?$AA9?$AA6?$AA?0?$AA?5?$AAL@ 10057070     libucrtd:dbgrpt.obj
 0002:00005110       ??_C@_1FG@BBOLDHGF@?$AA_?$AAC?$AAr?$AAt?$AAD?$AAb?$AAg?$AAR?$AAe?$AAp?$AAo?$AAr?$AAt?$AA?3?$AA?5?$AAS?$AAt?$AAr?$AAi?$AAn?$AAg?$AA?5?$AAt?$AAo?$AAo?$AA?5?$AAl?$AAo?$AAn?$AAg?$AA?5?$AAo@ 10057110     libucrtd:dbgrpt.obj
 0002:0000516c       ??_C@_1DA@LLLMNMKI@?$AAa?$AAb?$AAo?$AAr?$AAt?$AA?$CI?$AA?$CJ?$AA?5?$AAh?$AAa?$AAs?$AA?5?$AAb?$AAe?$AAe?$AAn?$AA?5?$AAc?$AAa?$AAl?$AAl?$AAe?$AAd?$AA?$AA@ 1005716c     libucrtd:abort.obj
 0002:000051a0       _standard_lookup_table     100571a0     libucrtd:output.obj
 0002:00005200       _format_validation_lookup_table 10057200     libucrtd:output.obj
 0002:0000525c       ??_C@_1CE@JLIJLEKO@?$AAs?$AAt?$AAr?$AAe?$AAa?$AAm?$AA?5?$AA?$CB?$AA?$DN?$AA?5?$AAn?$AAu?$AAl?$AAl?$AAp?$AAt?$AAr?$AA?$AA@ 1005725c     libucrtd:output.obj
 0002:00005280       ??_C@_1GA@MOBAPGIO@?$AAm?$AAi?$AAn?$AAk?$AAe?$AAr?$AAn?$AAe?$AAl?$AA?2?$AAc?$AAr?$AAt?$AAs?$AA?2?$AAu?$AAc?$AAr?$AAt?$AA?2?$AAs?$AAr?$AAc?$AA?2?$AAa?$AAp?$AAp?$AAc?$AAr?$AAt?$AA?2?$AAs@ 10057280     libucrtd:output.obj
 0002:000052e0       ??_C@_1CA@GELIJBMC@?$AAc?$AAo?$AAm?$AAm?$AAo?$AAn?$AA_?$AAv?$AAf?$AAp?$AAr?$AAi?$AAn?$AAt?$AAf?$AA?$AA@ 100572e0     libucrtd:output.obj
 0002:00005300       ??_C@_1CE@EAKLPBKK@?$AAf?$AAo?$AAr?$AAm?$AAa?$AAt?$AA?5?$AA?$CB?$AA?$DN?$AA?5?$AAn?$AAu?$AAl?$AAl?$AAp?$AAt?$AAr?$AA?$AA@ 10057300     libucrtd:output.obj
 0002:00005324       ??_C@_1CA@PIMGHCEK@?$AAc?$AAo?$AAm?$AAm?$AAo?$AAn?$AA_?$AAv?$AAs?$AAp?$AAr?$AAi?$AAn?$AAt?$AAf?$AA?$AA@ 10057324     libucrtd:output.obj
 0002:00005348       ??_C@_1EO@EGEEFEFM@?$AAb?$AAu?$AAf?$AAf?$AAe?$AAr?$AA_?$AAc?$AAo?$AAu?$AAn?$AAt?$AA?5?$AA?$DN?$AA?$DN?$AA?5?$AA0?$AA?5?$AA?$HM?$AA?$HM?$AA?5?$AAb?$AAu?$AAf?$AAf?$AAe?$AAr?$AA?5?$AA?$CB?$AA?$DN?$AA?5?$AAn@ 10057348     libucrtd:output.obj
 0002:00005398       ??_C@_1CE@JEILLNB@?$AAc?$AAo?$AAm?$AAm?$AAo?$AAn?$AA_?$AAv?$AAs?$AAp?$AAr?$AAi?$AAn?$AAt?$AAf?$AA_?$AAs?$AA?$AA@ 10057398     libucrtd:output.obj
 0002:000053c0       ??_C@_1EM@OAFHAOLH@?$AAb?$AAu?$AAf?$AAf?$AAe?$AAr?$AA?5?$AA?$CB?$AA?$DN?$AA?5?$AAn?$AAu?$AAl?$AAl?$AAp?$AAt?$AAr?$AA?5?$AA?$CG?$AA?$CG?$AA?5?$AAb?$AAu?$AAf?$AAf?$AAe?$AAr?$AA_?$AAc?$AAo?$AAu?$AAn@ 100573c0     libucrtd:output.obj
 0002:0000540c       ??_C@_1DA@HPBFKMEB@?$AA?$CI?$AA?$CC?$AAB?$AAu?$AAf?$AAf?$AAe?$AAr?$AA?5?$AAt?$AAo?$AAo?$AA?5?$AAs?$AAm?$AAa?$AAl?$AAl?$AA?$CC?$AA?0?$AA?5?$AA0?$AA?$CJ?$AA?$AA@ 1005740c     libucrtd:output.obj
 0002:0000543c       ??_C@_1CG@LHFJHFBB@?$AAc?$AAo?$AAm?$AAm?$AAo?$AAn?$AA_?$AAv?$AAs?$AAn?$AAp?$AAr?$AAi?$AAn?$AAt?$AAf?$AA_?$AAs?$AA?$AA@ 1005743c     libucrtd:output.obj
 0002:00005464       ??_C@_1CM@JOIJBMEM@?$AA_?$AAf?$AAo?$AAr?$AAm?$AAa?$AAt?$AA_?$AAi?$AAt?$AA?5?$AA?$CB?$AA?$DN?$AA?5?$AAn?$AAu?$AAl?$AAl?$AAp?$AAt?$AAr?$AA?$AA@ 10057464     libucrtd:output.obj
 0002:00005490       ??_C@_1HA@DMAAKIJP@?$AAm?$AAi?$AAn?$AAk?$AAe?$AAr?$AAn?$AAe?$AAl?$AA?2?$AAc?$AAr?$AAt?$AAs?$AA?2?$AAu?$AAc?$AAr?$AAt?$AA?2?$AAi?$AAn?$AAc?$AA?2?$AAc?$AAo?$AAr?$AAe?$AAc?$AAr?$AAt?$AA_@ 10057490     libucrtd:output.obj
 0002:00005500       ??_C@_1EE@DMAIGNBG@?$AA?$CI?$AA?$CC?$AAI?$AAn?$AAc?$AAo?$AAr?$AAr?$AAe?$AAc?$AAt?$AA?5?$AAf?$AAo?$AAr?$AAm?$AAa?$AAt?$AA?5?$AAs?$AAp?$AAe?$AAc?$AAi?$AAf?$AAi?$AAe?$AAr?$AA?$CC?$AA?0?$AA?5?$AA0@ 10057500     libucrtd:output.obj
 0002:00005548       ??_C@_1BLI@EEAAPJD@?$AA_?$AA_?$AAc?$AAr?$AAt?$AA_?$AAs?$AAt?$AAd?$AAi?$AAo?$AA_?$AAo?$AAu?$AAt?$AAp?$AAu?$AAt?$AA?3?$AA?3?$AAo?$AAu?$AAt?$AAp?$AAu?$AAt?$AA_?$AAp?$AAr?$AAo?$AAc?$AAe@ 10057548     libucrtd:output.obj
 0002:00005700       ??_C@_1BLI@IKDKMDHI@?$AA_?$AA_?$AAc?$AAr?$AAt?$AA_?$AAs?$AAt?$AAd?$AAi?$AAo?$AA_?$AAo?$AAu?$AAt?$AAp?$AAu?$AAt?$AA?3?$AA?3?$AAo?$AAu?$AAt?$AAp?$AAu?$AAt?$AA_?$AAp?$AAr?$AAo?$AAc?$AAe@ 10057700     libucrtd:output.obj
 0002:000058b8       ??_C@_1CA@ONEGMNAN@?$AA_?$AAs?$AAt?$AAr?$AAe?$AAa?$AAm?$AA?4?$AAv?$AAa?$AAl?$AAi?$AAd?$AA?$CI?$AA?$CJ?$AA?$AA@ 100578b8     libucrtd:output.obj
 0002:000058d8       ??_C@_1DG@CEJKFDMO@?$AAs?$AAt?$AAa?$AAt?$AAe?$AA_?$AAc?$AAa?$AAs?$AAe?$AA_?$AAn?$AAo?$AAr?$AAm?$AAa?$AAl?$AA_?$AAc?$AAo?$AAm?$AAm?$AAo?$AAn?$AA?$CI?$AA?$CJ?$AA?$AA@ 100578d8     libucrtd:output.obj
 0002:00005910       ??_C@_1FG@OBJBDPAC@?$AA?$CI?$AA?$CC?$AAN?$AA?5?$AAl?$AAe?$AAn?$AAg?$AAt?$AAh?$AA?5?$AAm?$AAo?$AAd?$AAi?$AAf?$AAi?$AAe?$AAr?$AA?5?$AAn?$AAo?$AAt?$AA?5?$AAs?$AAp?$AAe?$AAc?$AAi?$AAf?$AAi?$AAe@ 10057910     libucrtd:output.obj
 0002:00005968       ??_C@_1EC@GJPNJDCN@?$AA_?$AAl?$AAe?$AAn?$AAg?$AAt?$AAh?$AA?5?$AA?$DN?$AA?$DN?$AA?5?$AAl?$AAe?$AAn?$AAg?$AAt?$AAh?$AA_?$AAm?$AAo?$AAd?$AAi?$AAf?$AAi?$AAe?$AAr?$AA?3?$AA?3?$AAn?$AAo?$AAn?$AAe@ 10057968     libucrtd:output.obj
 0002:000059b0       ??_C@_1HK@MPBCDOK@?$AA_?$AA_?$AAc?$AAr?$AAt?$AA_?$AAs?$AAt?$AAd?$AAi?$AAo?$AA_?$AAo?$AAu?$AAt?$AAp?$AAu?$AAt?$AA?3?$AA?3?$AAs?$AAt?$AAr?$AAe?$AAa?$AAm?$AA_?$AAo?$AAu?$AAt?$AAp?$AAu@ 100579b0     libucrtd:output.obj
 0002:00005a30       ??_C@_1BMM@JHGFKAND@?$AA_?$AA_?$AAc?$AAr?$AAt?$AA_?$AAs?$AAt?$AAd?$AAi?$AAo?$AA_?$AAo?$AAu?$AAt?$AAp?$AAu?$AAt?$AA?3?$AA?3?$AAo?$AAu?$AAt?$AAp?$AAu?$AAt?$AA_?$AAp?$AAr?$AAo?$AAc?$AAe@ 10057a30     libucrtd:output.obj
 0002:00005c00       ??_C@_1BMI@DNMDMAAN@?$AA_?$AA_?$AAc?$AAr?$AAt?$AA_?$AAs?$AAt?$AAd?$AAi?$AAo?$AA_?$AAo?$AAu?$AAt?$AAp?$AAu?$AAt?$AA?3?$AA?3?$AAo?$AAu?$AAt?$AAp?$AAu?$AAt?$AA_?$AAp?$AAr?$AAo?$AAc?$AAe@ 10057c00     libucrtd:output.obj
 0002:00005dc8       ??_C@_1GC@BNMHNGKM@?$AA_?$AAs?$AAt?$AAa?$AAt?$AAe?$AA?5?$AA?$DN?$AA?$DN?$AA?5?$AAs?$AAt?$AAa?$AAt?$AAe?$AA?3?$AA?3?$AAn?$AAo?$AAr?$AAm?$AAa?$AAl?$AA?5?$AA?$HM?$AA?$HM?$AA?5?$AA_?$AAs?$AAt?$AAa?$AAt@ 10057dc8     libucrtd:output.obj
 0002:00005e2c       ??_C@_1CI@DDKMNCPP@?$AA_?$AAc?$AAo?$AAn?$AAt?$AAe?$AAx?$AAt?$AA?5?$AA?$CB?$AA?$DN?$AA?5?$AAn?$AAu?$AAl?$AAl?$AAp?$AAt?$AAr?$AA?$AA@ 10057e2c     libucrtd:output.obj
 0002:00005e58       ??_C@_1HE@IACOMEJF@?$AA_?$AA_?$AAc?$AAr?$AAt?$AA_?$AAs?$AAt?$AAd?$AAi?$AAo?$AA_?$AAo?$AAu?$AAt?$AAp?$AAu?$AAt?$AA?3?$AA?3?$AAs?$AAt?$AAr?$AAi?$AAn?$AAg?$AA_?$AAo?$AAu?$AAt?$AAp?$AAu@ 10057e58     libucrtd:output.obj
 0002:00005ed0       ??_C@_1HK@IIPGOADH@?$AA_?$AA_?$AAc?$AAr?$AAt?$AA_?$AAs?$AAt?$AAd?$AAi?$AAo?$AA_?$AAo?$AAu?$AAt?$AAp?$AAu?$AAt?$AA?3?$AA?3?$AAs?$AAt?$AAr?$AAi?$AAn?$AAg?$AA_?$AAo?$AAu?$AAt?$AAp?$AAu@ 10057ed0     libucrtd:output.obj
 0002:00005f50       ??_C@_1BMM@PGHHMNDM@?$AA_?$AA_?$AAc?$AAr?$AAt?$AA_?$AAs?$AAt?$AAd?$AAi?$AAo?$AA_?$AAo?$AAu?$AAt?$AAp?$AAu?$AAt?$AA?3?$AA?3?$AAo?$AAu?$AAt?$AAp?$AAu?$AAt?$AA_?$AAp?$AAr?$AAo?$AAc?$AAe@ 10057f50     libucrtd:output.obj
 0002:00006120       ??_C@_1BMI@KBPJOJJI@?$AA_?$AA_?$AAc?$AAr?$AAt?$AA_?$AAs?$AAt?$AAd?$AAi?$AAo?$AA_?$AAo?$AAu?$AAt?$AAp?$AAu?$AAt?$AA?3?$AA?3?$AAo?$AAu?$AAt?$AAp?$AAu?$AAt?$AA_?$AAp?$AAr?$AAo?$AAc?$AAe@ 10058120     libucrtd:output.obj
 0002:000062e8       ??_C@_1EK@PNGFDECN@?$AA?$CI?$AA?$CC?$AA?8?$AAn?$AA?8?$AA?5?$AAf?$AAo?$AAr?$AAm?$AAa?$AAt?$AA?5?$AAs?$AAp?$AAe?$AAc?$AAi?$AAf?$AAi?$AAe?$AAr?$AA?5?$AAd?$AAi?$AAs?$AAa?$AAb?$AAl?$AAe?$AAd?$AA?$CC@ 100582e8     libucrtd:output.obj
 0002:00006338       ??_C@_1EO@GHKFGFKL@?$AA?$CI?$AA?$CC?$AAI?$AAn?$AAv?$AAa?$AAl?$AAi?$AAd?$AA?5?$AAi?$AAn?$AAt?$AAe?$AAg?$AAe?$AAr?$AA?5?$AAl?$AAe?$AAn?$AAg?$AAt?$AAh?$AA?5?$AAm?$AAo?$AAd?$AAi?$AAf?$AAi?$AAe@ 10058338     libucrtd:output.obj
 0002:00006388       ??_C@_1BMA@PGOJAHFP@?$AA_?$AA_?$AAc?$AAr?$AAt?$AA_?$AAs?$AAt?$AAd?$AAi?$AAo?$AA_?$AAo?$AAu?$AAt?$AAp?$AAu?$AAt?$AA?3?$AA?3?$AAo?$AAu?$AAt?$AAp?$AAu?$AAt?$AA_?$AAp?$AAr?$AAo?$AAc?$AAe@ 10058388     libucrtd:output.obj
 0002:00006548       ??_C@_1BMA@IHIBOLMD@?$AA_?$AA_?$AAc?$AAr?$AAt?$AA_?$AAs?$AAt?$AAd?$AAi?$AAo?$AA_?$AAo?$AAu?$AAt?$AAp?$AAu?$AAt?$AA?3?$AA?3?$AAo?$AAu?$AAt?$AAp?$AAu?$AAt?$AA_?$AAp?$AAr?$AAo?$AAc?$AAe@ 10058548     libucrtd:output.obj
 0002:00006708       ??_C@_1BDG@KOLEFKPF@?$AA_?$AA_?$AAc?$AAr?$AAt?$AA_?$AAs?$AAt?$AAd?$AAi?$AAo?$AA_?$AAo?$AAu?$AAt?$AAp?$AAu?$AAt?$AA?3?$AA?3?$AAf?$AAo?$AAr?$AAm?$AAa?$AAt?$AA_?$AAv?$AAa?$AAl?$AAi?$AAd@ 10058708     libucrtd:output.obj
 0002:00006840       ??_C@_1BEC@NDOOKIMC@?$AA_?$AA_?$AAc?$AAr?$AAt?$AA_?$AAs?$AAt?$AAd?$AAi?$AAo?$AA_?$AAo?$AAu?$AAt?$AAp?$AAu?$AAt?$AA?3?$AA?3?$AAf?$AAo?$AAr?$AAm?$AAa?$AAt?$AA_?$AAv?$AAa?$AAl?$AAi?$AAd@ 10058840     libucrtd:output.obj
 0002:00006984       ??_C@_1CK@LGDCECDH@?$AA_?$AAf?$AAo?$AAr?$AAm?$AAa?$AAt?$AA_?$AAc?$AAh?$AAa?$AAr?$AA?5?$AA?$CB?$AA?$DN?$AA?5?$AA?8?$AA?2?$AA0?$AA?8?$AA?$AA@ 10058984     libucrtd:output.obj
 0002:000069b0       ??_C@_06OJHGLDPL@?$CInull?$CJ?$AA@ 100589b0     libucrtd:output.obj
 0002:000069b8       ??_C@_1O@CEDCILHN@?$AA?$CI?$AAn?$AAu?$AAl?$AAl?$AA?$CJ?$AA?$AA@ 100589b8     libucrtd:output.obj
 0002:000069c8       ??_C@_1BMM@KANDEEGK@?$AA_?$AA_?$AAc?$AAr?$AAt?$AA_?$AAs?$AAt?$AAd?$AAi?$AAo?$AA_?$AAo?$AAu?$AAt?$AAp?$AAu?$AAt?$AA?3?$AA?3?$AAo?$AAu?$AAt?$AAp?$AAu?$AAt?$AA_?$AAp?$AAr?$AAo?$AAc?$AAe@ 100589c8     libucrtd:output.obj
 0002:00006b98       ??_C@_1BMM@MBMBCJIF@?$AA_?$AA_?$AAc?$AAr?$AAt?$AA_?$AAs?$AAt?$AAd?$AAi?$AAo?$AA_?$AAo?$AAu?$AAt?$AAp?$AAu?$AAt?$AA?3?$AA?3?$AAo?$AAu?$AAt?$AAp?$AAu?$AAt?$AA_?$AAp?$AAr?$AAo?$AAc?$AAe@ 10058b98     libucrtd:output.obj
 0002:00006d64       ??_C@_0DI@KIFBHMNO@minkernel?2crts?2ucrt?2inc?2corecrt_@ 10058d64     libucrtd:output.obj
 0002:00006da0       ??_C@_1BLC@INKIGOCN@?$AA_?$AA_?$AAc?$AAr?$AAt?$AA_?$AAs?$AAt?$AAd?$AAi?$AAo?$AA_?$AAo?$AAu?$AAt?$AAp?$AAu?$AAt?$AA?3?$AA?3?$AAo?$AAu?$AAt?$AAp?$AAu?$AAt?$AA_?$AAp?$AAr?$AAo?$AAc?$AAe@ 10058da0     libucrtd:output.obj
 0002:00006f58       ??_C@_1BMK@JGIBNIA@?$AA_?$AA_?$AAc?$AAr?$AAt?$AA_?$AAs?$AAt?$AAd?$AAi?$AAo?$AA_?$AAo?$AAu?$AAt?$AAp?$AAu?$AAt?$AA?3?$AA?3?$AAo?$AAu?$AAt?$AAp?$AAu?$AAt?$AA_?$AAp?$AAr?$AAo?$AAc?$AAe@ 10058f58     libucrtd:output.obj
 0002:00007128       ??_C@_1BMG@CGPDIFDK@?$AA_?$AA_?$AAc?$AAr?$AAt?$AA_?$AAs?$AAt?$AAd?$AAi?$AAo?$AA_?$AAo?$AAu?$AAt?$AAp?$AAu?$AAt?$AA?3?$AA?3?$AAo?$AAu?$AAt?$AAp?$AAu?$AAt?$AA_?$AAp?$AAr?$AAo?$AAc?$AAe@ 10059128     libucrtd:output.obj
 0002:000072f0       ??_C@_1BMC@FAGJFBLI@?$AA_?$AA_?$AAc?$AAr?$AAt?$AA_?$AAs?$AAt?$AAd?$AAi?$AAo?$AA_?$AAo?$AAu?$AAt?$AAp?$AAu?$AAt?$AA?3?$AA?3?$AAo?$AAu?$AAt?$AAp?$AAu?$AAt?$AA_?$AAp?$AAr?$AAo?$AAc?$AAe@ 100592f0     libucrtd:output.obj
 0002:000074b8       ??_C@_1BNO@OHFFMOOJ@?$AA_?$AA_?$AAc?$AAr?$AAt?$AA_?$AAs?$AAt?$AAd?$AAi?$AAo?$AA_?$AAo?$AAu?$AAt?$AAp?$AAu?$AAt?$AA?3?$AA?3?$AAo?$AAu?$AAt?$AAp?$AAu?$AAt?$AA_?$AAp?$AAr?$AAo?$AAc?$AAe@ 100594b8     libucrtd:output.obj
 0002:00007698       ??_C@_1BNK@KHNJGCCP@?$AA_?$AA_?$AAc?$AAr?$AAt?$AA_?$AAs?$AAt?$AAd?$AAi?$AAo?$AA_?$AAo?$AAu?$AAt?$AAp?$AAu?$AAt?$AA?3?$AA?3?$AAo?$AAu?$AAt?$AAp?$AAu?$AAt?$AA_?$AAp?$AAr?$AAo?$AAc?$AAe@ 10059698     libucrtd:output.obj
 0002:00007878       ??_C@_1BLK@FOLFMPJH@?$AA_?$AA_?$AAc?$AAr?$AAt?$AA_?$AAs?$AAt?$AAd?$AAi?$AAo?$AA_?$AAo?$AAu?$AAt?$AAp?$AAu?$AAt?$AA?3?$AA?3?$AAo?$AAu?$AAt?$AAp?$AAu?$AAt?$AA_?$AAp?$AAr?$AAo?$AAc?$AAe@ 10059878     libucrtd:output.obj
 0002:00007a38       ??_C@_1BNC@OHPDPPJK@?$AA_?$AA_?$AAc?$AAr?$AAt?$AA_?$AAs?$AAt?$AAd?$AAi?$AAo?$AA_?$AAo?$AAu?$AAt?$AAp?$AAu?$AAt?$AA?3?$AA?3?$AAo?$AAu?$AAt?$AAp?$AAu?$AAt?$AA_?$AAp?$AAr?$AAo?$AAc?$AAe@ 10059a38     libucrtd:output.obj
 0002:00007c10       ??_C@_1BNC@JPKLPOHO@?$AA_?$AA_?$AAc?$AAr?$AAt?$AA_?$AAs?$AAt?$AAd?$AAi?$AAo?$AA_?$AAo?$AAu?$AAt?$AAp?$AAu?$AAt?$AA?3?$AA?3?$AAo?$AAu?$AAt?$AAp?$AAu?$AAt?$AA_?$AAp?$AAr?$AAo?$AAc?$AAe@ 10059c10     libucrtd:output.obj
 0002:00007de8       ??_C@_1BMG@BBEFGBID@?$AA_?$AA_?$AAc?$AAr?$AAt?$AA_?$AAs?$AAt?$AAd?$AAi?$AAo?$AA_?$AAo?$AAu?$AAt?$AAp?$AAu?$AAt?$AA?3?$AA?3?$AAo?$AAu?$AAt?$AAp?$AAu?$AAt?$AA_?$AAp?$AAr?$AAo?$AAc?$AAe@ 10059de8     libucrtd:output.obj
 0002:00007fb0       ??_C@_1BNO@NAODCKFA@?$AA_?$AA_?$AAc?$AAr?$AAt?$AA_?$AAs?$AAt?$AAd?$AAi?$AAo?$AA_?$AAo?$AAu?$AAt?$AAp?$AAu?$AAt?$AA?3?$AA?3?$AAo?$AAu?$AAt?$AAp?$AAu?$AAt?$AA_?$AAp?$AAr?$AAo?$AAc?$AAe@ 10059fb0     libucrtd:output.obj
 0002:00008190       ??_C@_1GE@DPGDJKLM@?$AAm?$AAi?$AAn?$AAk?$AAe?$AAr?$AAn?$AAe?$AAl?$AA?2?$AAc?$AAr?$AAt?$AAs?$AA?2?$AAu?$AAc?$AAr?$AAt?$AA?2?$AAi?$AAn?$AAc?$AA?2?$AAc?$AAo?$AAr?$AAe?$AAc?$AAr?$AAt?$AA_@ 1005a190     libucrtd:atox.obj
 0002:000081f8       ??_C@_1EO@MLJCKPIB@?$AAb?$AAa?$AAs?$AAe?$AA?5?$AA?$DN?$AA?$DN?$AA?5?$AA0?$AA?5?$AA?$HM?$AA?$HM?$AA?5?$AA?$CI?$AA2?$AA?5?$AA?$DM?$AA?$DN?$AA?5?$AAb?$AAa?$AAs?$AAe?$AA?5?$AA?$CG?$AA?$CG?$AA?5?$AAb?$AAa?$AAs?$AAe?$AA?5@ 1005a1f8     libucrtd:atox.obj
 0002:00008248       ??_C@_1DI@BANODKFL@?$AA_?$AA_?$AAc?$AAr?$AAt?$AA_?$AAs?$AAt?$AAr?$AAt?$AAo?$AAx?$AA?3?$AA?3?$AAp?$AAa?$AAr?$AAs?$AAe?$AA_?$AAi?$AAn?$AAt?$AAe?$AAg?$AAe?$AAr?$AA?$AA@ 1005a248     libucrtd:atox.obj
 0002:00008280       ??_C@_1BM@PNEBBBDO@?$AA_?$AAp?$AA?5?$AA?$CB?$AA?$DN?$AA?5?$AAn?$AAu?$AAl?$AAl?$AAp?$AAt?$AAr?$AA?$AA@ 1005a280     libucrtd:atox.obj
 0002:000082a0       ??_C@_1HA@MKKIHBHP@?$AA_?$AA_?$AAc?$AAr?$AAt?$AA_?$AAs?$AAt?$AAr?$AAt?$AAo?$AAx?$AA?3?$AA?3?$AAc?$AA_?$AAs?$AAt?$AAr?$AAi?$AAn?$AAg?$AA_?$AAc?$AAh?$AAa?$AAr?$AAa?$AAc?$AAt?$AAe?$AAr@ 1005a2a0     libucrtd:atox.obj
 0002:00008310       ??_C@_1CM@GJENOOEJ@?$AAc?$AA?5?$AA?$DN?$AA?$DN?$AA?5?$AA?8?$AA?2?$AA0?$AA?8?$AA?5?$AA?$HM?$AA?$HM?$AA?5?$AA?$CK?$AA_?$AAp?$AA?5?$AA?$DN?$AA?$DN?$AA?5?$AAc?$AA?$AA@ 1005a310     libucrtd:atox.obj
 0002:00008340       ??_C@_1GK@MNHIDABG@?$AA_?$AA_?$AAc?$AAr?$AAt?$AA_?$AAs?$AAt?$AAr?$AAt?$AAo?$AAx?$AA?3?$AA?3?$AAc?$AA_?$AAs?$AAt?$AAr?$AAi?$AAn?$AAg?$AA_?$AAc?$AAh?$AAa?$AAr?$AAa?$AAc?$AAt?$AAe?$AAr@ 1005a340     libucrtd:atox.obj
 0002:000083b0       ??_C@_1HG@FCDBLOEG@?$AA_?$AA_?$AAc?$AAr?$AAt?$AA_?$AAs?$AAt?$AAr?$AAt?$AAo?$AAx?$AA?3?$AA?3?$AAc?$AA_?$AAs?$AAt?$AAr?$AAi?$AAn?$AAg?$AA_?$AAc?$AAh?$AAa?$AAr?$AAa?$AAc?$AAt?$AAe?$AAr@ 1005a3b0     libucrtd:atox.obj
 0002:00008428       ??_C@_1HA@CONLANFI@?$AA_?$AA_?$AAc?$AAr?$AAt?$AA_?$AAs?$AAt?$AAr?$AAt?$AAo?$AAx?$AA?3?$AA?3?$AAc?$AA_?$AAs?$AAt?$AAr?$AAi?$AAn?$AAg?$AA_?$AAc?$AAh?$AAa?$AAr?$AAa?$AAc?$AAt?$AAe?$AAr@ 1005a428     libucrtd:atox.obj
 0002:000084c0       ??_C@_1IC@DCNEKBE@?$AAm?$AAi?$AAn?$AAk?$AAe?$AAr?$AAn?$AAe?$AAl?$AA?2?$AAc?$AAr?$AAt?$AAs?$AA?2?$AAu?$AAc?$AAr?$AAt?$AA?2?$AAs?$AAr?$AAc?$AA?2?$AAa?$AAp?$AAp?$AAc?$AAr?$AAt?$AA?2?$AAi@ 1005a4c0     libucrtd:report_runtime_error.obj
 0002:00008544       ??_C@_1DI@BLFJHKKP@?$AA_?$AA_?$AAa?$AAc?$AAr?$AAt?$AA_?$AAr?$AAe?$AAp?$AAo?$AAr?$AAt?$AA_?$AAr?$AAu?$AAn?$AAt?$AAi?$AAm?$AAe?$AA_?$AAe?$AAr?$AAr?$AAo?$AAr?$AA?$AA@ 1005a544     libucrtd:report_runtime_error.obj
 0002:00008580       ??_C@_1LE@MHPGJGKE@?$AAw?$AAc?$AAs?$AAc?$AAp?$AAy?$AA_?$AAs?$AA?$CI?$AAo?$AAu?$AAt?$AAm?$AAs?$AAg?$AA?0?$AA?5?$AA?$CI?$AAs?$AAi?$AAz?$AAe?$AAo?$AAf?$AA?$CI?$AA?$CK?$AA_?$AA_?$AAc?$AAo?$AAu?$AAn@ 1005a580     libucrtd:report_runtime_error.obj
 0002:00008634       ??_C@_1DE@JNGNBFGO@?$AAR?$AAu?$AAn?$AAt?$AAi?$AAm?$AAe?$AA?5?$AAE?$AAr?$AAr?$AAo?$AAr?$AA?$CB?$AA?6?$AA?6?$AAP?$AAr?$AAo?$AAg?$AAr?$AAa?$AAm?$AA?3?$AA?5?$AA?$AA@ 1005a634     libucrtd:report_runtime_error.obj
 0002:00008668       ??_C@_1HK@FJJNAABO@?$AAw?$AAc?$AAs?$AAc?$AAp?$AAy?$AA_?$AAs?$AA?$CI?$AAp?$AAr?$AAo?$AAg?$AAn?$AAa?$AAm?$AAe?$AA?0?$AA?5?$AAp?$AAr?$AAo?$AAg?$AAn?$AAa?$AAm?$AAe?$AA_?$AAs?$AAi?$AAz?$AAe@ 1005a668     libucrtd:report_runtime_error.obj
 0002:000086e8       ??_C@_1HI@FLHKGEBE@?$AAw?$AAc?$AAs?$AAn?$AAc?$AAp?$AAy?$AA_?$AAs?$AA?$CI?$AAp?$AAc?$AAh?$AA?0?$AA?5?$AAp?$AAr?$AAo?$AAg?$AAn?$AAa?$AAm?$AAe?$AA_?$AAs?$AAi?$AAz?$AAe?$AA?5?$AA?9?$AA?5?$AA?$CI@ 1005a6e8     libucrtd:report_runtime_error.obj
 0002:00008760       ??_C@_1IG@MNNKBLBI@?$AAw?$AAc?$AAs?$AAc?$AAa?$AAt?$AA_?$AAs?$AA?$CI?$AAo?$AAu?$AAt?$AAm?$AAs?$AAg?$AA?0?$AA?5?$AA?$CI?$AAs?$AAi?$AAz?$AAe?$AAo?$AAf?$AA?$CI?$AA?$CK?$AA_?$AA_?$AAc?$AAo?$AAu?$AAn@ 1005a760     libucrtd:report_runtime_error.obj
 0002:000087e8       ??_C@_1IG@DFBBBDAN@?$AAw?$AAc?$AAs?$AAc?$AAa?$AAt?$AA_?$AAs?$AA?$CI?$AAo?$AAu?$AAt?$AAm?$AAs?$AAg?$AA?0?$AA?5?$AA?$CI?$AAs?$AAi?$AAz?$AAe?$AAo?$AAf?$AA?$CI?$AA?$CK?$AA_?$AA_?$AAc?$AAo?$AAu?$AAn@ 1005a7e8     libucrtd:report_runtime_error.obj
 0002:000089d8       ??_C@_1CE@MCCHPLBM@?$AAb?$AAu?$AAf?$AAf?$AAe?$AAr?$AA?5?$AA?$CB?$AA?$DN?$AA?5?$AAn?$AAu?$AAl?$AAl?$AAp?$AAt?$AAr?$AA?$AA@ 1005a9d8     libucrtd:xtoa.obj
 0002:00008a00       ??_C@_1GA@HBEFGMHK@?$AAm?$AAi?$AAn?$AAk?$AAe?$AAr?$AAn?$AAe?$AAl?$AA?2?$AAc?$AAr?$AAt?$AAs?$AA?2?$AAu?$AAc?$AAr?$AAt?$AA?2?$AAs?$AAr?$AAc?$AA?2?$AAa?$AAp?$AAp?$AAc?$AAr?$AAt?$AA?2?$AAc@ 1005aa00     libucrtd:xtoa.obj
 0002:00008a60       ??_C@_1BM@HMPEMLNP@?$AAc?$AAo?$AAm?$AAm?$AAo?$AAn?$AA_?$AAx?$AAt?$AAo?$AAx?$AA_?$AAs?$AA?$AA@ 1005aa60     libucrtd:xtoa.obj
 0002:00008a7c       ??_C@_1CC@ONIJBMJF@?$AAb?$AAu?$AAf?$AAf?$AAe?$AAr?$AA_?$AAc?$AAo?$AAu?$AAn?$AAt?$AA?5?$AA?$DO?$AA?5?$AA0?$AA?$AA@ 1005aa7c     libucrtd:xtoa.obj
 0002:00008aa0       ??_C@_1HA@JFIOFNKD@?$AAb?$AAu?$AAf?$AAf?$AAe?$AAr?$AA_?$AAc?$AAo?$AAu?$AAn?$AAt?$AA?5?$AA?$DO?$AA?5?$AAs?$AAt?$AAa?$AAt?$AAi?$AAc?$AA_?$AAc?$AAa?$AAs?$AAt?$AA?$DM?$AAs?$AAi?$AAz?$AAe?$AA_@ 1005aaa0     libucrtd:xtoa.obj
 0002:00008b10       ??_C@_1DE@PCJGDBBD@?$AA2?$AA?5?$AA?$DM?$AA?$DN?$AA?5?$AAr?$AAa?$AAd?$AAi?$AAx?$AA?5?$AA?$CG?$AA?$CG?$AA?5?$AAr?$AAa?$AAd?$AAi?$AAx?$AA?5?$AA?$DM?$AA?$DN?$AA?5?$AA3?$AA6?$AA?$AA@ 1005ab10     libucrtd:xtoa.obj
 0002:00008b44       ??_C@_1CM@LONILNIJ@?$AAl?$AAe?$AAn?$AAg?$AAt?$AAh?$AA?5?$AA?$DM?$AA?5?$AAb?$AAu?$AAf?$AAf?$AAe?$AAr?$AA_?$AAc?$AAo?$AAu?$AAn?$AAt?$AA?$AA@ 1005ab44     libucrtd:xtoa.obj
 0002:00008b70       ??_C@_1BI@OLPLFKOE@?$AAc?$AAo?$AAm?$AAm?$AAo?$AAn?$AA_?$AAx?$AAt?$AAo?$AAx?$AA?$AA@ 1005ab70     libucrtd:xtoa.obj
 0002:00008b88       ??_C@_1DE@BCNCAIK@?$AA?$CI?$AA?$CC?$AAI?$AAn?$AAv?$AAa?$AAl?$AAi?$AAd?$AA?5?$AAe?$AAr?$AAr?$AAo?$AAr?$AA_?$AAm?$AAo?$AAd?$AAe?$AA?$CC?$AA?0?$AA?5?$AA0?$AA?$CJ?$AA?$AA@ 1005ab88     libucrtd:set_error_mode.obj
 0002:00008bc0       ??_C@_1GO@EBFPMMIJ@?$AAm?$AAi?$AAn?$AAk?$AAe?$AAr?$AAn?$AAe?$AAl?$AA?2?$AAc?$AAr?$AAt?$AAs?$AA?2?$AAu?$AAc?$AAr?$AAt?$AA?2?$AAs?$AAr?$AAc?$AA?2?$AAa?$AAp?$AAp?$AAc?$AAr?$AAt?$AA?2?$AAm@ 1005abc0     libucrtd:set_error_mode.obj
 0002:00008c30       ??_C@_1CA@LFDHAMEM@?$AA_?$AAs?$AAe?$AAt?$AA_?$AAe?$AAr?$AAr?$AAo?$AAr?$AA_?$AAm?$AAo?$AAd?$AAe?$AA?$AA@ 1005ac30     libucrtd:set_error_mode.obj
 0002:00008c50       ??_C@_1CA@EOJJMFA@?$AAc?$AAo?$AAm?$AAm?$AAo?$AAn?$AA_?$AAt?$AAc?$AAs?$AAc?$AAa?$AAt?$AA_?$AAs?$AA?$AA@ 1005ac50     libucrtd:wcscat_s.obj
 0002:00008c70       ??_C@_1DM@FHLMIEG@?$AAS?$AAt?$AAr?$AAi?$AAn?$AAg?$AA?5?$AAi?$AAs?$AA?5?$AAn?$AAo?$AAt?$AA?5?$AAn?$AAu?$AAl?$AAl?$AA?5?$AAt?$AAe?$AAr?$AAm?$AAi?$AAn?$AAa?$AAt?$AAe?$AAd?$AA?$AA@ 1005ac70     libucrtd:wcscat_s.obj
 0002:00008cb0       ??_C@_1FA@MJKDNFFB@?$AA?$CI?$AAL?$AA?$CC?$AAS?$AAt?$AAr?$AAi?$AAn?$AAg?$AA?5?$AAi?$AAs?$AA?5?$AAn?$AAo?$AAt?$AA?5?$AAn?$AAu?$AAl?$AAl?$AA?5?$AAt?$AAe?$AAr?$AAm?$AAi?$AAn?$AAa?$AAt?$AAe?$AAd@ 1005acb0     libucrtd:wcscat_s.obj
 0002:00008d00       ??_C@_1CC@HELMJGIF@?$AAc?$AAo?$AAm?$AAm?$AAo?$AAn?$AA_?$AAt?$AAc?$AAs?$AAn?$AAc?$AAa?$AAt?$AA_?$AAs?$AA?$AA@ 1005ad00     libucrtd:wcsncat_s.obj
 0002:00008d24       ??_C@_0CP@GDJHIDC@minkernel?2crts?2ucrt?2src?2appcrt?2s@ 1005ad24     libucrtd:_file.obj
 0002:00008d54       ??_C@_1DC@OGOLMDEL@?$AAp?$AAu?$AAb?$AAl?$AAi?$AAc?$AA_?$AAs?$AAt?$AAr?$AAe?$AAa?$AAm?$AA?5?$AA?$CB?$AA?$DN?$AA?5?$AAn?$AAu?$AAl?$AAl?$AAp?$AAt?$AAr?$AA?$AA@ 1005ad54     libucrtd:_file.obj
 0002:00008d88       ??_C@_1BO@MHPFFFJJ@?$AAs?$AAt?$AAr?$AAe?$AAa?$AAm?$AA?4?$AAv?$AAa?$AAl?$AAi?$AAd?$AA?$CI?$AA?$CJ?$AA?$AA@ 1005ad88     libucrtd:setvbuf.obj
 0002:00008da8       ??_C@_1GC@NAMEPLDD@?$AAm?$AAi?$AAn?$AAk?$AAe?$AAr?$AAn?$AAe?$AAl?$AA?2?$AAc?$AAr?$AAt?$AAs?$AA?2?$AAu?$AAc?$AAr?$AAt?$AA?2?$AAs?$AAr?$AAc?$AA?2?$AAa?$AAp?$AAp?$AAc?$AAr?$AAt?$AA?2?$AAs@ 1005ada8     libucrtd:setvbuf.obj
 0002:00008e0c       ??_C@_1BA@OGODIODK@?$AAs?$AAe?$AAt?$AAv?$AAb?$AAu?$AAf?$AA?$AA@ 1005ae0c     libucrtd:setvbuf.obj
 0002:00008e20       ??_C@_1GG@CBGCKJPC@?$AAt?$AAy?$AAp?$AAe?$AA?5?$AA?$DN?$AA?$DN?$AA?5?$AA_?$AAI?$AAO?$AAN?$AAB?$AAF?$AA?5?$AA?$HM?$AA?$HM?$AA?5?$AAt?$AAy?$AAp?$AAe?$AA?5?$AA?$DN?$AA?$DN?$AA?5?$AA_?$AAI?$AAO?$AAF?$AAB?$AAF@ 1005ae20     libucrtd:setvbuf.obj
 0002:00008e88       ??_C@_1HK@PBPJKDDM@?$AA2?$AA?5?$AA?$DM?$AA?$DN?$AA?5?$AAb?$AAu?$AAf?$AAf?$AAe?$AAr?$AA_?$AAs?$AAi?$AAz?$AAe?$AA_?$AAi?$AAn?$AA_?$AAb?$AAy?$AAt?$AAe?$AAs?$AA?5?$AA?$CG?$AA?$CG?$AA?5?$AAb?$AAu?$AAf@ 1005ae88     libucrtd:setvbuf.obj
 0002:00008f04       ??_C@_0DB@BJFCCEBD@minkernel?2crts?2ucrt?2src?2appcrt?2s@ 1005af04     libucrtd:setvbuf.obj
 0002:00008f38       ??_C@_1DA@NBILLKNO@?$AAl?$AAo?$AAc?$AAa?$AAl?$AA_?$AAa?$AAc?$AAt?$AAi?$AAo?$AAn?$AA?5?$AA?$CB?$AA?$DN?$AA?5?$AAn?$AAu?$AAl?$AAl?$AAp?$AAt?$AAr?$AA?$AA@ 1005af38     libucrtd:signal.obj
 0002:00008f68       ??_C@_1FO@CCGDPEKE@?$AAm?$AAi?$AAn?$AAk?$AAe?$AAr?$AAn?$AAe?$AAl?$AA?2?$AAc?$AAr?$AAt?$AAs?$AA?2?$AAu?$AAc?$AAr?$AAt?$AA?2?$AAs?$AAr?$AAc?$AA?2?$AAa?$AAp?$AAp?$AAc?$AAr?$AAt?$AA?2?$AAm@ 1005af68     libucrtd:signal.obj
 0002:00008fc8       ??_C@_1M@DMJEIKHL@?$AAr?$AAa?$AAi?$AAs?$AAe?$AA?$AA@ 1005afc8     libucrtd:signal.obj
 0002:00008fd4       ??_C@_1DO@MLNEDKGB@?$AA?$CI?$AA?$CC?$AAI?$AAn?$AAv?$AAa?$AAl?$AAi?$AAd?$AA?5?$AAs?$AAi?$AAg?$AAn?$AAa?$AAl?$AA?5?$AAo?$AAr?$AA?5?$AAe?$AAr?$AAr?$AAo?$AAr?$AA?$CC?$AA?0?$AA?5?$AA0?$AA?$CJ?$AA?$AA@ 1005afd4     libucrtd:signal.obj
 0002:00009050       __indefinite               1005b050     libucrtd:87disp.obj
 0002:0000905a       __piby2                    1005b05a     libucrtd:87disp.obj
 0002:00009064       __piby4                    1005b064     libucrtd:87disp.obj
 0002:000090a0       ___acrt_acos_asin_tbl_addr 1005b0a0     libucrtd:acos_asin_tbl_addr.obj
 0002:00009fa0       ___acrt_acos_asin_t_table  1005bfa0     libucrtd:acos_asin_t_table.obj
 0002:0000a7b0       ___acrt_cos_sin_ctable     1005c7b0     libucrtd:cos_sin_ctable.obj
 0002:0000afb4       __half                     1005cfb4     libucrtd:pow.obj
 0002:0000afc0       ___acrt_pow_rcp_t1         1005cfc0     libucrtd:pow_tables.obj
 0002:0000b3d0       ___acrt_pow_log2_t1        1005d3d0     libucrtd:pow_tables.obj
 0002:0000bbe0       ___acrt_pow_rcp_t2         1005dbe0     libucrtd:pow_tables.obj
 0002:0000bff0       ___acrt_pow_log2_t2        1005dff0     libucrtd:pow_tables.obj
 0002:0000c800       ___acrt_pow_rcp_t3         1005e800     libucrtd:pow_tables.obj
 0002:0000d010       ___acrt_pow_log2_t3        1005f010     libucrtd:pow_tables.obj
 0002:0000e020       ___acrt_pow_clv            10060020     libucrtd:pow_tables.obj
 0002:0000e040       ___acrt_pow_exp2_tbl       10060040     libucrtd:pow_tables.obj
 0002:0000e860       __d_inf                    10060860     libucrtd:util.obj
 0002:0000e868       __d_max                    10060868     libucrtd:util.obj
 0002:0000e870       __d_mzero                  10060870     libucrtd:util.obj
 0002:0000e890       ??_C@_0DM@DKIFNNOL@minkernel?2crts?2ucrt?2src?2appcrt?2i@ 10060890     libucrtd:per_thread_data.obj
 0002:0000e920       ??_C@_1EG@CNNIPFIM@?$AAa?$AAp?$AAi?$AA?9?$AAm?$AAs?$AA?9?$AAw?$AAi?$AAn?$AA?9?$AAa?$AAp?$AAp?$AAm?$AAo?$AAd?$AAe?$AAl?$AA?9?$AAr?$AAu?$AAn?$AAt?$AAi?$AAm?$AAe?$AA?9?$AAl?$AA1?$AA?9?$AA1@ 10060920     libucrtd:winapi_thunks.obj
 0002:0000e968       ??_C@_1EA@JGEFHKEI@?$AAa?$AAp?$AAi?$AA?9?$AAm?$AAs?$AA?9?$AAw?$AAi?$AAn?$AA?9?$AAc?$AAo?$AAr?$AAe?$AA?9?$AAd?$AAa?$AAt?$AAe?$AAt?$AAi?$AAm?$AAe?$AA?9?$AAl?$AA1?$AA?9?$AA1?$AA?9?$AA1?$AA?$AA@ 10060968     libucrtd:winapi_thunks.obj
 0002:0000e9a8       ??_C@_1EI@MPIAOHOC@?$AAa?$AAp?$AAi?$AA?9?$AAm?$AAs?$AA?9?$AAw?$AAi?$AAn?$AA?9?$AAc?$AAo?$AAr?$AAe?$AA?9?$AAl?$AAo?$AAc?$AAa?$AAl?$AAi?$AAz?$AAa?$AAt?$AAi?$AAo?$AAn?$AA?9?$AAl?$AA1?$AA?9@ 100609a8     libucrtd:winapi_thunks.obj
 0002:0000e9f0       ??_C@_1FK@FPHCKFIE@?$AAa?$AAp?$AAi?$AA?9?$AAm?$AAs?$AA?9?$AAw?$AAi?$AAn?$AA?9?$AAc?$AAo?$AAr?$AAe?$AA?9?$AAl?$AAo?$AAc?$AAa?$AAl?$AAi?$AAz?$AAa?$AAt?$AAi?$AAo?$AAn?$AA?9?$AAo?$AAb?$AAs@ 100609f0     libucrtd:winapi_thunks.obj
 0002:0000ea50       ??_C@_1EM@DILCGIIO@?$AAa?$AAp?$AAi?$AA?9?$AAm?$AAs?$AA?9?$AAw?$AAi?$AAn?$AA?9?$AAc?$AAo?$AAr?$AAe?$AA?9?$AAp?$AAr?$AAo?$AAc?$AAe?$AAs?$AAs?$AAt?$AAh?$AAr?$AAe?$AAa?$AAd?$AAs?$AA?9?$AAl@ 10060a50     libucrtd:winapi_thunks.obj
 0002:0000ea9c       ??_C@_1DM@LNCGDDPN@?$AAa?$AAp?$AAi?$AA?9?$AAm?$AAs?$AA?9?$AAw?$AAi?$AAn?$AA?9?$AAc?$AAo?$AAr?$AAe?$AA?9?$AAs?$AAt?$AAr?$AAi?$AAn?$AAg?$AA?9?$AAl?$AA1?$AA?9?$AA1?$AA?9?$AA0?$AA?$AA@ 10060a9c     libucrtd:winapi_thunks.obj
 0002:0000ead8       ??_C@_1DO@FPAPJEMD@?$AAa?$AAp?$AAi?$AA?9?$AAm?$AAs?$AA?9?$AAw?$AAi?$AAn?$AA?9?$AAc?$AAo?$AAr?$AAe?$AA?9?$AAs?$AAy?$AAs?$AAi?$AAn?$AAf?$AAo?$AA?9?$AAl?$AA1?$AA?9?$AA2?$AA?9?$AA1?$AA?$AA@ 10060ad8     libucrtd:winapi_thunks.obj
 0002:0000eb18       ??_C@_1DK@NDHNAHIO@?$AAa?$AAp?$AAi?$AA?9?$AAm?$AAs?$AA?9?$AAw?$AAi?$AAn?$AA?9?$AAc?$AAo?$AAr?$AAe?$AA?9?$AAw?$AAi?$AAn?$AAr?$AAt?$AA?9?$AAl?$AA1?$AA?9?$AA1?$AA?9?$AA0?$AA?$AA@ 10060b18     libucrtd:winapi_thunks.obj
 0002:0000eb54       ??_C@_1DM@KGHDGBCM@?$AAa?$AAp?$AAi?$AA?9?$AAm?$AAs?$AA?9?$AAw?$AAi?$AAn?$AA?9?$AAc?$AAo?$AAr?$AAe?$AA?9?$AAx?$AAs?$AAt?$AAa?$AAt?$AAe?$AA?9?$AAl?$AA2?$AA?9?$AA1?$AA?9?$AA0?$AA?$AA@ 10060b54     libucrtd:winapi_thunks.obj
 0002:0000eb90       ??_C@_1EO@IJIOEFOH@?$AAa?$AAp?$AAi?$AA?9?$AAm?$AAs?$AA?9?$AAw?$AAi?$AAn?$AA?9?$AAr?$AAt?$AAc?$AAo?$AAr?$AAe?$AA?9?$AAn?$AAt?$AAu?$AAs?$AAe?$AAr?$AA?9?$AAw?$AAi?$AAn?$AAd?$AAo?$AAw?$AA?9@ 10060b90     libucrtd:winapi_thunks.obj
 0002:0000ebe0       ??_C@_1FG@HHGEKANL@?$AAa?$AAp?$AAi?$AA?9?$AAm?$AAs?$AA?9?$AAw?$AAi?$AAn?$AA?9?$AAs?$AAe?$AAc?$AAu?$AAr?$AAi?$AAt?$AAy?$AA?9?$AAs?$AAy?$AAs?$AAt?$AAe?$AAm?$AAf?$AAu?$AAn?$AAc?$AAt?$AAi@ 10060be0     libucrtd:winapi_thunks.obj
 0002:0000ec38       ??_C@_1FG@NCKKOLKO@?$AAe?$AAx?$AAt?$AA?9?$AAm?$AAs?$AA?9?$AAw?$AAi?$AAn?$AA?9?$AAk?$AAe?$AAr?$AAn?$AAe?$AAl?$AA3?$AA2?$AA?9?$AAp?$AAa?$AAc?$AAk?$AAa?$AAg?$AAe?$AA?9?$AAc?$AAu?$AAr?$AAr@ 10060c38     libucrtd:winapi_thunks.obj
 0002:0000ec90       ??_C@_1EG@DBIOJECG@?$AAe?$AAx?$AAt?$AA?9?$AAm?$AAs?$AA?9?$AAw?$AAi?$AAn?$AA?9?$AAn?$AAt?$AAu?$AAs?$AAe?$AAr?$AA?9?$AAd?$AAi?$AAa?$AAl?$AAo?$AAg?$AAb?$AAo?$AAx?$AA?9?$AAl?$AA1?$AA?9?$AA1@ 10060c90     libucrtd:winapi_thunks.obj
 0002:0000ecd8       ??_C@_1EO@FIHMJCLF@?$AAe?$AAx?$AAt?$AA?9?$AAm?$AAs?$AA?9?$AAw?$AAi?$AAn?$AA?9?$AAn?$AAt?$AAu?$AAs?$AAe?$AAr?$AA?9?$AAw?$AAi?$AAn?$AAd?$AAo?$AAw?$AAs?$AAt?$AAa?$AAt?$AAi?$AAo?$AAn?$AA?9@ 10060cd8     libucrtd:winapi_thunks.obj
 0002:0000ed28       ??_C@_1O@BCCLBEOE@?$AAu?$AAs?$AAe?$AAr?$AA3?$AA2?$AA?$AA@ 10060d28     libucrtd:winapi_thunks.obj
 0002:0000ed38       ??_C@_1HE@OILMBOBA@?$AAm?$AAi?$AAn?$AAk?$AAe?$AAr?$AAn?$AAe?$AAl?$AA?2?$AAc?$AAr?$AAt?$AAs?$AA?2?$AAu?$AAc?$AAr?$AAt?$AA?2?$AAs?$AAr?$AAc?$AA?2?$AAa?$AAp?$AAp?$AAc?$AAr?$AAt?$AA?2?$AAi@ 10060d38     libucrtd:winapi_thunks.obj
 0002:0000edd4       ??_C@_0BA@HNOPNCHB@GetActiveWindow?$AA@ 10060dd4     libucrtd:winapi_thunks.obj
 0002:0000edec       ??_C@_0BE@JOGNEJCI@GetCurrentPackageId?$AA@ 10060dec     libucrtd:winapi_thunks.obj
 0002:0000ee08       ??_C@_0BD@HHGDFDBJ@GetLastActivePopup?$AA@ 10060e08     libucrtd:winapi_thunks.obj
 0002:0000ee24       ??_C@_0BI@DFKBFLJE@GetProcessWindowStation?$AA@ 10060e24     libucrtd:winapi_thunks.obj
 0002:0000ee44       ??_C@_0BK@DEKFELLI@GetUserObjectInformationW?$AA@ 10060e44     libucrtd:winapi_thunks.obj
 0002:0000ee70       ??_C@_0O@KKBNKAPF@LCMapStringEx?$AA@ 10060e70     libucrtd:winapi_thunks.obj
 0002:0000ee88       ??_C@_0BB@HBDEELFH@LocaleNameToLCID?$AA@ 10060e88     libucrtd:winapi_thunks.obj
 0002:0000eea4       ??_C@_0M@CHKKJDAI@MessageBoxA?$AA@ 10060ea4     libucrtd:winapi_thunks.obj
 0002:0000eeb8       ??_C@_0M@DLDCCGNP@MessageBoxW?$AA@ 10060eb8     libucrtd:winapi_thunks.obj
 0002:0000eec4       ??_C@_1DC@JKJAOJNC@?$AAc?$AAa?$AAc?$AAh?$AAe?$AAd?$AA_?$AAs?$AAt?$AAa?$AAt?$AAe?$AA?5?$AA?$DN?$AA?$DN?$AA?5?$AAp?$AAa?$AAc?$AAk?$AAa?$AAg?$AAe?$AAd?$AA?$AA@ 10060ec4     libucrtd:winapi_thunks.obj
 0002:0000eef8       ??_C@_1DK@JOPMHFDB@?$AAc?$AAa?$AAc?$AAh?$AAe?$AAd?$AA_?$AAs?$AAt?$AAa?$AAt?$AAe?$AA?5?$AA?$DN?$AA?$DN?$AA?5?$AAn?$AAo?$AAt?$AA_?$AAp?$AAa?$AAc?$AAk?$AAa?$AAg?$AAe?$AAd?$AA?$AA@ 10060ef8     libucrtd:winapi_thunks.obj
 0002:0000ef44       ??_C@_1M@HPNHIDJI@?$AAj?$AAa?$AA?9?$AAJ?$AAP?$AA?$AA@ 10060f44     libucrtd:mbctype.obj
 0002:0000ef50       ??_C@_1M@BIBDDEMK@?$AAz?$AAh?$AA?9?$AAC?$AAN?$AA?$AA@ 10060f50     libucrtd:mbctype.obj
 0002:0000ef5c       ??_C@_1M@JLOOOEGK@?$AAk?$AAo?$AA?9?$AAK?$AAR?$AA?$AA@ 10060f5c     libucrtd:mbctype.obj
 0002:0000ef68       ??_C@_1M@CLNBBOPM@?$AAz?$AAh?$AA?9?$AAT?$AAW?$AA?$AA@ 10060f68     libucrtd:mbctype.obj
 0002:0000ef74       ??_C@_0DE@HGDKNBFD@minkernel?2crts?2ucrt?2src?2appcrt?2m@ 10060f74     libucrtd:mbctype.obj
 0002:0000efa8       ??_C@_0ED@BLPEHJAI@minkernel?2crts?2ucrt?2src?2desktopc@ 10060fa8     libucrtd:get_environment_from_os.obj
 0002:0000efec       ??_C@_03KOEHGMDN@Sun?$AA@  10060fec     libucrtd:nlsdata.obj
 0002:0000eff0       ??_C@_03PDAGKDH@Mon?$AA@   10060ff0     libucrtd:nlsdata.obj
 0002:0000eff4       ??_C@_03NAGEINEP@Tue?$AA@  10060ff4     libucrtd:nlsdata.obj
 0002:0000eff8       ??_C@_03MHOMLAJA@Wed?$AA@  10060ff8     libucrtd:nlsdata.obj
 0002:0000effc       ??_C@_03IOFIKPDN@Thu?$AA@  10060ffc     libucrtd:nlsdata.obj
 0002:0000f000       ??_C@_03IDIOELNC@Fri?$AA@  10061000     libucrtd:nlsdata.obj
 0002:0000f004       ??_C@_03FEFJNEK@Sat?$AA@   10061004     libucrtd:nlsdata.obj
 0002:0000f008       ??_C@_06OOPIFAJ@Sunday?$AA@ 10061008     libucrtd:nlsdata.obj
 0002:0000f010       ??_C@_06JLEDEDGH@Monday?$AA@ 10061010     libucrtd:nlsdata.obj
 0002:0000f018       ??_C@_07BAAGCFCM@Tuesday?$AA@ 10061018     libucrtd:nlsdata.obj
 0002:0000f020       ??_C@_09DLIGFAKA@Wednesday?$AA@ 10061020     libucrtd:nlsdata.obj
 0002:0000f02c       ??_C@_08HACCIKIA@Thursday?$AA@ 1006102c     libucrtd:nlsdata.obj
 0002:0000f038       ??_C@_06JECMNKMI@Friday?$AA@ 10061038     libucrtd:nlsdata.obj
 0002:0000f040       ??_C@_08INBOOONO@Saturday?$AA@ 10061040     libucrtd:nlsdata.obj
 0002:0000f04c       ??_C@_03JIHJHPIE@Jan?$AA@  1006104c     libucrtd:nlsdata.obj
 0002:0000f050       ??_C@_03HJBDCHOM@Feb?$AA@  10061050     libucrtd:nlsdata.obj
 0002:0000f054       ??_C@_03ODNJBKGA@Mar?$AA@  10061054     libucrtd:nlsdata.obj
 0002:0000f058       ??_C@_03LEOLGMJP@Apr?$AA@  10061058     libucrtd:nlsdata.obj
 0002:0000f05c       ??_C@_03CNMDKL@May?$AA@    1006105c     libucrtd:nlsdata.obj
 0002:0000f060       ??_C@_03IDFGHECI@Jun?$AA@  10061060     libucrtd:nlsdata.obj
 0002:0000f064       ??_C@_03LBGABGKK@Jul?$AA@  10061064     libucrtd:nlsdata.obj
 0002:0000f068       ??_C@_03IFJFEIGA@Aug?$AA@  10061068     libucrtd:nlsdata.obj
 0002:0000f06c       ??_C@_03GGCAPAJC@Sep?$AA@  1006106c     libucrtd:nlsdata.obj
 0002:0000f070       ??_C@_03BMAOKBAD@Oct?$AA@  10061070     libucrtd:nlsdata.obj
 0002:0000f074       ??_C@_03JPJOFNIA@Nov?$AA@  10061074     libucrtd:nlsdata.obj
 0002:0000f078       ??_C@_03MKABNOCG@Dec?$AA@  10061078     libucrtd:nlsdata.obj
 0002:0000f07c       ??_C@_07CGJPFGJA@January?$AA@ 1006107c     libucrtd:nlsdata.obj
 0002:0000f084       ??_C@_08GNJGEPFN@February?$AA@ 10061084     libucrtd:nlsdata.obj
 0002:0000f090       ??_C@_05HPCKOFNC@March?$AA@ 10061090     libucrtd:nlsdata.obj
 0002:0000f098       ??_C@_05DMJDNLEJ@April?$AA@ 10061098     libucrtd:nlsdata.obj
 0002:0000f0a0       ??_C@_04CNLMGBGM@June?$AA@ 100610a0     libucrtd:nlsdata.obj
 0002:0000f0a8       ??_C@_04MIEPOIFP@July?$AA@ 100610a8     libucrtd:nlsdata.obj
 0002:0000f0b0       ??_C@_06LBBHFDDG@August?$AA@ 100610b0     libucrtd:nlsdata.obj
 0002:0000f0b8       ??_C@_09BHHEALKD@September?$AA@ 100610b8     libucrtd:nlsdata.obj
 0002:0000f0c4       ??_C@_07JJNFCEND@October?$AA@ 100610c4     libucrtd:nlsdata.obj
 0002:0000f0cc       ??_C@_08HCHEGEOA@November?$AA@ 100610cc     libucrtd:nlsdata.obj
 0002:0000f0d8       ??_C@_08EDHMEBNP@December?$AA@ 100610d8     libucrtd:nlsdata.obj
 0002:0000f0e4       ??_C@_02DEDBPAFC@AM?$AA@   100610e4     libucrtd:nlsdata.obj
 0002:0000f0e8       ??_C@_02CJNFDJBF@PM?$AA@   100610e8     libucrtd:nlsdata.obj
 0002:0000f0ec       ??_C@_08BPBNCDIB@MM?1dd?1yy?$AA@ 100610ec     libucrtd:nlsdata.obj
 0002:0000f0f8       ??_C@_0BE@CKGJFCPC@dddd?0?5MMMM?5dd?0?5yyyy?$AA@ 100610f8     libucrtd:nlsdata.obj
 0002:0000f10c       ??_C@_08JCCMCCIL@HH?3mm?3ss?$AA@ 1006110c     libucrtd:nlsdata.obj
 0002:0000f118       ??_C@_17MBGCMIPB@?$AAS?$AAu?$AAn?$AA?$AA@ 10061118     libucrtd:nlsdata.obj
 0002:0000f120       ??_C@_17KBOMKBF@?$AAM?$AAo?$AAn?$AA?$AA@ 10061120     libucrtd:nlsdata.obj
 0002:0000f128       ??_C@_17BMKGEGOJ@?$AAT?$AAu?$AAe?$AA?$AA@ 10061128     libucrtd:nlsdata.obj
 0002:0000f130       ??_C@_17CJEDCEPE@?$AAW?$AAe?$AAd?$AA?$AA@ 10061130     libucrtd:nlsdata.obj
 0002:0000f138       ??_C@_17PDPHAADD@?$AAT?$AAh?$AAu?$AA?$AA@ 10061138     libucrtd:nlsdata.obj
 0002:0000f140       ??_C@_17HFOLPPLP@?$AAF?$AAr?$AAi?$AA?$AA@ 10061140     libucrtd:nlsdata.obj
 0002:0000f148       ??_C@_17GGIBDPIH@?$AAS?$AAa?$AAt?$AA?$AA@ 10061148     libucrtd:nlsdata.obj
 0002:0000f150       ??_C@_1O@IHNHDHPB@?$AAS?$AAu?$AAn?$AAd?$AAa?$AAy?$AA?$AA@ 10061150     libucrtd:nlsdata.obj
 0002:0000f160       ??_C@_1O@MMNBFLIA@?$AAM?$AAo?$AAn?$AAd?$AAa?$AAy?$AA?$AA@ 10061160     libucrtd:nlsdata.obj
 0002:0000f170       ??_C@_1BA@ENFBFFEK@?$AAT?$AAu?$AAe?$AAs?$AAd?$AAa?$AAy?$AA?$AA@ 10061170     libucrtd:nlsdata.obj
 0002:0000f180       ??_C@_1BE@EBOGMDOH@?$AAW?$AAe?$AAd?$AAn?$AAe?$AAs?$AAd?$AAa?$AAy?$AA?$AA@ 10061180     libucrtd:nlsdata.obj
 0002:0000f194       ??_C@_1BC@HHMNLIHE@?$AAT?$AAh?$AAu?$AAr?$AAs?$AAd?$AAa?$AAy?$AA?$AA@ 10061194     libucrtd:nlsdata.obj
 0002:0000f1a8       ??_C@_1O@PDICJHAG@?$AAF?$AAr?$AAi?$AAd?$AAa?$AAy?$AA?$AA@ 100611a8     libucrtd:nlsdata.obj
 0002:0000f1b8       ??_C@_1BC@ENMNNPAJ@?$AAS?$AAa?$AAt?$AAu?$AAr?$AAd?$AAa?$AAy?$AA?$AA@ 100611b8     libucrtd:nlsdata.obj
 0002:0000f1cc       ??_C@_17DKNBKCHM@?$AAJ?$AAa?$AAn?$AA?$AA@ 100611cc     libucrtd:nlsdata.obj
 0002:0000f1d4       ??_C@_17LMDJEKJN@?$AAF?$AAe?$AAb?$AA?$AA@ 100611d4     libucrtd:nlsdata.obj
 0002:0000f1dc       ??_C@_17CKNLEDEC@?$AAM?$AAa?$AAr?$AA?$AA@ 100611dc     libucrtd:nlsdata.obj
 0002:0000f1e4       ??_C@_17LFPOIHDD@?$AAA?$AAp?$AAr?$AA?$AA@ 100611e4     libucrtd:nlsdata.obj
 0002:0000f1ec       ??_C@_17PNNKMEED@?$AAM?$AAa?$AAy?$AA?$AA@ 100611ec     libucrtd:nlsdata.obj
 0002:0000f1f4       ??_C@_17KCJGOCPB@?$AAJ?$AAu?$AAn?$AA?$AA@ 100611f4     libucrtd:nlsdata.obj
 0002:0000f1fc       ??_C@_17IJPCKHK@?$AAJ?$AAu?$AAl?$AA?$AA@ 100611fc     libucrtd:nlsdata.obj
 0002:0000f204       ??_C@_17ICPELBCN@?$AAA?$AAu?$AAg?$AA?$AA@ 10061204     libucrtd:nlsdata.obj
 0002:0000f20c       ??_C@_17HCHCOKMG@?$AAS?$AAe?$AAp?$AA?$AA@ 1006120c     libucrtd:nlsdata.obj
 0002:0000f214       ??_C@_17FNLKOI@?$AAO?$AAc?$AAt?$AA?$AA@ 10061214     libucrtd:nlsdata.obj
 0002:0000f21c       ??_C@_17BBDMLCIG@?$AAN?$AAo?$AAv?$AA?$AA@ 1006121c     libucrtd:nlsdata.obj
 0002:0000f224       ??_C@_17EGKACKIF@?$AAD?$AAe?$AAc?$AA?$AA@ 10061224     libucrtd:nlsdata.obj
 0002:0000f22c       ??_C@_1BA@EFMEIEBA@?$AAJ?$AAa?$AAn?$AAu?$AAa?$AAr?$AAy?$AA?$AA@ 1006122c     libucrtd:nlsdata.obj
 0002:0000f23c       ??_C@_1BC@JGDDFFAM@?$AAF?$AAe?$AAb?$AAr?$AAu?$AAa?$AAr?$AAy?$AA?$AA@ 1006123c     libucrtd:nlsdata.obj
 0002:0000f250       ??_C@_1M@IKEENEDF@?$AAM?$AAa?$AAr?$AAc?$AAh?$AA?$AA@ 10061250     libucrtd:nlsdata.obj
 0002:0000f25c       ??_C@_1M@GJNLMHFD@?$AAA?$AAp?$AAr?$AAi?$AAl?$AA?$AA@ 1006125c     libucrtd:nlsdata.obj
 0002:0000f268       ??_C@_19EPFLPGAP@?$AAJ?$AAu?$AAn?$AAe?$AA?$AA@ 10061268     libucrtd:nlsdata.obj
 0002:0000f274       ??_C@_19BIFMLPCD@?$AAJ?$AAu?$AAl?$AAy?$AA?$AA@ 10061274     libucrtd:nlsdata.obj
 0002:0000f280       ??_C@_1O@PAHLKOAC@?$AAA?$AAu?$AAg?$AAu?$AAs?$AAt?$AA?$AA@ 10061280     libucrtd:nlsdata.obj
 0002:0000f290       ??_C@_1BE@DKAAMBJL@?$AAS?$AAe?$AAp?$AAt?$AAe?$AAm?$AAb?$AAe?$AAr?$AA?$AA@ 10061290     libucrtd:nlsdata.obj
 0002:0000f2a4       ??_C@_1BA@EPANDLNG@?$AAO?$AAc?$AAt?$AAo?$AAb?$AAe?$AAr?$AA?$AA@ 100612a4     libucrtd:nlsdata.obj
 0002:0000f2b4       ??_C@_1BC@BGLIFPF@?$AAN?$AAo?$AAv?$AAe?$AAm?$AAb?$AAe?$AAr?$AA?$AA@ 100612b4     libucrtd:nlsdata.obj
 0002:0000f2c8       ??_C@_1BC@FEMKIFH@?$AAD?$AAe?$AAc?$AAe?$AAm?$AAb?$AAe?$AAr?$AA?$AA@ 100612c8     libucrtd:nlsdata.obj
 0002:0000f2dc       ??_C@_15ODEHAHHF@?$AAA?$AAM?$AA?$AA@ 100612dc     libucrtd:nlsdata.obj
 0002:0000f2e4       ??_C@_15CLMNNGEL@?$AAP?$AAM?$AA?$AA@ 100612e4     libucrtd:nlsdata.obj
 0002:0000f2ec       ??_C@_1BC@IEBCMHCM@?$AAM?$AAM?$AA?1?$AAd?$AAd?$AA?1?$AAy?$AAy?$AA?$AA@ 100612ec     libucrtd:nlsdata.obj
 0002:0000f300       ??_C@_1CI@KNAKOEBC@?$AAd?$AAd?$AAd?$AAd?$AA?0?$AA?5?$AAM?$AAM?$AAM?$AAM?$AA?5?$AAd?$AAd?$AA?0?$AA?5?$AAy?$AAy?$AAy?$AAy?$AA?$AA@ 10061300     libucrtd:nlsdata.obj
 0002:0000f328       ??_C@_1BC@GDGBMEMK@?$AAH?$AAH?$AA?3?$AAm?$AAm?$AA?3?$AAs?$AAs?$AA?$AA@ 10061328     libucrtd:nlsdata.obj
 0002:0000f33c       ??_C@_1M@BMHNFIME@?$AAe?$AAn?$AA?9?$AAU?$AAS?$AA?$AA@ 1006133c     libucrtd:nlsdata.obj
 0002:0000f348       ___lc_time_c               10061348     libucrtd:nlsdata.obj
 0002:0000f4b0       ??_C@_1GC@GBMDABED@?$AAm?$AAi?$AAn?$AAk?$AAe?$AAr?$AAn?$AAe?$AAl?$AA?2?$AAc?$AAr?$AAt?$AAs?$AA?2?$AAu?$AAc?$AAr?$AAt?$AA?2?$AAs?$AAr?$AAc?$AA?2?$AAa?$AAp?$AAp?$AAc?$AAr?$AAt?$AA?2?$AAs@ 100614b0     libucrtd:_sftbuf.obj
 0002:0000f514       ??_C@_0DB@EPIHMFLB@minkernel?2crts?2ucrt?2src?2appcrt?2s@ 10061514     libucrtd:_sftbuf.obj
 0002:0000f548       ??_C@_1CI@JELMFMDH@?$AAc?$AA?5?$AA?$DO?$AA?$DN?$AA?5?$AA?9?$AA1?$AA?5?$AA?$CG?$AA?$CG?$AA?5?$AAc?$AA?5?$AA?$DM?$AA?$DN?$AA?5?$AA2?$AA5?$AA5?$AA?$AA@ 10061548     libucrtd:isctype.obj
 0002:0000f570       ??_C@_1GG@KPBGDFHJ@?$AAm?$AAi?$AAn?$AAk?$AAe?$AAr?$AAn?$AAe?$AAl?$AA?2?$AAc?$AAr?$AAt?$AAs?$AA?2?$AAu?$AAc?$AAr?$AAt?$AA?2?$AAs?$AAr?$AAc?$AA?2?$AAa?$AAp?$AAp?$AAc?$AAr?$AAt?$AA?2?$AAc@ 10061570     libucrtd:isctype.obj
 0002:0000f5d8       ??_C@_1FO@GEKPJHID@?$AAm?$AAi?$AAn?$AAk?$AAe?$AAr?$AAn?$AAe?$AAl?$AA?2?$AAc?$AAr?$AAt?$AAs?$AA?2?$AAu?$AAc?$AAr?$AAt?$AA?2?$AAs?$AAr?$AAc?$AA?2?$AAa?$AAp?$AAp?$AAc?$AAr?$AAt?$AA?2?$AAh@ 100615d8     libucrtd:expand.obj
 0002:0000f638       ??_C@_1BK@JMCGJOCC@?$AA_?$AAe?$AAx?$AAp?$AAa?$AAn?$AAd?$AA_?$AAb?$AAa?$AAs?$AAe?$AA?$AA@ 10061638     libucrtd:expand.obj
 0002:0000f658       ??_C@_1GA@LFAOKOOP@?$AAm?$AAi?$AAn?$AAk?$AAe?$AAr?$AAn?$AAe?$AAl?$AA?2?$AAc?$AAr?$AAt?$AAs?$AA?2?$AAu?$AAc?$AAr?$AAt?$AA?2?$AAs?$AAr?$AAc?$AA?2?$AAa?$AAp?$AAp?$AAc?$AAr?$AAt?$AA?2?$AAm@ 10061658     libucrtd:dbgrptt.obj
 0002:0000f6b8       ??_C@_1CA@KHJHLKA@?$AA_?$AAV?$AAC?$AAr?$AAt?$AAD?$AAb?$AAg?$AAR?$AAe?$AAp?$AAo?$AAr?$AAt?$AAA?$AA?$AA@ 100616b8     libucrtd:dbgrptt.obj
 0002:0000f6d8       ??_C@_1FA@JPHJBHEM@?$AA_?$AAi?$AAt?$AAo?$AAa?$AA_?$AAs?$AA?$CI?$AAn?$AAL?$AAi?$AAn?$AAe?$AA?0?$AA?5?$AAs?$AAz?$AAL?$AAi?$AAn?$AAe?$AAM?$AAe?$AAs?$AAs?$AAa?$AAg?$AAe?$AA?0?$AA?5?$AA4?$AA0@ 100616d8     libucrtd:dbgrptt.obj
 0002:0000f728       ??_C@_0CG@BNGLOCEO@Second?5Chance?5Assertion?5Failed?3?5@ 10061728     libucrtd:dbgrptt.obj
 0002:0000f750       ??_C@_0P@DFJNDPOP@?$DMfile?5unknown?$DO?$AA@ 10061750     libucrtd:dbgrptt.obj
 0002:0000f760       ??_C@_07BHGABMGB@?0?5Line?5?$AA@ 10061760     libucrtd:dbgrptt.obj
 0002:0000f768       ??_C@_1JI@GAALPGBM@?$AAs?$AAt?$AAr?$AAc?$AAp?$AAy?$AA_?$AAs?$AA?$CI?$AAs?$AAz?$AAU?$AAs?$AAe?$AAr?$AAM?$AAe?$AAs?$AAs?$AAa?$AAg?$AAe?$AA?0?$AA?5?$AA4?$AA0?$AA9?$AA6?$AA?0?$AA?5?$AA?$CC?$AA_@ 10061768     libucrtd:dbgrptt.obj
 0002:0000f800       ??_C@_0CL@EACFGMNB@_CrtDbgReport?3?5String?5too?5long?5o@ 10061800     libucrtd:dbgrptt.obj
 0002:0000f830       ??_C@_1KK@GIGAEDMO@?$AAs?$AAt?$AAr?$AAc?$AAp?$AAy?$AA_?$AAs?$AA?$CI?$AAs?$AAz?$AAL?$AAi?$AAn?$AAe?$AAM?$AAe?$AAs?$AAs?$AAa?$AAg?$AAe?$AA?0?$AA?5?$AA4?$AA0?$AA9?$AA6?$AA?0?$AA?5?$AAs?$AAz@ 10061830     libucrtd:dbgrptt.obj
 0002:0000f8dc       ??_C@_0BD@CAENFOHP@Assertion?5failed?3?5?$AA@ 100618dc     libucrtd:dbgrptt.obj
 0002:0000f8f0       ??_C@_1FK@NPGBPOFO@?$AAs?$AAt?$AAr?$AAc?$AAa?$AAt?$AA_?$AAs?$AA?$CI?$AAs?$AAz?$AAL?$AAi?$AAn?$AAe?$AAM?$AAe?$AAs?$AAs?$AAa?$AAg?$AAe?$AA?0?$AA?5?$AA4?$AA0?$AA9?$AA6?$AA?0?$AA?5?$AAs?$AAz@ 100618f0     libucrtd:dbgrptt.obj
 0002:0000f950       ??_C@_1EI@CACDLAFK@?$AAs?$AAt?$AAr?$AAc?$AAa?$AAt?$AA_?$AAs?$AA?$CI?$AAs?$AAz?$AAL?$AAi?$AAn?$AAe?$AAM?$AAe?$AAs?$AAs?$AAa?$AAg?$AAe?$AA?0?$AA?5?$AA4?$AA0?$AA9?$AA6?$AA?0?$AA?5?$AA?$CC?$AA?2@ 10061950     libucrtd:dbgrptt.obj
 0002:0000f998       ??_C@_01LIIJDEN@?$AN?$AA@  10061998     libucrtd:dbgrptt.obj
 0002:0000f9a0       ??_C@_1EI@LDHJEDO@?$AAs?$AAt?$AAr?$AAc?$AAa?$AAt?$AA_?$AAs?$AA?$CI?$AAs?$AAz?$AAL?$AAi?$AAn?$AAe?$AAM?$AAe?$AAs?$AAs?$AAa?$AAg?$AAe?$AA?0?$AA?5?$AA4?$AA0?$AA9?$AA6?$AA?0?$AA?5?$AA?$CC?$AA?2@ 100619a0     libucrtd:dbgrptt.obj
 0002:0000f9e8       ??_C@_0M@IPILFDFN@?$CFs?$CI?$CFd?$CJ?5?3?5?$CFs?$AA@ 100619e8     libucrtd:dbgrptt.obj
 0002:0000f9f8       ??_C@_1JG@CPKCIOEE@?$AAs?$AAt?$AAr?$AAc?$AAp?$AAy?$AA_?$AAs?$AA?$CI?$AAs?$AAz?$AAO?$AAu?$AAt?$AAM?$AAe?$AAs?$AAs?$AAa?$AAg?$AAe?$AA?0?$AA?5?$AA4?$AA0?$AA9?$AA6?$AA?0?$AA?5?$AA?$CC?$AA_?$AAC@ 100619f8     libucrtd:dbgrptt.obj
 0002:0000fa90       ??_C@_1FI@IBIOIHEG@?$AAs?$AAt?$AAr?$AAc?$AAp?$AAy?$AA_?$AAs?$AA?$CI?$AAs?$AAz?$AAO?$AAu?$AAt?$AAM?$AAe?$AAs?$AAs?$AAa?$AAg?$AAe?$AA?0?$AA?5?$AA4?$AA0?$AA9?$AA6?$AA?0?$AA?5?$AAs?$AAz?$AAL@ 10061a90     libucrtd:dbgrptt.obj
 0002:0000fae8       ??_C@_1IM@OOKIFKOH@?$AAe?$AA?5?$AA?$DN?$AA?5?$AAm?$AAb?$AAs?$AAt?$AAo?$AAw?$AAc?$AAs?$AA_?$AAs?$AA?$CI?$AA?$CG?$AAr?$AAe?$AAt?$AA?0?$AA?5?$AAs?$AAz?$AAO?$AAu?$AAt?$AAM?$AAe?$AAs?$AAs?$AAa?$AAg@ 10061ae8     libucrtd:dbgrptt.obj
 0002:0000fb78       ??_C@_1MC@IGEECMDB@?$AAw?$AAc?$AAs?$AAc?$AAp?$AAy?$AA_?$AAs?$AA?$CI?$AAs?$AAz?$AAO?$AAu?$AAt?$AAM?$AAe?$AAs?$AAs?$AAa?$AAg?$AAe?$AA2?$AA?0?$AA?5?$AA4?$AA0?$AA9?$AA6?$AA?0?$AA?5?$AAL?$AA?$CC@ 10061b78     libucrtd:dbgrptt.obj
 0002:0000fc40       ??_C@_1HO@PJOFIKFE@?$AA_?$AAC?$AAr?$AAt?$AAD?$AAb?$AAg?$AAR?$AAe?$AAp?$AAo?$AAr?$AAt?$AA?3?$AA?5?$AAS?$AAt?$AAr?$AAi?$AAn?$AAg?$AA?5?$AAt?$AAo?$AAo?$AA?5?$AAl?$AAo?$AAn?$AAg?$AA?5?$AAo@ 10061c40     libucrtd:dbgrptt.obj
 0002:0000fcc0       ??_C@_1CA@HPALHDOD@?$AA_?$AAV?$AAC?$AAr?$AAt?$AAD?$AAb?$AAg?$AAR?$AAe?$AAp?$AAo?$AAr?$AAt?$AAW?$AA?$AA@ 10061cc0     libucrtd:dbgrptt.obj
 0002:0000fce0       ??_C@_1FA@CNLLOMHI@?$AA_?$AAi?$AAt?$AAo?$AAw?$AA_?$AAs?$AA?$CI?$AAn?$AAL?$AAi?$AAn?$AAe?$AA?0?$AA?5?$AAs?$AAz?$AAL?$AAi?$AAn?$AAe?$AAM?$AAe?$AAs?$AAs?$AAa?$AAg?$AAe?$AA?0?$AA?5?$AA4?$AA0@ 10061ce0     libucrtd:dbgrptt.obj
 0002:0000fd30       ??_C@_1EM@MJFLEDMB@?$AAS?$AAe?$AAc?$AAo?$AAn?$AAd?$AA?5?$AAC?$AAh?$AAa?$AAn?$AAc?$AAe?$AA?5?$AAA?$AAs?$AAs?$AAe?$AAr?$AAt?$AAi?$AAo?$AAn?$AA?5?$AAF?$AAa?$AAi?$AAl?$AAe?$AAd?$AA?3?$AA?5@ 10061d30     libucrtd:dbgrptt.obj
 0002:0000fd7c       ??_C@_1BO@OCHMLCAG@?$AA?$DM?$AAf?$AAi?$AAl?$AAe?$AA?5?$AAu?$AAn?$AAk?$AAn?$AAo?$AAw?$AAn?$AA?$DO?$AA?$AA@ 10061d7c     libucrtd:dbgrptt.obj
 0002:0000fd9c       ??_C@_1BA@ELMMDCFC@?$AA?0?$AA?5?$AAL?$AAi?$AAn?$AAe?$AA?5?$AA?$AA@ 10061d9c     libucrtd:dbgrptt.obj
 0002:0000fdb0       ??_C@_1JK@KHFABAEO@?$AAw?$AAc?$AAs?$AAc?$AAp?$AAy?$AA_?$AAs?$AA?$CI?$AAs?$AAz?$AAU?$AAs?$AAe?$AAr?$AAM?$AAe?$AAs?$AAs?$AAa?$AAg?$AAe?$AA?0?$AA?5?$AA4?$AA0?$AA9?$AA6?$AA?0?$AA?5?$AAL?$AA?$CC@ 10061db0     libucrtd:dbgrptt.obj
 0002:0000fe50       ??_C@_1KO@DGAHENCH@?$AAw?$AAc?$AAs?$AAc?$AAp?$AAy?$AA_?$AAs?$AA?$CI?$AAs?$AAz?$AAL?$AAi?$AAn?$AAe?$AAM?$AAe?$AAs?$AAs?$AAa?$AAg?$AAe?$AA?0?$AA?5?$AA4?$AA0?$AA9?$AA6?$AA?0?$AA?5?$AAs?$AAz@ 10061e50     libucrtd:dbgrptt.obj
 0002:0000ff00       ??_C@_1CG@FFFGGODN@?$AAA?$AAs?$AAs?$AAe?$AAr?$AAt?$AAi?$AAo?$AAn?$AA?5?$AAf?$AAa?$AAi?$AAl?$AAe?$AAd?$AA?3?$AA?5?$AA?$AA@ 10061f00     libucrtd:dbgrptt.obj
 0002:0000ff28       ??_C@_1FK@HPADHBBD@?$AAw?$AAc?$AAs?$AAc?$AAa?$AAt?$AA_?$AAs?$AA?$CI?$AAs?$AAz?$AAL?$AAi?$AAn?$AAe?$AAM?$AAe?$AAs?$AAs?$AAa?$AAg?$AAe?$AA?0?$AA?5?$AA4?$AA0?$AA9?$AA6?$AA?0?$AA?5?$AAs?$AAz@ 10061f28     libucrtd:dbgrptt.obj
 0002:0000ff88       ??_C@_1EK@NMDFGHMF@?$AAw?$AAc?$AAs?$AAc?$AAa?$AAt?$AA_?$AAs?$AA?$CI?$AAs?$AAz?$AAL?$AAi?$AAn?$AAe?$AAM?$AAe?$AAs?$AAs?$AAa?$AAg?$AAe?$AA?0?$AA?5?$AA4?$AA0?$AA9?$AA6?$AA?0?$AA?5?$AAL?$AA?$CC@ 10061f88     libucrtd:dbgrptt.obj
 0002:0000ffd4       ??_C@_13CMNBPIDO@?$AA?$AN?$AA?$AA@ 10061fd4     libucrtd:dbgrptt.obj
 0002:0000ffd8       ??_C@_1EK@PHCBEDKB@?$AAw?$AAc?$AAs?$AAc?$AAa?$AAt?$AA_?$AAs?$AA?$CI?$AAs?$AAz?$AAL?$AAi?$AAn?$AAe?$AAM?$AAe?$AAs?$AAs?$AAa?$AAg?$AAe?$AA?0?$AA?5?$AA4?$AA0?$AA9?$AA6?$AA?0?$AA?5?$AAL?$AA?$CC@ 10061fd8     libucrtd:dbgrptt.obj
 0002:00010024       ??_C@_1BM@GIBPMLNL@?$AA?$CF?$AAl?$AAs?$AA?$CI?$AA?$CF?$AAd?$AA?$CJ?$AA?5?$AA?3?$AA?5?$AA?$CF?$AAl?$AAs?$AA?$AA@ 10062024     libucrtd:dbgrptt.obj
 0002:00010040       ??_C@_1JI@EACPGHID@?$AAw?$AAc?$AAs?$AAc?$AAp?$AAy?$AA_?$AAs?$AA?$CI?$AAs?$AAz?$AAO?$AAu?$AAt?$AAM?$AAe?$AAs?$AAs?$AAa?$AAg?$AAe?$AA?0?$AA?5?$AA4?$AA0?$AA9?$AA6?$AA?0?$AA?5?$AAL?$AA?$CC?$AA_@ 10062040     libucrtd:dbgrptt.obj
 0002:000100d8       ??_C@_1FI@DBAIJPJE@?$AAw?$AAc?$AAs?$AAc?$AAp?$AAy?$AA_?$AAs?$AA?$CI?$AAs?$AAz?$AAO?$AAu?$AAt?$AAM?$AAe?$AAs?$AAs?$AAa?$AAg?$AAe?$AA?0?$AA?5?$AA4?$AA0?$AA9?$AA6?$AA?0?$AA?5?$AAs?$AAz?$AAL@ 100620d8     libucrtd:dbgrptt.obj
 0002:00010130       ??_C@_1IK@LEBMBAP@?$AAw?$AAc?$AAs?$AAt?$AAo?$AAm?$AAb?$AAs?$AA_?$AAs?$AA?$CI?$AAn?$AAu?$AAl?$AAl?$AAp?$AAt?$AAr?$AA?0?$AA?5?$AAs?$AAz?$AAO?$AAu?$AAt?$AAM?$AAe?$AAs?$AAs?$AAa?$AAg?$AAe@ 10062130     libucrtd:dbgrptt.obj
 0002:000101c0       ??_C@_1MA@LBAMNNOB@?$AAs?$AAt?$AAr?$AAc?$AAp?$AAy?$AA_?$AAs?$AA?$CI?$AAs?$AAz?$AAO?$AAu?$AAt?$AAM?$AAe?$AAs?$AAs?$AAa?$AAg?$AAe?$AA2?$AA?0?$AA?5?$AA4?$AA0?$AA9?$AA6?$AA?0?$AA?5?$AA?$CC?$AA_@ 100621c0     libucrtd:dbgrptt.obj
 0002:00010280       ??_C@_0DP@GNPEPHJD@_CrtDbgReport?3?5String?5too?5long?5o@ 10062280     libucrtd:dbgrptt.obj
 0002:000102c0       ??_C@_1IE@CPGKIAGP@?$AAw?$AAc?$AAs?$AAt?$AAo?$AAm?$AAb?$AAs?$AA_?$AAs?$AA?$CI?$AA?$CG?$AAr?$AAe?$AAt?$AA?0?$AA?5?$AAs?$AAz?$AAa?$AAO?$AAu?$AAt?$AAM?$AAe?$AAs?$AAs?$AAa?$AAg?$AAe?$AA?0?$AA?5@ 100622c0     libucrtd:dbgrptt.obj
 0002:00010348       ??_C@_1BBC@DECGKMGJ@?$AA_?$AAl?$AAo?$AAc?$AA_?$AAu?$AAp?$AAd?$AAa?$AAt?$AAe?$AA?4?$AAG?$AAe?$AAt?$AAL?$AAo?$AAc?$AAa?$AAl?$AAe?$AAT?$AA?$CI?$AA?$CJ?$AA?9?$AA?$DO?$AAl?$AAo?$AAc?$AAi?$AAn?$AAf@ 10062348     libucrtd:mbtowc.obj
 0002:00010460       ??_C@_1GE@CGIHMDEJ@?$AAm?$AAi?$AAn?$AAk?$AAe?$AAr?$AAn?$AAe?$AAl?$AA?2?$AAc?$AAr?$AAt?$AAs?$AA?2?$AAu?$AAc?$AAr?$AAt?$AA?2?$AAs?$AAr?$AAc?$AA?2?$AAa?$AAp?$AAp?$AAc?$AAr?$AAt?$AA?2?$AAc@ 10062460     libucrtd:mbtowc.obj
 0002:000104c4       ??_C@_1DK@NBNOAGKB@?$AAd?$AAe?$AAs?$AAt?$AAi?$AAn?$AAa?$AAt?$AAi?$AAo?$AAn?$AA_?$AAc?$AAo?$AAu?$AAn?$AAt?$AA?5?$AA?$DM?$AA?$DN?$AA?5?$AAI?$AAN?$AAT?$AA_?$AAM?$AAA?$AAX?$AA?$AA@ 100624c4     libucrtd:wctomb.obj
 0002:00010500       ??_C@_1GE@FCCEPHFG@?$AAm?$AAi?$AAn?$AAk?$AAe?$AAr?$AAn?$AAe?$AAl?$AA?2?$AAc?$AAr?$AAt?$AAs?$AA?2?$AAu?$AAc?$AAr?$AAt?$AA?2?$AAs?$AAr?$AAc?$AA?2?$AAa?$AAp?$AAp?$AAc?$AAr?$AAt?$AA?2?$AAc@ 10062500     libucrtd:wctomb.obj
 0002:00010564       ??_C@_1BI@IEADNOHF@?$AA_?$AAw?$AAc?$AAt?$AAo?$AAm?$AAb?$AA_?$AAs?$AA_?$AAl?$AA?$AA@ 10062564     libucrtd:wctomb.obj
 0002:0001057c       ??_C@_1CM@ENFEGCNE@?$AAd?$AAe?$AAs?$AAt?$AAi?$AAn?$AAa?$AAt?$AAi?$AAo?$AAn?$AA_?$AAc?$AAo?$AAu?$AAn?$AAt?$AA?5?$AA?$DO?$AA?5?$AA0?$AA?$AA@ 1006257c     libucrtd:wctomb.obj
 0002:000105a8       ??_C@_03OEIAHPBN@INF?$AA@  100625a8     libucrtd:cvt.obj
 0002:000105ac       ??_C@_03OJHLLCGB@inf?$AA@  100625ac     libucrtd:cvt.obj
 0002:000105b0       ??_C@_03LKNCIKJB@NAN?$AA@  100625b0     libucrtd:cvt.obj
 0002:000105b4       ??_C@_03LHCJEHON@nan?$AA@  100625b4     libucrtd:cvt.obj
 0002:000105b8       ??_C@_09OFJJIMPC@NAN?$CISNAN?$CJ?$AA@ 100625b8     libucrtd:cvt.obj
 0002:000105c4       ??_C@_09IPFBKMDL@nan?$CIsnan?$CJ?$AA@ 100625c4     libucrtd:cvt.obj
 0002:000105d0       ??_C@_08IKHNHAJ@NAN?$CIIND?$CJ?$AA@ 100625d0     libucrtd:cvt.obj
 0002:000105dc       ??_C@_08OFCDMILK@nan?$CIind?$CJ?$AA@ 100625dc     libucrtd:cvt.obj
 0002:000105e8       ??_C@_1FO@GKAKAPLI@?$AAm?$AAi?$AAn?$AAk?$AAe?$AAr?$AAn?$AAe?$AAl?$AA?2?$AAc?$AAr?$AAt?$AAs?$AA?2?$AAu?$AAc?$AAr?$AAt?$AA?2?$AAs?$AAr?$AAc?$AA?2?$AAa?$AAp?$AAp?$AAc?$AAr?$AAt?$AA?2?$AAc@ 100625e8     libucrtd:cvt.obj
 0002:00010648       ??_C@_1DE@EHGIGIDK@?$AAf?$AAp?$AA_?$AAf?$AAo?$AAr?$AAm?$AAa?$AAt?$AA_?$AAn?$AAa?$AAn?$AA_?$AAo?$AAr?$AA_?$AAi?$AAn?$AAf?$AAi?$AAn?$AAi?$AAt?$AAy?$AA?$AA@ 10062648     libucrtd:cvt.obj
 0002:00010680       ??_C@_1LI@PCMLJPCO@?$AAs?$AAt?$AAr?$AAc?$AAp?$AAy?$AA_?$AAs?$AA?$CI?$AA?5?$AAr?$AAe?$AAs?$AAu?$AAl?$AAt?$AA_?$AAb?$AAu?$AAf?$AAf?$AAe?$AAr?$AA?0?$AA?5?$AAr?$AAe?$AAs?$AAu?$AAl?$AAt?$AA_@ 10062680     libucrtd:cvt.obj
 0002:00010738       ??_C@_1KO@LJHOFBCD@?$AAr?$AAe?$AAs?$AAu?$AAl?$AAt?$AA_?$AAb?$AAu?$AAf?$AAf?$AAe?$AAr?$AA_?$AAc?$AAo?$AAu?$AAn?$AAt?$AA?5?$AA?$DO?$AA?5?$AAs?$AAt?$AAa?$AAt?$AAi?$AAc?$AA_?$AAc?$AAa?$AAs@ 10062738     libucrtd:cvt.obj
 0002:000107e8       ??_C@_1CK@BOLHOMFO@?$AAf?$AAp?$AA_?$AAf?$AAo?$AAr?$AAm?$AAa?$AAt?$AA_?$AAe?$AA_?$AAi?$AAn?$AAt?$AAe?$AAr?$AAn?$AAa?$AAl?$AA?$AA@ 100627e8     libucrtd:cvt.obj
 0002:00010818       ??_C@_1BBA@FHDJNBGM@?$AAs?$AAt?$AAr?$AAc?$AAp?$AAy?$AA_?$AAs?$AA?$CI?$AA?5?$AAp?$AA?0?$AA?5?$AAr?$AAe?$AAs?$AAu?$AAl?$AAt?$AA_?$AAb?$AAu?$AAf?$AAf?$AAe?$AAr?$AA_?$AAc?$AAo?$AAu?$AAn?$AAt@ 10062818     libucrtd:cvt.obj
 0002:00010928       ??_C@_05KLBDPFGC@e?$CL000?$AA@ 10062928     libucrtd:cvt.obj
 0002:00010930       ??_C@_1IC@FILKPBAB@?$AAr?$AAe?$AAs?$AAu?$AAl?$AAt?$AA_?$AAb?$AAu?$AAf?$AAf?$AAe?$AAr?$AA_?$AAc?$AAo?$AAu?$AAn?$AAt?$AA?5?$AA?$DO?$AA?5?$AAs?$AAt?$AAa?$AAt?$AAi?$AAc?$AA_?$AAc?$AAa?$AAs@ 10062930     libucrtd:cvt.obj
 0002:000109b4       ??_C@_1BI@PNBDLNBB@?$AAf?$AAp?$AA_?$AAf?$AAo?$AAr?$AAm?$AAa?$AAt?$AA_?$AAa?$AA?$AA@ 100629b4     libucrtd:cvt.obj
 0002:000109cc       ??_C@_1DC@MGKAFPFD@?$AAr?$AAe?$AAs?$AAu?$AAl?$AAt?$AA_?$AAb?$AAu?$AAf?$AAf?$AAe?$AAr?$AA?5?$AA?$CB?$AA?$DN?$AA?5?$AAn?$AAu?$AAl?$AAl?$AAp?$AAt?$AAr?$AA?$AA@ 100629cc     libucrtd:cvt.obj
 0002:00010a00       ??_C@_1CC@LDAHJAKK@?$AA_?$AA_?$AAa?$AAc?$AAr?$AAt?$AA_?$AAf?$AAp?$AA_?$AAf?$AAo?$AAr?$AAm?$AAa?$AAt?$AA?$AA@ 10062a00     libucrtd:cvt.obj
 0002:00010a24       ??_C@_1DA@NMLJJOCO@?$AAr?$AAe?$AAs?$AAu?$AAl?$AAt?$AA_?$AAb?$AAu?$AAf?$AAf?$AAe?$AAr?$AA_?$AAc?$AAo?$AAu?$AAn?$AAt?$AA?5?$AA?$DO?$AA?5?$AA0?$AA?$AA@ 10062a24     libucrtd:cvt.obj
 0002:00010a54       ??_C@_1DE@MNOPBCOK@?$AAs?$AAc?$AAr?$AAa?$AAt?$AAc?$AAh?$AA_?$AAb?$AAu?$AAf?$AAf?$AAe?$AAr?$AA?5?$AA?$CB?$AA?$DN?$AA?5?$AAn?$AAu?$AAl?$AAl?$AAp?$AAt?$AAr?$AA?$AA@ 10062a54     libucrtd:cvt.obj
 0002:00010a88       ??_C@_1DC@CKBKNFKH@?$AAs?$AAc?$AAr?$AAa?$AAt?$AAc?$AAh?$AA_?$AAb?$AAu?$AAf?$AAf?$AAe?$AAr?$AA_?$AAc?$AAo?$AAu?$AAn?$AAt?$AA?5?$AA?$DO?$AA?5?$AA0?$AA?$AA@ 10062a88     libucrtd:cvt.obj
 0002:00010ac0       ??_C@_1EI@JAHBOGIM@?$AA?$CI?$AA?$CC?$AAU?$AAn?$AAs?$AAu?$AAp?$AAp?$AAo?$AAr?$AAt?$AAe?$AAd?$AA?5?$AAf?$AAo?$AAr?$AAm?$AAa?$AAt?$AA?5?$AAs?$AAp?$AAe?$AAc?$AAi?$AAf?$AAi?$AAe?$AAr?$AA?$CC?$AA?0@ 10062ac0     libucrtd:cvt.obj
 0002:00010b08       ??_C@_1GA@KCAHHNGP@?$AAm?$AAi?$AAn?$AAk?$AAe?$AAr?$AAn?$AAe?$AAl?$AA?2?$AAc?$AAr?$AAt?$AAs?$AA?2?$AAu?$AAc?$AAr?$AAt?$AA?2?$AAs?$AAr?$AAc?$AA?2?$AAa?$AAp?$AAp?$AAc?$AAr?$AAt?$AA?2?$AAs@ 10062b08     libucrtd:fileno.obj
 0002:00010b68       ??_C@_1BA@JGHIEKKM@?$AA_?$AAf?$AAi?$AAl?$AAe?$AAn?$AAo?$AA?$AA@ 10062b68     libucrtd:fileno.obj
 0002:00010b78       ??_C@_1CC@CHNFGJIC@?$AAc?$AAo?$AAm?$AAm?$AAo?$AAn?$AA_?$AAt?$AAc?$AAs?$AAn?$AAc?$AAp?$AAy?$AA_?$AAs?$AA?$AA@ 10062b78     libucrtd:wcsncpy_s.obj
 0002:00010ba0       ??_C@_1GE@GPOPIOIG@?$AAm?$AAi?$AAn?$AAk?$AAe?$AAr?$AAn?$AAe?$AAl?$AA?2?$AAc?$AAr?$AAt?$AAs?$AA?2?$AAu?$AAc?$AAr?$AAt?$AA?2?$AAs?$AAr?$AAc?$AA?2?$AAa?$AAp?$AAp?$AAc?$AAr?$AAt?$AA?2?$AAs@ 10062ba0     libucrtd:_freebuf.obj
 0002:00010c08       ??_C@_1FO@LPCLHKGE@?$AA?$CI?$AAf?$AAh?$AA?5?$AA?$DO?$AA?$DN?$AA?5?$AA0?$AA?5?$AA?$CG?$AA?$CG?$AA?5?$AA?$CI?$AAu?$AAn?$AAs?$AAi?$AAg?$AAn?$AAe?$AAd?$AA?$CJ?$AAf?$AAh?$AA?5?$AA?$DM?$AA?5?$AA?$CI?$AAu?$AAn?$AAs?$AAi@ 10062c08     libucrtd:commit.obj
 0002:00010c68       ??_C@_1GA@MPOOLHCO@?$AAm?$AAi?$AAn?$AAk?$AAe?$AAr?$AAn?$AAe?$AAl?$AA?2?$AAc?$AAr?$AAt?$AAs?$AA?2?$AAu?$AAc?$AAr?$AAt?$AA?2?$AAs?$AAr?$AAc?$AA?2?$AAa?$AAp?$AAp?$AAc?$AAr?$AAt?$AA?2?$AAl@ 10062c68     libucrtd:commit.obj
 0002:00010cc8       ??_C@_1BA@FLNMBBIM@?$AA_?$AAc?$AAo?$AAm?$AAm?$AAi?$AAt?$AA?$AA@ 10062cc8     libucrtd:commit.obj
 0002:00010cd8       ??_C@_1CM@OKGMMMDH@?$AA?$CI?$AA_?$AAo?$AAs?$AAf?$AAi?$AAl?$AAe?$AA?$CI?$AAf?$AAh?$AA?$CJ?$AA?5?$AA?$CG?$AA?5?$AAF?$AAO?$AAP?$AAE?$AAN?$AA?$CJ?$AA?$AA@ 10062cd8     libucrtd:commit.obj
 0002:00010d08       ??_C@_1JE@ECKHFIFP@?$AA?$CI?$AA?$CC?$AAI?$AAn?$AAv?$AAa?$AAl?$AAi?$AAd?$AA?5?$AAf?$AAi?$AAl?$AAe?$AA?5?$AAd?$AAe?$AAs?$AAc?$AAr?$AAi?$AAp?$AAt?$AAo?$AAr?$AA?4?$AA?5?$AAF?$AAi?$AAl?$AAe?$AA?5@ 10062d08     libucrtd:commit.obj
 0002:00010da0       ??_C@_1FO@CAMPMGCN@?$AAm?$AAi?$AAn?$AAk?$AAe?$AAr?$AAn?$AAe?$AAl?$AA?2?$AAc?$AAr?$AAt?$AAs?$AA?2?$AAu?$AAc?$AAr?$AAt?$AA?2?$AAs?$AAr?$AAc?$AA?2?$AAa?$AAp?$AAp?$AAc?$AAr?$AAt?$AA?2?$AAl@ 10062da0     libucrtd:write.obj
 0002:00010e00       ??_C@_1O@KOFKDHPL@?$AA_?$AAw?$AAr?$AAi?$AAt?$AAe?$AA?$AA@ 10062e00     libucrtd:write.obj
 0002:00010e10       ??_C@_1DI@CNMHHHLG@?$AAi?$AAs?$AAl?$AAe?$AAa?$AAd?$AAb?$AAy?$AAt?$AAe?$AA?$CI?$AA_?$AAd?$AAb?$AAc?$AAs?$AAB?$AAu?$AAf?$AAf?$AAe?$AAr?$AA?$CI?$AAf?$AAh?$AA?$CJ?$AA?$CJ?$AA?$AA@ 10062e10     libucrtd:write.obj
 0002:00010e48       ??_C@_1BM@NCANHCIP@?$AA_?$AAw?$AAr?$AAi?$AAt?$AAe?$AA_?$AAn?$AAo?$AAl?$AAo?$AAc?$AAk?$AA?$AA@ 10062e48     libucrtd:write.obj
 0002:00010e64       ??_C@_1CK@CPEAGIIP@?$AAb?$AAu?$AAf?$AAf?$AAe?$AAr?$AA_?$AAs?$AAi?$AAz?$AAe?$AA?5?$AA?$CF?$AA?5?$AA2?$AA?5?$AA?$DN?$AA?$DN?$AA?5?$AA0?$AA?$AA@ 10062e64     libucrtd:write.obj
 0002:00010fb8       __DEFAULT_CW_in_mem        10062fb8     libucrtd:common.obj
 0002:00010fba       __pi_by_2_to_61            10062fba     libucrtd:common.obj
 0002:00011170       __infinity                 10063170     libucrtd:87tran.obj
 0002:0001117a       __minfinity                1006317a     libucrtd:87tran.obj
 0002:00011184       __logemax                  10063184     libucrtd:87tran.obj
 0002:000111aa       __OP_EXPjmptab             100631aa     libucrtd:87tran.obj
 0002:00011270       ??_C@_1BKC@NBNHJIDM@?$AA?$CI?$AAp?$AAt?$AAl?$AAo?$AAc?$AAi?$AA?9?$AA?$DO?$AAl?$AAc?$AA_?$AAc?$AAa?$AAt?$AAe?$AAg?$AAo?$AAr?$AAy?$AA?$FL?$AAc?$AAa?$AAt?$AAe?$AAg?$AAo?$AAr?$AAy?$AA?$FN?$AA?4?$AAl@ 10063270     libucrtd:locale_refcounting.obj
 0002:00011418       ??_C@_1HK@HCNMEOLA@?$AAm?$AAi?$AAn?$AAk?$AAe?$AAr?$AAn?$AAe?$AAl?$AA?2?$AAc?$AAr?$AAt?$AAs?$AA?2?$AAu?$AAc?$AAr?$AAt?$AA?2?$AAs?$AAr?$AAc?$AA?2?$AAa?$AAp?$AAp?$AAc?$AAr?$AAt?$AA?2?$AAl@ 10063418     libucrtd:locale_refcounting.obj
 0002:00011bb8       ??_C@_15EMKDOKLE@?$AAa?$AAr?$AA?$AA@ 10063bb8     libucrtd:lcidtoname_downlevel.obj
 0002:00011bc0       ??_C@_15KNPADPLH@?$AAb?$AAg?$AA?$AA@ 10063bc0     libucrtd:lcidtoname_downlevel.obj
 0002:00011bc8       ??_C@_15EDMHLDMO@?$AAc?$AAa?$AA?$AA@ 10063bc8     libucrtd:lcidtoname_downlevel.obj
 0002:00011bd0       ??_C@_1O@BPEAJADD@?$AAz?$AAh?$AA?9?$AAC?$AAH?$AAS?$AA?$AA@ 10063bd0     libucrtd:lcidtoname_downlevel.obj
 0002:00011be0       ??_C@_15LJNHCMNK@?$AAc?$AAs?$AA?$AA@ 10063be0     libucrtd:lcidtoname_downlevel.obj
 0002:00011be8       ??_C@_15FOMCIDHG@?$AAd?$AAa?$AA?$AA@ 10063be8     libucrtd:lcidtoname_downlevel.obj
 0002:00011bf0       ??_C@_15NBKABECB@?$AAd?$AAe?$AA?$AA@ 10063bf0     libucrtd:lcidtoname_downlevel.obj
 0002:00011bf8       ??_C@_15GHPEIIAO@?$AAe?$AAl?$AA?$AA@ 10063bf8     libucrtd:lcidtoname_downlevel.obj
 0002:00011c00       ??_C@_15MNPNEAIF@?$AAe?$AAn?$AA?$AA@ 10063c00     libucrtd:lcidtoname_downlevel.obj
 0002:00011c08       ??_C@_15GPIOMPMH@?$AAe?$AAs?$AA?$AA@ 10063c08     libucrtd:lcidtoname_downlevel.obj
 0002:00011c10       ??_C@_15NGLOAKJC@?$AAf?$AAi?$AA?$AA@ 10063c10     libucrtd:lcidtoname_downlevel.obj
 0002:00011c18       ??_C@_15FBKGNKAM@?$AAf?$AAr?$AA?$AA@ 10063c18     libucrtd:lcidtoname_downlevel.obj
 0002:00011c20       ??_C@_15KGGCNEFK@?$AAh?$AAe?$AA?$AA@ 10063c20     libucrtd:lcidtoname_downlevel.obj
 0002:00011c28       ??_C@_15PGHLIDMF@?$AAh?$AAu?$AA?$AA@ 10063c28     libucrtd:lcidtoname_downlevel.obj
 0002:00011c30       ??_C@_15BIEMAPLM@?$AAi?$AAs?$AA?$AA@ 10063c30     libucrtd:lcidtoname_downlevel.obj
 0002:00011c38       ??_C@_15IFJLDHAF@?$AAi?$AAt?$AA?$AA@ 10063c38     libucrtd:lcidtoname_downlevel.obj
 0002:00011c40       ??_C@_15GEMIOCAG@?$AAj?$AAa?$AA?$AA@ 10063c40     libucrtd:lcidtoname_downlevel.obj
 0002:00011c48       ??_C@_15EPELEGJA@?$AAk?$AAo?$AA?$AA@ 10063c48     libucrtd:lcidtoname_downlevel.obj
 0002:00011c50       ??_C@_15NDDHIMN@?$AAn?$AAl?$AA?$AA@ 10063c50     libucrtd:lcidtoname_downlevel.obj
 0002:00011c58       ??_C@_15BPIGNHCD@?$AAn?$AAo?$AA?$AA@ 10063c58     libucrtd:lcidtoname_downlevel.obj
 0002:00011c60       ??_C@_15DEOPBLCG@?$AAp?$AAl?$AA?$AA@ 10063c60     libucrtd:lcidtoname_downlevel.obj
 0002:00011c68       ??_C@_15KBECGEFG@?$AAp?$AAt?$AA?$AA@ 10063c68     libucrtd:lcidtoname_downlevel.obj
 0002:00011c70       ??_C@_15GLJCBFMD@?$AAr?$AAo?$AA?$AA@ 10063c70     libucrtd:lcidtoname_downlevel.obj
 0002:00011c78       ??_C@_15FEDGKCDI@?$AAr?$AAu?$AA?$AA@ 10063c78     libucrtd:lcidtoname_downlevel.obj
 0002:00011c80       ??_C@_15GLKMLLHM@?$AAh?$AAr?$AA?$AA@ 10063c80     libucrtd:lcidtoname_downlevel.obj
 0002:00011c88       ??_C@_15CPKMFBDB@?$AAs?$AAk?$AA?$AA@ 10063c88     libucrtd:lcidtoname_downlevel.obj
 0002:00011c90       ??_C@_15BAAIOGMK@?$AAs?$AAq?$AA?$AA@ 10063c90     libucrtd:lcidtoname_downlevel.obj
 0002:00011c98       ??_C@_15INNPNOHD@?$AAs?$AAv?$AA?$AA@ 10063c98     libucrtd:lcidtoname_downlevel.obj
 0002:00011ca0       ??_C@_15CABMMOGH@?$AAt?$AAh?$AA?$AA@ 10063ca0     libucrtd:lcidtoname_downlevel.obj
 0002:00011ca8       ??_C@_15BPLIHJJM@?$AAt?$AAr?$AA?$AA@ 10063ca8     libucrtd:lcidtoname_downlevel.obj
 0002:00011cb0       ??_C@_15NEOEKKDJ@?$AAu?$AAr?$AA?$AA@ 10063cb0     libucrtd:lcidtoname_downlevel.obj
 0002:00011cb8       ??_C@_15NFICGAJK@?$AAi?$AAd?$AA?$AA@ 10063cb8     libucrtd:lcidtoname_downlevel.obj
 0002:00011cc0       ??_C@_15PJPFLCCM@?$AAu?$AAk?$AA?$AA@ 10063cc0     libucrtd:lcidtoname_downlevel.obj
 0002:00011cc8       ??_C@_15HPJPHDM@?$AAb?$AAe?$AA?$AA@ 10063cc8     libucrtd:lcidtoname_downlevel.obj
 0002:00011cd0       ??_C@_15LCHLGJII@?$AAs?$AAl?$AA?$AA@ 10063cd0     libucrtd:lcidtoname_downlevel.obj
 0002:00011cd8       ??_C@_15PCFJPHHO@?$AAe?$AAt?$AA?$AA@ 10063cd8     libucrtd:lcidtoname_downlevel.obj
 0002:00011ce0       ??_C@_15HPFPGODN@?$AAl?$AAv?$AA?$AA@ 10063ce0     libucrtd:lcidtoname_downlevel.obj
 0002:00011ce8       ??_C@_15NFFGKGLG@?$AAl?$AAt?$AA?$AA@ 10063ce8     libucrtd:lcidtoname_downlevel.obj
 0002:00011cf0       ??_C@_15BDAKCCHN@?$AAf?$AAa?$AA?$AA@ 10063cf0     libucrtd:lcidtoname_downlevel.obj
 0002:00011cf8       ??_C@_15NFGIAIAJ@?$AAv?$AAi?$AA?$AA@ 10063cf8     libucrtd:lcidtoname_downlevel.obj
 0002:00011d00       ??_C@_15LMKNDMHN@?$AAh?$AAy?$AA?$AA@ 10063d00     libucrtd:lcidtoname_downlevel.obj
 0002:00011d08       ??_C@_15IJBHMCFL@?$AAa?$AAz?$AA?$AA@ 10063d08     libucrtd:lcidtoname_downlevel.obj
 0002:00011d10       ??_C@_15EKOFJABL@?$AAe?$AAu?$AA?$AA@ 10063d10     libucrtd:lcidtoname_downlevel.obj
 0002:00011d18       ??_C@_15BGHADCNK@?$AAm?$AAk?$AA?$AA@ 10063d18     libucrtd:lcidtoname_downlevel.obj
 0002:00011d20       ??_C@_15JDNICKHM@?$AAa?$AAf?$AA?$AA@ 10063d20     libucrtd:lcidtoname_downlevel.obj
 0002:00011d28       ??_C@_15KPJEDBKD@?$AAk?$AAa?$AA?$AA@ 10063d28     libucrtd:lcidtoname_downlevel.obj
 0002:00011d30       ??_C@_15PDNFFFEO@?$AAf?$AAo?$AA?$AA@ 10063d30     libucrtd:lcidtoname_downlevel.obj
 0002:00011d38       ??_C@_15OMLEGLOC@?$AAh?$AAi?$AA?$AA@ 10063d38     libucrtd:lcidtoname_downlevel.obj
 0002:00011d40       ??_C@_15IDNNENKK@?$AAm?$AAs?$AA?$AA@ 10063d40     libucrtd:lcidtoname_downlevel.obj
 0002:00011d48       ??_C@_15MACJNBMH@?$AAk?$AAk?$AA?$AA@ 10063d48     libucrtd:lcidtoname_downlevel.obj
 0002:00011d50       ??_C@_15DKDJEOND@?$AAk?$AAy?$AA?$AA@ 10063d50     libucrtd:lcidtoname_downlevel.obj
 0002:00011d58       ??_C@_15DFGDLJBG@?$AAs?$AAw?$AA?$AA@ 10063d58     libucrtd:lcidtoname_downlevel.obj
 0002:00011d60       ??_C@_15BBFAICNG@?$AAu?$AAz?$AA?$AA@ 10063d60     libucrtd:lcidtoname_downlevel.obj
 0002:00011d68       ??_C@_15DKNDCGEA@?$AAt?$AAt?$AA?$AA@ 10063d68     libucrtd:lcidtoname_downlevel.obj
 0002:00011d70       ??_C@_15MGIFMDPL@?$AAp?$AAa?$AA?$AA@ 10063d70     libucrtd:lcidtoname_downlevel.obj
 0002:00011d78       ??_C@_15HCNDBBA@?$AAg?$AAu?$AA?$AA@ 10063d78     libucrtd:lcidtoname_downlevel.obj
 0002:00011d80       ??_C@_15FNBEIBON@?$AAt?$AAa?$AA?$AA@ 10063d80     libucrtd:lcidtoname_downlevel.obj
 0002:00011d88       ??_C@_15NCHGBGLK@?$AAt?$AAe?$AA?$AA@ 10063d88     libucrtd:lcidtoname_downlevel.obj
 0002:00011d90       ??_C@_15PHPHCBPF@?$AAk?$AAn?$AA?$AA@ 10063d90     libucrtd:lcidtoname_downlevel.obj
 0002:00011d98       ??_C@_15DLGBCKMP@?$AAm?$AAr?$AA?$AA@ 10063d98     libucrtd:lcidtoname_downlevel.obj
 0002:00011da0       ??_C@_15EABBLBFF@?$AAs?$AAa?$AA?$AA@ 10063da0     libucrtd:lcidtoname_downlevel.obj
 0002:00011da8       ??_C@_15CBKOMCOI@?$AAm?$AAn?$AA?$AA@ 10063da8     libucrtd:lcidtoname_downlevel.obj
 0002:00011db0       ??_C@_15CKDMCJAF@?$AAg?$AAl?$AA?$AA@ 10063db0     libucrtd:lcidtoname_downlevel.obj
 0002:00011db8       ??_C@_17CNJFBPG@?$AAk?$AAo?$AAk?$AA?$AA@ 10063db8     libucrtd:lcidtoname_downlevel.obj
 0002:00011dc0       ??_C@_17FFBJICPL@?$AAs?$AAy?$AAr?$AA?$AA@ 10063dc0     libucrtd:lcidtoname_downlevel.obj
 0002:00011dc8       ??_C@_17KPNDCPAF@?$AAd?$AAi?$AAv?$AA?$AA@ 10063dc8     libucrtd:lcidtoname_downlevel.obj
 0002:00011dd0       ??_C@_1M@OKAHONE@?$AAa?$AAr?$AA?9?$AAS?$AAA?$AA?$AA@ 10063dd0     libucrtd:lcidtoname_downlevel.obj
 0002:00011ddc       ??_C@_1M@FFFIGIGK@?$AAb?$AAg?$AA?9?$AAB?$AAG?$AA?$AA@ 10063ddc     libucrtd:lcidtoname_downlevel.obj
 0002:00011de8       ??_C@_1M@BJNKEDC@?$AAc?$AAa?$AA?9?$AAE?$AAS?$AA?$AA@ 10063de8     libucrtd:lcidtoname_downlevel.obj
 0002:00011df4       ??_C@_1M@IJJHFJHA@?$AAc?$AAs?$AA?9?$AAC?$AAZ?$AA?$AA@ 10063df4     libucrtd:lcidtoname_downlevel.obj
 0002:00011e00       ??_C@_1M@CLPEOBGI@?$AAd?$AAa?$AA?9?$AAD?$AAK?$AA?$AA@ 10063e00     libucrtd:lcidtoname_downlevel.obj
 0002:00011e0c       ??_C@_1M@MCMADGCB@?$AAd?$AAe?$AA?9?$AAD?$AAE?$AA?$AA@ 10063e0c     libucrtd:lcidtoname_downlevel.obj
 0002:00011e18       ??_C@_1M@OOCKEMAM@?$AAe?$AAl?$AA?9?$AAG?$AAR?$AA?$AA@ 10063e18     libucrtd:lcidtoname_downlevel.obj
 0002:00011e24       ??_C@_1M@DDNJFGID@?$AAf?$AAi?$AA?9?$AAF?$AAI?$AA?$AA@ 10063e24     libucrtd:lcidtoname_downlevel.obj
 0002:00011e30       ??_C@_1M@GLIPPMAC@?$AAf?$AAr?$AA?9?$AAF?$AAR?$AA?$AA@ 10063e30     libucrtd:lcidtoname_downlevel.obj
 0002:00011e3c       ??_C@_1M@GFMCHPE@?$AAh?$AAe?$AA?9?$AAI?$AAL?$AA?$AA@ 10063e3c     libucrtd:lcidtoname_downlevel.obj
 0002:00011e48       ??_C@_1M@MHLPGNKM@?$AAh?$AAu?$AA?9?$AAH?$AAU?$AA?$AA@ 10063e48     libucrtd:lcidtoname_downlevel.obj
 0002:00011e54       ??_C@_1M@LPDDNNPN@?$AAi?$AAs?$AA?9?$AAI?$AAS?$AA?$AA@ 10063e54     libucrtd:lcidtoname_downlevel.obj
 0002:00011e60       ??_C@_1M@MADIPODN@?$AAi?$AAt?$AA?9?$AAI?$AAT?$AA?$AA@ 10063e60     libucrtd:lcidtoname_downlevel.obj
 0002:00011e6c       ??_C@_1M@IHBJJGG@?$AAn?$AAl?$AA?9?$AAN?$AAL?$AA?$AA@ 10063e6c     libucrtd:lcidtoname_downlevel.obj
 0002:00011e78       ??_C@_1M@EANAGDL@?$AAn?$AAb?$AA?9?$AAN?$AAO?$AA?$AA@ 10063e78     libucrtd:lcidtoname_downlevel.obj
 0002:00011e84       ??_C@_1M@NEIEMEGP@?$AAp?$AAl?$AA?9?$AAP?$AAL?$AA?$AA@ 10063e84     libucrtd:lcidtoname_downlevel.obj
 0002:00011e90       ??_C@_1M@BOCFIGEP@?$AAp?$AAt?$AA?9?$AAB?$AAR?$AA?$AA@ 10063e90     libucrtd:lcidtoname_downlevel.obj
 0002:00011e9c       ??_C@_1M@IMPFOPBG@?$AAr?$AAo?$AA?9?$AAR?$AAO?$AA?$AA@ 10063e9c     libucrtd:lcidtoname_downlevel.obj
 0002:00011ea8       ??_C@_1M@IDNNEJMM@?$AAr?$AAu?$AA?9?$AAR?$AAU?$AA?$AA@ 10063ea8     libucrtd:lcidtoname_downlevel.obj
 0002:00011eb4       ??_C@_1M@LILEEOGM@?$AAh?$AAr?$AA?9?$AAH?$AAR?$AA?$AA@ 10063eb4     libucrtd:lcidtoname_downlevel.obj
 0002:00011ec0       ??_C@_1M@FKIFEHPB@?$AAs?$AAk?$AA?9?$AAS?$AAK?$AA?$AA@ 10063ec0     libucrtd:lcidtoname_downlevel.obj
 0002:00011ecc       ??_C@_1M@LJMAMNPJ@?$AAs?$AAq?$AA?9?$AAA?$AAL?$AA?$AA@ 10063ecc     libucrtd:lcidtoname_downlevel.obj
 0002:00011ed8       ??_C@_1M@GIAKDKJK@?$AAs?$AAv?$AA?9?$AAS?$AAE?$AA?$AA@ 10063ed8     libucrtd:lcidtoname_downlevel.obj
 0002:00011ee4       ??_C@_1M@MKJKIKCL@?$AAt?$AAh?$AA?9?$AAT?$AAH?$AA?$AA@ 10063ee4     libucrtd:lcidtoname_downlevel.obj
 0002:00011ef0       ??_C@_1M@MFLCCMPB@?$AAt?$AAr?$AA?9?$AAT?$AAR?$AA?$AA@ 10063ef0     libucrtd:lcidtoname_downlevel.obj
 0002:00011efc       ??_C@_1M@OIJHDKJN@?$AAu?$AAr?$AA?9?$AAP?$AAK?$AA?$AA@ 10063efc     libucrtd:lcidtoname_downlevel.obj
 0002:00011f08       ??_C@_1M@LHIPCIEK@?$AAi?$AAd?$AA?9?$AAI?$AAD?$AA?$AA@ 10063f08     libucrtd:lcidtoname_downlevel.obj
 0002:00011f14       ??_C@_1M@MFMOBGI@?$AAu?$AAk?$AA?9?$AAU?$AAA?$AA?$AA@ 10063f14     libucrtd:lcidtoname_downlevel.obj
 0002:00011f20       ??_C@_1M@OBGLJIPL@?$AAb?$AAe?$AA?9?$AAB?$AAY?$AA?$AA@ 10063f20     libucrtd:lcidtoname_downlevel.obj
 0002:00011f2c       ??_C@_1M@BCFAJEAD@?$AAs?$AAl?$AA?9?$AAS?$AAI?$AA?$AA@ 10063f2c     libucrtd:lcidtoname_downlevel.obj
 0002:00011f38       ??_C@_1M@FKFFEDDN@?$AAe?$AAt?$AA?9?$AAE?$AAE?$AA?$AA@ 10063f38     libucrtd:lcidtoname_downlevel.obj
 0002:00011f44       ??_C@_1M@KGKKAACI@?$AAl?$AAv?$AA?9?$AAL?$AAV?$AA?$AA@ 10063f44     libucrtd:lcidtoname_downlevel.obj
 0002:00011f50       ??_C@_1M@IFGBIJO@?$AAl?$AAt?$AA?9?$AAL?$AAT?$AA?$AA@ 10063f50     libucrtd:lcidtoname_downlevel.obj
 0002:00011f5c       ??_C@_1M@FGEAHEDM@?$AAf?$AAa?$AA?9?$AAI?$AAR?$AA?$AA@ 10063f5c     libucrtd:lcidtoname_downlevel.obj
 0002:00011f68       ??_C@_1M@KBMAIBFN@?$AAv?$AAi?$AA?9?$AAV?$AAN?$AA?$AA@ 10063f68     libucrtd:lcidtoname_downlevel.obj
 0002:00011f74       ??_C@_1M@GPCBKDJK@?$AAh?$AAy?$AA?9?$AAA?$AAM?$AA?$AA@ 10063f74     libucrtd:lcidtoname_downlevel.obj
 0002:00011f80       ??_C@_1BG@BECMDDJB@?$AAa?$AAz?$AA?9?$AAA?$AAZ?$AA?9?$AAL?$AAa?$AAt?$AAn?$AA?$AA@ 10063f80     libucrtd:lcidtoname_downlevel.obj
 0002:00011f98       ??_C@_1M@MAOFCAEA@?$AAe?$AAu?$AA?9?$AAE?$AAS?$AA?$AA@ 10063f98     libucrtd:lcidtoname_downlevel.obj
 0002:00011fa4       ??_C@_1M@IGHABKPI@?$AAm?$AAk?$AA?9?$AAM?$AAK?$AA?$AA@ 10063fa4     libucrtd:lcidtoname_downlevel.obj
 0002:00011fb0       ??_C@_1M@IAIGNEJG@?$AAt?$AAn?$AA?9?$AAZ?$AAA?$AA?$AA@ 10063fb0     libucrtd:lcidtoname_downlevel.obj
 0002:00011fbc       ??_C@_1M@IIJCOJFA@?$AAx?$AAh?$AA?9?$AAZ?$AAA?$AA?$AA@ 10063fbc     libucrtd:lcidtoname_downlevel.obj
 0002:00011fc8       ??_C@_1M@LGPJHNJH@?$AAz?$AAu?$AA?9?$AAZ?$AAA?$AA?$AA@ 10063fc8     libucrtd:lcidtoname_downlevel.obj
 0002:00011fd4       ??_C@_1M@HOKAOIO@?$AAa?$AAf?$AA?9?$AAZ?$AAA?$AA?$AA@ 10063fd4     libucrtd:lcidtoname_downlevel.obj
 0002:00011fe0       ??_C@_1M@DPCLHLIE@?$AAk?$AAa?$AA?9?$AAG?$AAE?$AA?$AA@ 10063fe0     libucrtd:lcidtoname_downlevel.obj
 0002:00011fec       ??_C@_1M@BLKMHJBI@?$AAf?$AAo?$AA?9?$AAF?$AAO?$AA?$AA@ 10063fec     libucrtd:lcidtoname_downlevel.obj
 0002:00011ff8       ??_C@_1M@LGGJAPPB@?$AAh?$AAi?$AA?9?$AAI?$AAN?$AA?$AA@ 10063ff8     libucrtd:lcidtoname_downlevel.obj
 0002:00012004       ??_C@_1M@FIKPIHFE@?$AAm?$AAt?$AA?9?$AAM?$AAT?$AA?$AA@ 10064004     libucrtd:lcidtoname_downlevel.obj
 0002:00012010       ??_C@_1M@HEGGPBFA@?$AAs?$AAe?$AA?9?$AAN?$AAO?$AA?$AA@ 10064010     libucrtd:lcidtoname_downlevel.obj
 0002:0001201c       ??_C@_1M@EIBJEEPA@?$AAm?$AAs?$AA?9?$AAM?$AAY?$AA?$AA@ 1006401c     libucrtd:lcidtoname_downlevel.obj
 0002:00012028       ??_C@_1M@FHLBGMPP@?$AAk?$AAk?$AA?9?$AAK?$AAZ?$AA?$AA@ 10064028     libucrtd:lcidtoname_downlevel.obj
 0002:00012034       ??_C@_1M@NGJJLCGI@?$AAk?$AAy?$AA?9?$AAK?$AAG?$AA?$AA@ 10064034     libucrtd:lcidtoname_downlevel.obj
 0002:00012040       ??_C@_1M@GIENNBFC@?$AAs?$AAw?$AA?9?$AAK?$AAE?$AA?$AA@ 10064040     libucrtd:lcidtoname_downlevel.obj
 0002:0001204c       ??_C@_1BG@NDGMJIMJ@?$AAu?$AAz?$AA?9?$AAU?$AAZ?$AA?9?$AAL?$AAa?$AAt?$AAn?$AA?$AA@ 1006404c     libucrtd:lcidtoname_downlevel.obj
 0002:00012064       ??_C@_1M@IDCCIHBC@?$AAt?$AAt?$AA?9?$AAR?$AAU?$AA?$AA@ 10064064     libucrtd:lcidtoname_downlevel.obj
 0002:00012070       ??_C@_1M@LOICPMOJ@?$AAb?$AAn?$AA?9?$AAI?$AAN?$AA?$AA@ 10064070     libucrtd:lcidtoname_downlevel.obj
 0002:0001207c       ??_C@_1M@KPKKNEAH@?$AAp?$AAa?$AA?9?$AAI?$AAN?$AA?$AA@ 1006407c     libucrtd:lcidtoname_downlevel.obj
 0002:00012088       ??_C@_1M@PJGPPBOG@?$AAg?$AAu?$AA?9?$AAI?$AAN?$AA?$AA@ 10064088     libucrtd:lcidtoname_downlevel.obj
 0002:00012094       ??_C@_1M@KMKMOPHI@?$AAt?$AAa?$AA?9?$AAI?$AAN?$AA?$AA@ 10064094     libucrtd:lcidtoname_downlevel.obj
 0002:000120a0       ??_C@_1M@KFEHEPAC@?$AAt?$AAe?$AA?9?$AAI?$AAN?$AA?$AA@ 100640a0     libucrtd:lcidtoname_downlevel.obj
 0002:000120ac       ??_C@_1M@CDCLMGHI@?$AAk?$AAn?$AA?9?$AAI?$AAN?$AA?$AA@ 100640ac     libucrtd:lcidtoname_downlevel.obj
 0002:000120b8       ??_C@_1M@MIODLDKF@?$AAm?$AAl?$AA?9?$AAI?$AAN?$AA?$AA@ 100640b8     libucrtd:lcidtoname_downlevel.obj
 0002:000120c4       ??_C@_1M@PBIEACPO@?$AAm?$AAr?$AA?9?$AAI?$AAN?$AA?$AA@ 100640c4     libucrtd:lcidtoname_downlevel.obj
 0002:000120d0       ??_C@_1M@NIDEAGPH@?$AAs?$AAa?$AA?9?$AAI?$AAN?$AA?$AA@ 100640d0     libucrtd:lcidtoname_downlevel.obj
 0002:000120dc       ??_C@_1M@FHIHCBIO@?$AAm?$AAn?$AA?9?$AAM?$AAN?$AA?$AA@ 100640dc     libucrtd:lcidtoname_downlevel.obj
 0002:000120e8       ??_C@_1M@JAIJPENP@?$AAc?$AAy?$AA?9?$AAG?$AAB?$AA?$AA@ 100640e8     libucrtd:lcidtoname_downlevel.obj
 0002:000120f4       ??_C@_1M@PHGFBEPN@?$AAg?$AAl?$AA?9?$AAE?$AAS?$AA?$AA@ 100640f4     libucrtd:lcidtoname_downlevel.obj
 0002:00012100       ??_C@_1O@KPIPDNCP@?$AAk?$AAo?$AAk?$AA?9?$AAI?$AAN?$AA?$AA@ 10064100     libucrtd:lcidtoname_downlevel.obj
 0002:00012110       ??_C@_1O@KNHJLDJA@?$AAs?$AAy?$AAr?$AA?9?$AAS?$AAY?$AA?$AA@ 10064110     libucrtd:lcidtoname_downlevel.obj
 0002:00012120       ??_C@_1O@MKEKBLAH@?$AAd?$AAi?$AAv?$AA?9?$AAM?$AAV?$AA?$AA@ 10064120     libucrtd:lcidtoname_downlevel.obj
 0002:00012130       ??_C@_1O@OHDCKDDF@?$AAq?$AAu?$AAz?$AA?9?$AAB?$AAO?$AA?$AA@ 10064130     libucrtd:lcidtoname_downlevel.obj
 0002:00012140       ??_C@_1M@LEPJNLFD@?$AAn?$AAs?$AA?9?$AAZ?$AAA?$AA?$AA@ 10064140     libucrtd:lcidtoname_downlevel.obj
 0002:0001214c       ??_C@_1M@OMLEIIJB@?$AAm?$AAi?$AA?9?$AAN?$AAZ?$AA?$AA@ 1006414c     libucrtd:lcidtoname_downlevel.obj
 0002:00012158       ??_C@_1M@PMPEAILG@?$AAa?$AAr?$AA?9?$AAI?$AAQ?$AA?$AA@ 10064158     libucrtd:lcidtoname_downlevel.obj
 0002:00012164       ??_C@_1M@CNKPNOEE@?$AAd?$AAe?$AA?9?$AAC?$AAH?$AA?$AA@ 10064164     libucrtd:lcidtoname_downlevel.obj
 0002:00012170       ??_C@_1M@LKMGMLKO@?$AAe?$AAn?$AA?9?$AAG?$AAB?$AA?$AA@ 10064170     libucrtd:lcidtoname_downlevel.obj
 0002:0001217c       ??_C@_1M@PGKJFFGL@?$AAe?$AAs?$AA?9?$AAM?$AAX?$AA?$AA@ 1006417c     libucrtd:lcidtoname_downlevel.obj
 0002:00012188       ??_C@_1M@DNNANBDC@?$AAf?$AAr?$AA?9?$AAB?$AAE?$AA?$AA@ 10064188     libucrtd:lcidtoname_downlevel.obj
 0002:00012194       ??_C@_1M@HLGMDFHM@?$AAi?$AAt?$AA?9?$AAC?$AAH?$AA?$AA@ 10064194     libucrtd:lcidtoname_downlevel.obj
 0002:000121a0       ??_C@_1M@CLLBGJH@?$AAn?$AAl?$AA?9?$AAB?$AAE?$AA?$AA@ 100641a0     libucrtd:lcidtoname_downlevel.obj
 0002:000121ac       ??_C@_1M@BODBOGLF@?$AAn?$AAn?$AA?9?$AAN?$AAO?$AA?$AA@ 100641ac     libucrtd:lcidtoname_downlevel.obj
 0002:000121b8       ??_C@_1M@HFFAHKAD@?$AAp?$AAt?$AA?9?$AAP?$AAT?$AA?$AA@ 100641b8     libucrtd:lcidtoname_downlevel.obj
 0002:000121c4       ??_C@_1BG@LNOAKHIE@?$AAs?$AAr?$AA?9?$AAS?$AAP?$AA?9?$AAL?$AAa?$AAt?$AAn?$AA?$AA@ 100641c4     libucrtd:lcidtoname_downlevel.obj
 0002:000121dc       ??_C@_1M@HBMHBGAK@?$AAs?$AAv?$AA?9?$AAF?$AAI?$AA?$AA@ 100641dc     libucrtd:lcidtoname_downlevel.obj
 0002:000121e8       ??_C@_1BG@DGCJGJBE@?$AAa?$AAz?$AA?9?$AAA?$AAZ?$AA?9?$AAC?$AAy?$AAr?$AAl?$AA?$AA@ 100641e8     libucrtd:lcidtoname_downlevel.obj
 0002:00012200       ??_C@_1M@KEJDAAHB@?$AAs?$AAe?$AA?9?$AAS?$AAE?$AA?$AA@ 10064200     libucrtd:lcidtoname_downlevel.obj
 0002:0001220c       ??_C@_1M@HEIBJJAD@?$AAm?$AAs?$AA?9?$AAB?$AAN?$AA?$AA@ 1006420c     libucrtd:lcidtoname_downlevel.obj
 0002:00012218       ??_C@_1BG@PBGJMCEM@?$AAu?$AAz?$AA?9?$AAU?$AAZ?$AA?9?$AAC?$AAy?$AAr?$AAl?$AA?$AA@ 10064218     libucrtd:lcidtoname_downlevel.obj
 0002:00012230       ??_C@_1O@LAOBCMDF@?$AAq?$AAu?$AAz?$AA?9?$AAE?$AAC?$AA?$AA@ 10064230     libucrtd:lcidtoname_downlevel.obj
 0002:00012240       ??_C@_1M@POEEMAIO@?$AAa?$AAr?$AA?9?$AAE?$AAG?$AA?$AA@ 10064240     libucrtd:lcidtoname_downlevel.obj
 0002:0001224c       ??_C@_1M@EFAKDEDL@?$AAz?$AAh?$AA?9?$AAH?$AAK?$AA?$AA@ 1006424c     libucrtd:lcidtoname_downlevel.obj
 0002:00012258       ??_C@_1M@HKKIJHGI@?$AAd?$AAe?$AA?9?$AAA?$AAT?$AA?$AA@ 10064258     libucrtd:lcidtoname_downlevel.obj
 0002:00012264       ??_C@_1M@KBFBEHJF@?$AAe?$AAn?$AA?9?$AAA?$AAU?$AA?$AA@ 10064264     libucrtd:lcidtoname_downlevel.obj
 0002:00012270       ??_C@_1M@MNPLFAAH@?$AAe?$AAs?$AA?9?$AAE?$AAS?$AA?$AA@ 10064270     libucrtd:lcidtoname_downlevel.obj
 0002:0001227c       ??_C@_1M@HJOOJFMA@?$AAf?$AAr?$AA?9?$AAC?$AAA?$AA?$AA@ 1006427c     libucrtd:lcidtoname_downlevel.obj
 0002:00012288       ??_C@_1BG@JPOFPNAB@?$AAs?$AAr?$AA?9?$AAS?$AAP?$AA?9?$AAC?$AAy?$AAr?$AAl?$AA?$AA@ 10064288     libucrtd:lcidtoname_downlevel.obj
 0002:000122a0       ??_C@_1M@LNFOCMOB@?$AAs?$AAe?$AA?9?$AAF?$AAI?$AA?$AA@ 100642a0     libucrtd:lcidtoname_downlevel.obj
 0002:000122ac       ??_C@_1O@MGJBOAMB@?$AAq?$AAu?$AAz?$AA?9?$AAP?$AAE?$AA?$AA@ 100642ac     libucrtd:lcidtoname_downlevel.obj
 0002:000122bc       ??_C@_1M@GJINLBOK@?$AAa?$AAr?$AA?9?$AAL?$AAY?$AA?$AA@ 100642bc     libucrtd:lcidtoname_downlevel.obj
 0002:000122c8       ??_C@_1M@GGMNHJNL@?$AAz?$AAh?$AA?9?$AAS?$AAG?$AA?$AA@ 100642c8     libucrtd:lcidtoname_downlevel.obj
 0002:000122d4       ??_C@_1M@HOIKODND@?$AAd?$AAe?$AA?9?$AAL?$AAU?$AA?$AA@ 100642d4     libucrtd:lcidtoname_downlevel.obj
 0002:000122e0       ??_C@_1M@DDOCCGFG@?$AAe?$AAn?$AA?9?$AAC?$AAA?$AA?$AA@ 100642e0     libucrtd:lcidtoname_downlevel.obj
 0002:000122ec       ??_C@_1M@BNOEMJLF@?$AAe?$AAs?$AA?9?$AAG?$AAT?$AA?$AA@ 100642ec     libucrtd:lcidtoname_downlevel.obj
 0002:000122f8       ??_C@_1M@EOGNKEK@?$AAf?$AAr?$AA?9?$AAC?$AAH?$AA?$AA@ 100642f8     libucrtd:lcidtoname_downlevel.obj
 0002:00012304       ??_C@_1M@FLIDJFHL@?$AAh?$AAr?$AA?9?$AAB?$AAA?$AA?$AA@ 10064304     libucrtd:lcidtoname_downlevel.obj
 0002:00012310       ??_C@_1O@FMCELNAJ@?$AAs?$AAm?$AAj?$AA?9?$AAN?$AAO?$AA?$AA@ 10064310     libucrtd:lcidtoname_downlevel.obj
 0002:00012320       ??_C@_1M@JHGLJMGJ@?$AAa?$AAr?$AA?9?$AAD?$AAZ?$AA?$AA@ 10064320     libucrtd:lcidtoname_downlevel.obj
 0002:0001232c       ??_C@_1M@JKKFDCNP@?$AAz?$AAh?$AA?9?$AAM?$AAO?$AA?$AA@ 1006432c     libucrtd:lcidtoname_downlevel.obj
 0002:00012338       ??_C@_1M@GEEFALPE@?$AAd?$AAe?$AA?9?$AAL?$AAI?$AA?$AA@ 10064338     libucrtd:lcidtoname_downlevel.obj
 0002:00012344       ??_C@_1M@IGEOFBG@?$AAe?$AAn?$AA?9?$AAN?$AAZ?$AA?$AA@ 10064344     libucrtd:lcidtoname_downlevel.obj
 0002:00012350       ??_C@_1M@KDBONEHP@?$AAe?$AAs?$AA?9?$AAC?$AAR?$AA?$AA@ 10064350     libucrtd:lcidtoname_downlevel.obj
 0002:0001235c       ??_C@_1M@FHMDOHNN@?$AAf?$AAr?$AA?9?$AAL?$AAU?$AA?$AA@ 1006435c     libucrtd:lcidtoname_downlevel.obj
 0002:00012368       ??_C@_1BG@NFKKMAFG@?$AAb?$AAs?$AA?9?$AAB?$AAA?$AA?9?$AAL?$AAa?$AAt?$AAn?$AA?$AA@ 10064368     libucrtd:lcidtoname_downlevel.obj
 0002:00012380       ??_C@_1O@IMNBEMCI@?$AAs?$AAm?$AAj?$AA?9?$AAS?$AAE?$AA?$AA@ 10064380     libucrtd:lcidtoname_downlevel.obj
 0002:00012390       ??_C@_1M@DHHMBNDP@?$AAa?$AAr?$AA?9?$AAM?$AAA?$AA?$AA@ 10064390     libucrtd:lcidtoname_downlevel.obj
 0002:0001239c       ??_C@_1M@BNBLJCGH@?$AAe?$AAn?$AA?9?$AAI?$AAE?$AA?$AA@ 1006439c     libucrtd:lcidtoname_downlevel.obj
 0002:000123a8       ??_C@_1M@GEPAFMDL@?$AAe?$AAs?$AA?9?$AAP?$AAA?$AA?$AA@ 100643a8     libucrtd:lcidtoname_downlevel.obj
 0002:000123b4       ??_C@_1M@OJONDMDL@?$AAf?$AAr?$AA?9?$AAM?$AAC?$AA?$AA@ 100643b4     libucrtd:lcidtoname_downlevel.obj
 0002:000123c0       ??_C@_1BG@OBCNFJB@?$AAs?$AAr?$AA?9?$AAB?$AAA?$AA?9?$AAL?$AAa?$AAt?$AAn?$AA?$AA@ 100643c0     libucrtd:lcidtoname_downlevel.obj
 0002:000123d8       ??_C@_1O@KEMEEGPO@?$AAs?$AAm?$AAa?$AA?9?$AAN?$AAO?$AA?$AA@ 100643d8     libucrtd:lcidtoname_downlevel.obj
 0002:000123e8       ??_C@_1M@ELMGFODK@?$AAa?$AAr?$AA?9?$AAT?$AAN?$AA?$AA@ 100643e8     libucrtd:lcidtoname_downlevel.obj
 0002:000123f4       ??_C@_1M@BHDLHFAF@?$AAe?$AAn?$AA?9?$AAZ?$AAA?$AA?$AA@ 100643f4     libucrtd:lcidtoname_downlevel.obj
 0002:00012400       ??_C@_1M@BMGIGLIF@?$AAe?$AAs?$AA?9?$AAD?$AAO?$AA?$AA@ 10064400     libucrtd:lcidtoname_downlevel.obj
 0002:0001240c       ??_C@_1BG@CMBHIPBE@?$AAs?$AAr?$AA?9?$AAB?$AAA?$AA?9?$AAC?$AAy?$AAr?$AAl?$AA?$AA@ 1006440c     libucrtd:lcidtoname_downlevel.obj
 0002:00012424       ??_C@_1O@HEDBLHNP@?$AAs?$AAm?$AAa?$AA?9?$AAS?$AAE?$AA?$AA@ 10064424     libucrtd:lcidtoname_downlevel.obj
 0002:00012434       ??_C@_1M@DAGCADIM@?$AAa?$AAr?$AA?9?$AAO?$AAM?$AA?$AA@ 10064434     libucrtd:lcidtoname_downlevel.obj
 0002:00012440       ??_C@_1M@FODLMICG@?$AAe?$AAn?$AA?9?$AAJ?$AAM?$AA?$AA@ 10064440     libucrtd:lcidtoname_downlevel.obj
 0002:0001244c       ??_C@_1M@DNMLCIHB@?$AAe?$AAs?$AA?9?$AAV?$AAE?$AA?$AA@ 1006444c     libucrtd:lcidtoname_downlevel.obj
 0002:00012458       ??_C@_1O@EOKHMKJK@?$AAs?$AAm?$AAs?$AA?9?$AAF?$AAI?$AA?$AA@ 10064458     libucrtd:lcidtoname_downlevel.obj
 0002:00012468       ??_C@_1M@CAFJMKOF@?$AAa?$AAr?$AA?9?$AAY?$AAE?$AA?$AA@ 10064468     libucrtd:lcidtoname_downlevel.obj
 0002:00012474       ??_C@_1M@CBFHIJLI@?$AAe?$AAn?$AA?9?$AAC?$AAB?$AA?$AA@ 10064474     libucrtd:lcidtoname_downlevel.obj
 0002:00012480       ??_C@_1M@BGNFLDN@?$AAe?$AAs?$AA?9?$AAC?$AAO?$AA?$AA@ 10064480     libucrtd:lcidtoname_downlevel.obj
 0002:0001248c       ??_C@_1O@JMPHMAMC@?$AAs?$AAm?$AAn?$AA?9?$AAF?$AAI?$AA?$AA@ 1006448c     libucrtd:lcidtoname_downlevel.obj
 0002:0001249c       ??_C@_1M@JLANABKE@?$AAa?$AAr?$AA?9?$AAS?$AAY?$AA?$AA@ 1006449c     libucrtd:lcidtoname_downlevel.obj
 0002:000124a8       ??_C@_1M@HPKGCFGN@?$AAe?$AAn?$AA?9?$AAB?$AAZ?$AA?$AA@ 100644a8     libucrtd:lcidtoname_downlevel.obj
 0002:000124b4       ??_C@_1M@OLJCMLGM@?$AAe?$AAs?$AA?9?$AAP?$AAE?$AA?$AA@ 100644b4     libucrtd:lcidtoname_downlevel.obj
 0002:000124c0       ??_C@_1M@MKKGFKLE@?$AAa?$AAr?$AA?9?$AAJ?$AAO?$AA?$AA@ 100644c0     libucrtd:lcidtoname_downlevel.obj
 0002:000124cc       ??_C@_1M@EKPGLDNI@?$AAe?$AAn?$AA?9?$AAT?$AAT?$AA?$AA@ 100644cc     libucrtd:lcidtoname_downlevel.obj
 0002:000124d8       ??_C@_1M@OONGHFHE@?$AAe?$AAs?$AA?9?$AAA?$AAR?$AA?$AA@ 100644d8     libucrtd:lcidtoname_downlevel.obj
 0002:000124e4       ??_C@_1M@OOJFGBHE@?$AAa?$AAr?$AA?9?$AAL?$AAB?$AA?$AA@ 100644e4     libucrtd:lcidtoname_downlevel.obj
 0002:000124f0       ??_C@_1M@GCEJHNEG@?$AAe?$AAn?$AA?9?$AAZ?$AAW?$AA?$AA@ 100644f0     libucrtd:lcidtoname_downlevel.obj
 0002:000124fc       ??_C@_1M@JNOCAHJI@?$AAe?$AAs?$AA?9?$AAE?$AAC?$AA?$AA@ 100644fc     libucrtd:lcidtoname_downlevel.obj
 0002:00012508       ??_C@_1M@JEFHPGGB@?$AAa?$AAr?$AA?9?$AAK?$AAW?$AA?$AA@ 10064508     libucrtd:lcidtoname_downlevel.obj
 0002:00012514       ??_C@_1M@MLKIBJOJ@?$AAe?$AAn?$AA?9?$AAP?$AAH?$AA?$AA@ 10064514     libucrtd:lcidtoname_downlevel.obj
 0002:00012520       ??_C@_1M@BDNIPEND@?$AAe?$AAs?$AA?9?$AAC?$AAL?$AA?$AA@ 10064520     libucrtd:lcidtoname_downlevel.obj
 0002:0001252c       ??_C@_1M@MPNMEKBD@?$AAa?$AAr?$AA?9?$AAA?$AAE?$AA?$AA@ 1006452c     libucrtd:lcidtoname_downlevel.obj
 0002:00012538       ??_C@_1M@KBJALCPI@?$AAe?$AAs?$AA?9?$AAU?$AAY?$AA?$AA@ 10064538     libucrtd:lcidtoname_downlevel.obj
 0002:00012544       ??_C@_1M@LLCCOAGA@?$AAa?$AAr?$AA?9?$AAB?$AAH?$AA?$AA@ 10064544     libucrtd:lcidtoname_downlevel.obj
 0002:00012550       ??_C@_1M@PBFNCDEL@?$AAe?$AAs?$AA?9?$AAP?$AAY?$AA?$AA@ 10064550     libucrtd:lcidtoname_downlevel.obj
 0002:0001255c       ??_C@_1M@EDGINPNP@?$AAa?$AAr?$AA?9?$AAQ?$AAA?$AA?$AA@ 1006455c     libucrtd:lcidtoname_downlevel.obj
 0002:00012568       ??_C@_1M@MKDBIIJI@?$AAe?$AAs?$AA?9?$AAB?$AAO?$AA?$AA@ 10064568     libucrtd:lcidtoname_downlevel.obj
 0002:00012574       ??_C@_1M@CPKKEBLD@?$AAe?$AAs?$AA?9?$AAS?$AAV?$AA?$AA@ 10064574     libucrtd:lcidtoname_downlevel.obj
 0002:00012580       ??_C@_1M@NDBGMMJL@?$AAe?$AAs?$AA?9?$AAH?$AAN?$AA?$AA@ 10064580     libucrtd:lcidtoname_downlevel.obj
 0002:0001258c       ??_C@_1M@JIJIBHDP@?$AAe?$AAs?$AA?9?$AAN?$AAI?$AA?$AA@ 1006458c     libucrtd:lcidtoname_downlevel.obj
 0002:00012598       ??_C@_1M@CGFMKEEK@?$AAe?$AAs?$AA?9?$AAP?$AAR?$AA?$AA@ 10064598     libucrtd:lcidtoname_downlevel.obj
 0002:000125a4       ??_C@_1O@ICJHKIIK@?$AAz?$AAh?$AA?9?$AAC?$AAH?$AAT?$AA?$AA@ 100645a4     libucrtd:lcidtoname_downlevel.obj
 0002:000125b4       ??_C@_15CLNEJCE@?$AAs?$AAr?$AA?$AA@ 100645b4     libucrtd:lcidtoname_downlevel.obj
 0002:00012ce0       ??_C@_1M@KAHEKEIG@?$AAa?$AAf?$AA?9?$AAz?$AAa?$AA?$AA@ 10064ce0     libucrtd:lcidtoname_downlevel.obj
 0002:00012cec       ??_C@_1M@GIECOABL@?$AAa?$AAr?$AA?9?$AAa?$AAe?$AA?$AA@ 10064cec     libucrtd:lcidtoname_downlevel.obj
 0002:00012cf8       ??_C@_1M@BMLMEKGI@?$AAa?$AAr?$AA?9?$AAb?$AAh?$AA?$AA@ 10064cf8     libucrtd:lcidtoname_downlevel.obj
 0002:00012d04       ??_C@_1M@DAPFDGGB@?$AAa?$AAr?$AA?9?$AAd?$AAz?$AA?$AA@ 10064d04     libucrtd:lcidtoname_downlevel.obj
 0002:00012d10       ??_C@_1M@FJNKGKIG@?$AAa?$AAr?$AA?9?$AAe?$AAg?$AA?$AA@ 10064d10     libucrtd:lcidtoname_downlevel.obj
 0002:00012d1c       ??_C@_1M@FLGKKCLO@?$AAa?$AAr?$AA?9?$AAi?$AAq?$AA?$AA@ 10064d1c     libucrtd:lcidtoname_downlevel.obj
 0002:00012d28       ??_C@_1M@GNDIPALM@?$AAa?$AAr?$AA?9?$AAj?$AAo?$AA?$AA@ 10064d28     libucrtd:lcidtoname_downlevel.obj
 0002:00012d34       ??_C@_1M@DDMJFMGJ@?$AAa?$AAr?$AA?9?$AAk?$AAw?$AA?$AA@ 10064d34     libucrtd:lcidtoname_downlevel.obj
 0002:00012d40       ??_C@_1M@EJALMLHM@?$AAa?$AAr?$AA?9?$AAl?$AAb?$AA?$AA@ 10064d40     libucrtd:lcidtoname_downlevel.obj
 0002:00012d4c       ??_C@_1M@MOBDBLOC@?$AAa?$AAr?$AA?9?$AAl?$AAy?$AA?$AA@ 10064d4c     libucrtd:lcidtoname_downlevel.obj
 0002:00012d58       ??_C@_1M@JAOCLHDH@?$AAa?$AAr?$AA?9?$AAm?$AAa?$AA?$AA@ 10064d58     libucrtd:lcidtoname_downlevel.obj
 0002:00012d64       ??_C@_1M@JHPMKJIE@?$AAa?$AAr?$AA?9?$AAo?$AAm?$AA?$AA@ 10064d64     libucrtd:lcidtoname_downlevel.obj
 0002:00012d70       ??_C@_1M@OEPGHFNH@?$AAa?$AAr?$AA?9?$AAq?$AAa?$AA?$AA@ 10064d70     libucrtd:lcidtoname_downlevel.obj
 0002:00012d7c       ??_C@_1M@KJDONENM@?$AAa?$AAr?$AA?9?$AAs?$AAa?$AA?$AA@ 10064d7c     libucrtd:lcidtoname_downlevel.obj
 0002:00012d88       ??_C@_1M@DMJDKLKM@?$AAa?$AAr?$AA?9?$AAs?$AAy?$AA?$AA@ 10064d88     libucrtd:lcidtoname_downlevel.obj
 0002:00012d94       ??_C@_1M@OMFIPEDC@?$AAa?$AAr?$AA?9?$AAt?$AAn?$AA?$AA@ 10064d94     libucrtd:lcidtoname_downlevel.obj
 0002:00012da0       ??_C@_1M@IHMHGAON@?$AAa?$AAr?$AA?9?$AAy?$AAe?$AA?$AA@ 10064da0     libucrtd:lcidtoname_downlevel.obj
 0002:00012dac       ??_C@_1BG@KDCPGJGB@?$AAa?$AAz?$AA?9?$AAa?$AAz?$AA?9?$AAc?$AAy?$AAr?$AAl?$AA?$AA@ 10064dac     libucrtd:lcidtoname_downlevel.obj
 0002:00012dc4       ??_C@_1BG@IBCKDDOE@?$AAa?$AAz?$AA?9?$AAa?$AAz?$AA?9?$AAl?$AAa?$AAt?$AAn?$AA?$AA@ 10064dc4     libucrtd:lcidtoname_downlevel.obj
 0002:00012ddc       ??_C@_1M@EGPFDCPD@?$AAb?$AAe?$AA?9?$AAb?$AAy?$AA?$AA@ 10064ddc     libucrtd:lcidtoname_downlevel.obj
 0002:00012de8       ??_C@_1M@PCMGMCGC@?$AAb?$AAg?$AA?9?$AAb?$AAg?$AA?$AA@ 10064de8     libucrtd:lcidtoname_downlevel.obj
 0002:00012df4       ??_C@_1M@BJBMFGOB@?$AAb?$AAn?$AA?9?$AAi?$AAn?$AA?$AA@ 10064df4     libucrtd:lcidtoname_downlevel.obj
 0002:00012e00       ??_C@_1BG@EAKMMACD@?$AAb?$AAs?$AA?9?$AAb?$AAa?$AA?9?$AAl?$AAa?$AAt?$AAn?$AA?$AA@ 10064e00     libucrtd:lcidtoname_downlevel.obj
 0002:00012e18       ??_C@_1M@KGADAODK@?$AAc?$AAa?$AA?9?$AAe?$AAs?$AA?$AA@ 10064e18     libucrtd:lcidtoname_downlevel.obj
 0002:00012e24       ??_C@_1M@COAJPDHI@?$AAc?$AAs?$AA?9?$AAc?$AAz?$AA?$AA@ 10064e24     libucrtd:lcidtoname_downlevel.obj
 0002:00012e30       ??_C@_1M@DHBHFONH@?$AAc?$AAy?$AA?9?$AAg?$AAb?$AA?$AA@ 10064e30     libucrtd:lcidtoname_downlevel.obj
 0002:00012e3c       ??_C@_1M@IMGKELGA@?$AAd?$AAa?$AA?9?$AAd?$AAk?$AA?$AA@ 10064e3c     libucrtd:lcidtoname_downlevel.obj
 0002:00012e48       ??_C@_1M@NNDGDNGA@?$AAd?$AAe?$AA?9?$AAa?$AAt?$AA?$AA@ 10064e48     libucrtd:lcidtoname_downlevel.obj
 0002:00012e54       ??_C@_1M@IKDBHEEM@?$AAd?$AAe?$AA?9?$AAc?$AAh?$AA?$AA@ 10064e54     libucrtd:lcidtoname_downlevel.obj
 0002:00012e60       ??_C@_1M@GFFOJMCJ@?$AAd?$AAe?$AA?9?$AAd?$AAe?$AA?$AA@ 10064e60     libucrtd:lcidtoname_downlevel.obj
 0002:00012e6c       ??_C@_1M@MDNLKBPM@?$AAd?$AAe?$AA?9?$AAl?$AAi?$AA?$AA@ 10064e6c     libucrtd:lcidtoname_downlevel.obj
 0002:00012e78       ??_C@_1M@NJBEEJNL@?$AAd?$AAe?$AA?9?$AAl?$AAu?$AA?$AA@ 10064e78     libucrtd:lcidtoname_downlevel.obj
 0002:00012e84       ??_C@_1O@GNNELBAP@?$AAd?$AAi?$AAv?$AA?9?$AAm?$AAv?$AA?$AA@ 10064e84     libucrtd:lcidtoname_downlevel.obj
 0002:00012e94       ??_C@_1M@EJLEOGAE@?$AAe?$AAl?$AA?9?$AAg?$AAr?$AA?$AA@ 10064e94     libucrtd:lcidtoname_downlevel.obj
 0002:00012ea0       ??_C@_1M@GMPONJN@?$AAe?$AAn?$AA?9?$AAa?$AAu?$AA?$AA@ 10064ea0     libucrtd:lcidtoname_downlevel.obj
 0002:00012eac       ??_C@_1M@NIDIIPGF@?$AAe?$AAn?$AA?9?$AAb?$AAz?$AA?$AA@ 10064eac     libucrtd:lcidtoname_downlevel.obj
 0002:00012eb8       ??_C@_1M@JEHMIMFO@?$AAe?$AAn?$AA?9?$AAc?$AAa?$AA?$AA@ 10064eb8     libucrtd:lcidtoname_downlevel.obj
 0002:00012ec4       ??_C@_1M@IGMJCDLA@?$AAe?$AAn?$AA?9?$AAc?$AAb?$AA?$AA@ 10064ec4     libucrtd:lcidtoname_downlevel.obj
 0002:00012ed0       ??_C@_1M@BNFIGBKG@?$AAe?$AAn?$AA?9?$AAg?$AAb?$AA?$AA@ 10064ed0     libucrtd:lcidtoname_downlevel.obj
 0002:00012edc       ??_C@_1M@LKIFDIGP@?$AAe?$AAn?$AA?9?$AAi?$AAe?$AA?$AA@ 10064edc     libucrtd:lcidtoname_downlevel.obj
 0002:00012ee8       ??_C@_1M@PJKFGCCO@?$AAe?$AAn?$AA?9?$AAj?$AAm?$AA?$AA@ 10064ee8     libucrtd:lcidtoname_downlevel.obj
 0002:00012ef4       ??_C@_1M@KPPKEPBO@?$AAe?$AAn?$AA?9?$AAn?$AAz?$AA?$AA@ 10064ef4     libucrtd:lcidtoname_downlevel.obj
 0002:00012f00       ??_C@_1M@GMDGLDOB@?$AAe?$AAn?$AA?9?$AAp?$AAh?$AA?$AA@ 10064f00     libucrtd:lcidtoname_downlevel.obj
 0002:00012f0c       ??_C@_1M@ONGIBJNA@?$AAe?$AAn?$AA?9?$AAt?$AAt?$AA?$AA@ 10064f0c     libucrtd:lcidtoname_downlevel.obj
 0002:00012f18       ??_C@_1M@LLODPCMM@?$AAe?$AAn?$AA?9?$AAu?$AAs?$AA?$AA@ 10064f18     libucrtd:lcidtoname_downlevel.obj
 0002:00012f24       ??_C@_1M@LAKFNPAN@?$AAe?$AAn?$AA?9?$AAz?$AAa?$AA?$AA@ 10064f24     libucrtd:lcidtoname_downlevel.obj
 0002:00012f30       ??_C@_1M@MFNHNHEO@?$AAe?$AAn?$AA?9?$AAz?$AAw?$AA?$AA@ 10064f30     libucrtd:lcidtoname_downlevel.obj
 0002:00012f3c       ??_C@_1M@EJEINPHM@?$AAe?$AAs?$AA?9?$AAa?$AAr?$AA?$AA@ 10064f3c     libucrtd:lcidtoname_downlevel.obj
 0002:00012f48       ??_C@_1M@GNKPCCJA@?$AAe?$AAs?$AA?9?$AAb?$AAo?$AA?$AA@ 10064f48     libucrtd:lcidtoname_downlevel.obj
 0002:00012f54       ??_C@_1M@LEEGFONL@?$AAe?$AAs?$AA?9?$AAc?$AAl?$AA?$AA@ 10064f54     libucrtd:lcidtoname_downlevel.obj
 0002:00012f60       ??_C@_1M@KGPDPBDF@?$AAe?$AAs?$AA?9?$AAc?$AAo?$AA?$AA@ 10064f60     libucrtd:lcidtoname_downlevel.obj
 0002:00012f6c       ??_C@_1M@EIAHOHH@?$AAe?$AAs?$AA?9?$AAc?$AAr?$AA?$AA@ 10064f6c     libucrtd:lcidtoname_downlevel.obj
 0002:00012f78       ??_C@_1M@LLPGMBIN@?$AAe?$AAs?$AA?9?$AAd?$AAo?$AA?$AA@ 10064f78     libucrtd:lcidtoname_downlevel.obj
 0002:00012f84       ??_C@_1M@DKHMKNJA@?$AAe?$AAs?$AA?9?$AAe?$AAc?$AA?$AA@ 10064f84     libucrtd:lcidtoname_downlevel.obj
 0002:00012f90       ??_C@_1M@GKGFPKAP@?$AAe?$AAs?$AA?9?$AAe?$AAs?$AA?$AA@ 10064f90     libucrtd:lcidtoname_downlevel.obj
 0002:00012f9c       ??_C@_1M@LKHKGDLN@?$AAe?$AAs?$AA?9?$AAg?$AAt?$AA?$AA@ 10064f9c     libucrtd:lcidtoname_downlevel.obj
 0002:00012fa8       ??_C@_1M@HEIIGGJD@?$AAe?$AAs?$AA?9?$AAh?$AAn?$AA?$AA@ 10064fa8     libucrtd:lcidtoname_downlevel.obj
 0002:00012fb4       ??_C@_1M@FBDHPPGD@?$AAe?$AAs?$AA?9?$AAm?$AAx?$AA?$AA@ 10064fb4     libucrtd:lcidtoname_downlevel.obj
 0002:00012fc0       ??_C@_1M@DPAGLNDH@?$AAe?$AAs?$AA?9?$AAn?$AAi?$AA?$AA@ 10064fc0     libucrtd:lcidtoname_downlevel.obj
 0002:00012fcc       ??_C@_1M@MDGOPGDD@?$AAe?$AAs?$AA?9?$AAp?$AAa?$AA?$AA@ 10064fcc     libucrtd:lcidtoname_downlevel.obj
 0002:00012fd8       ??_C@_1M@EMAMGBGE@?$AAe?$AAs?$AA?9?$AAp?$AAe?$AA?$AA@ 10064fd8     libucrtd:lcidtoname_downlevel.obj
 0002:00012fe4       ??_C@_1M@IBMCAOEC@?$AAe?$AAs?$AA?9?$AAp?$AAr?$AA?$AA@ 10064fe4     libucrtd:lcidtoname_downlevel.obj
 0002:00012ff0       ??_C@_1M@FGMDIJED@?$AAe?$AAs?$AA?9?$AAp?$AAy?$AA?$AA@ 10064ff0     libucrtd:lcidtoname_downlevel.obj
 0002:00012ffc       ??_C@_1M@IIDEOLLL@?$AAe?$AAs?$AA?9?$AAs?$AAv?$AA?$AA@ 10064ffc     libucrtd:lcidtoname_downlevel.obj
 0002:00013008       ??_C@_1M@GAOBIPA@?$AAe?$AAs?$AA?9?$AAu?$AAy?$AA?$AA@ 10065008     libucrtd:lcidtoname_downlevel.obj
 0002:00013014       ??_C@_1M@JKFFICHJ@?$AAe?$AAs?$AA?9?$AAv?$AAe?$AA?$AA@ 10065014     libucrtd:lcidtoname_downlevel.obj
 0002:00013020       ??_C@_1M@PNMLOJDF@?$AAe?$AAt?$AA?9?$AAe?$AAe?$AA?$AA@ 10065020     libucrtd:lcidtoname_downlevel.obj
 0002:0001302c       ??_C@_1M@GHHLIKEI@?$AAe?$AAu?$AA?9?$AAe?$AAs?$AA?$AA@ 1006502c     libucrtd:lcidtoname_downlevel.obj
 0002:00013038       ??_C@_1M@PBNONODE@?$AAf?$AAa?$AA?9?$AAi?$AAr?$AA?$AA@ 10065038     libucrtd:lcidtoname_downlevel.obj
 0002:00013044       ??_C@_1M@JEEHPMIL@?$AAf?$AAi?$AA?9?$AAf?$AAi?$AA?$AA@ 10065044     libucrtd:lcidtoname_downlevel.obj
 0002:00013050       ??_C@_1M@LMDCNDBA@?$AAf?$AAo?$AA?9?$AAf?$AAo?$AA?$AA@ 10065050     libucrtd:lcidtoname_downlevel.obj
 0002:0001305c       ??_C@_1M@JKEOHLDK@?$AAf?$AAr?$AA?9?$AAb?$AAe?$AA?$AA@ 1006505c     libucrtd:lcidtoname_downlevel.obj
 0002:00013068       ??_C@_1M@NOHADPMI@?$AAf?$AAr?$AA?9?$AAc?$AAa?$AA?$AA@ 10065068     libucrtd:lcidtoname_downlevel.obj
 0002:00013074       ??_C@_1M@KDHIHAEC@?$AAf?$AAr?$AA?9?$AAc?$AAh?$AA?$AA@ 10065074     libucrtd:lcidtoname_downlevel.obj
 0002:00013080       ??_C@_1M@MMBBFGAK@?$AAf?$AAr?$AA?9?$AAf?$AAr?$AA?$AA@ 10065080     libucrtd:lcidtoname_downlevel.obj
 0002:0001308c       ??_C@_1M@PAFNENNF@?$AAf?$AAr?$AA?9?$AAl?$AAu?$AA?$AA@ 1006508c     libucrtd:lcidtoname_downlevel.obj
 0002:00013098       ??_C@_1M@EOHDJGDD@?$AAf?$AAr?$AA?9?$AAm?$AAc?$AA?$AA@ 10065098     libucrtd:lcidtoname_downlevel.obj
 0002:000130a4       ??_C@_1M@FAPLLOPF@?$AAg?$AAl?$AA?9?$AAe?$AAs?$AA?$AA@ 100650a4     libucrtd:lcidtoname_downlevel.obj
 0002:000130b0       ??_C@_1M@FOPBFLOO@?$AAg?$AAu?$AA?9?$AAi?$AAn?$AA?$AA@ 100650b0     libucrtd:lcidtoname_downlevel.obj
 0002:000130bc       ??_C@_1M@KBMCINPM@?$AAh?$AAe?$AA?9?$AAi?$AAl?$AA?$AA@ 100650bc     libucrtd:lcidtoname_downlevel.obj
 0002:000130c8       ??_C@_1M@BBPHKFPJ@?$AAh?$AAi?$AA?9?$AAi?$AAn?$AA?$AA@ 100650c8     libucrtd:lcidtoname_downlevel.obj
 0002:000130d4       ??_C@_1M@PMBNDPHD@?$AAh?$AAr?$AA?9?$AAb?$AAa?$AA?$AA@ 100650d4     libucrtd:lcidtoname_downlevel.obj
 0002:000130e0       ??_C@_1M@BPCKOEGE@?$AAh?$AAr?$AA?9?$AAh?$AAr?$AA?$AA@ 100650e0     libucrtd:lcidtoname_downlevel.obj
 0002:000130ec       ??_C@_1M@GACBMHKE@?$AAh?$AAu?$AA?9?$AAh?$AAu?$AA?$AA@ 100650ec     libucrtd:lcidtoname_downlevel.obj
 0002:000130f8       ??_C@_1M@MILPAJJC@?$AAh?$AAy?$AA?9?$AAa?$AAm?$AA?$AA@ 100650f8     libucrtd:lcidtoname_downlevel.obj
 0002:00013104       ??_C@_1M@BABBICEC@?$AAi?$AAd?$AA?9?$AAi?$AAd?$AA?$AA@ 10065104     libucrtd:lcidtoname_downlevel.obj
 0002:00013110       ??_C@_1M@BIKNHHPF@?$AAi?$AAs?$AA?9?$AAi?$AAs?$AA?$AA@ 10065110     libucrtd:lcidtoname_downlevel.obj
 0002:0001311c       ??_C@_1M@NMPCJPHE@?$AAi?$AAt?$AA?9?$AAc?$AAh?$AA?$AA@ 1006511c     libucrtd:lcidtoname_downlevel.obj
 0002:00013128       ??_C@_1M@GHKGFEDF@?$AAi?$AAt?$AA?9?$AAi?$AAt?$AA?$AA@ 10065128     libucrtd:lcidtoname_downlevel.obj
 0002:00013134       ??_C@_1M@NIEJCJJA@?$AAj?$AAa?$AA?9?$AAj?$AAp?$AA?$AA@ 10065134     libucrtd:lcidtoname_downlevel.obj
 0002:00013140       ??_C@_1M@JILFNBIM@?$AAk?$AAa?$AA?9?$AAg?$AAe?$AA?$AA@ 10065140     libucrtd:lcidtoname_downlevel.obj
 0002:0001314c       ??_C@_1M@PACPMGPH@?$AAk?$AAk?$AA?9?$AAk?$AAz?$AA?$AA@ 1006514c     libucrtd:lcidtoname_downlevel.obj
 0002:00013158       ??_C@_1M@IELFGMHA@?$AAk?$AAn?$AA?9?$AAi?$AAn?$AA?$AA@ 10065158     libucrtd:lcidtoname_downlevel.obj
 0002:00013164       ??_C@_1O@IBBJHCH@?$AAk?$AAo?$AAk?$AA?9?$AAi?$AAn?$AA?$AA@ 10065164     libucrtd:lcidtoname_downlevel.obj
 0002:00013174       ??_C@_1M@DMHAEOGC@?$AAk?$AAo?$AA?9?$AAk?$AAr?$AA?$AA@ 10065174     libucrtd:lcidtoname_downlevel.obj
 0002:00013180       ??_C@_1M@HBAHBIGA@?$AAk?$AAy?$AA?9?$AAk?$AAg?$AA?$AA@ 10065180     libucrtd:lcidtoname_downlevel.obj
 0002:0001318c       ??_C@_1M@KPMILCJG@?$AAl?$AAt?$AA?9?$AAl?$AAt?$AA?$AA@ 1006518c     libucrtd:lcidtoname_downlevel.obj
 0002:00013198       ??_C@_1M@BDEKKCA@?$AAl?$AAv?$AA?9?$AAl?$AAv?$AA?$AA@ 10065198     libucrtd:lcidtoname_downlevel.obj
 0002:000131a4       ??_C@_1M@ELCKCCJJ@?$AAm?$AAi?$AA?9?$AAn?$AAz?$AA?$AA@ 100651a4     libucrtd:lcidtoname_downlevel.obj
 0002:000131b0       ??_C@_1M@CBOOLAPA@?$AAm?$AAk?$AA?9?$AAm?$AAk?$AA?$AA@ 100651b0     libucrtd:lcidtoname_downlevel.obj
 0002:000131bc       ??_C@_1M@GPHNBJKN@?$AAm?$AAl?$AA?9?$AAi?$AAn?$AA?$AA@ 100651bc     libucrtd:lcidtoname_downlevel.obj
 0002:000131c8       ??_C@_1M@PABJILIG@?$AAm?$AAn?$AA?9?$AAm?$AAn?$AA?$AA@ 100651c8     libucrtd:lcidtoname_downlevel.obj
 0002:000131d4       ??_C@_1M@FGBKKIPG@?$AAm?$AAr?$AA?9?$AAi?$AAn?$AA?$AA@ 100651d4     libucrtd:lcidtoname_downlevel.obj
 0002:000131e0       ??_C@_1M@NDBPDDAL@?$AAm?$AAs?$AA?9?$AAb?$AAn?$AA?$AA@ 100651e0     libucrtd:lcidtoname_downlevel.obj
 0002:000131ec       ??_C@_1M@OPIHOOPI@?$AAm?$AAs?$AA?9?$AAm?$AAy?$AA?$AA@ 100651ec     libucrtd:lcidtoname_downlevel.obj
 0002:000131f8       ??_C@_1M@PPDBCNFM@?$AAm?$AAt?$AA?9?$AAm?$AAt?$AA?$AA@ 100651f8     libucrtd:lcidtoname_downlevel.obj
 0002:00013204       ??_C@_1M@KDJDKMDD@?$AAn?$AAb?$AA?9?$AAn?$AAo?$AA?$AA@ 10065204     libucrtd:lcidtoname_downlevel.obj
 0002:00013210       ??_C@_1M@KFCFLMJP@?$AAn?$AAl?$AA?9?$AAb?$AAe?$AA?$AA@ 10065210     libucrtd:lcidtoname_downlevel.obj
 0002:0001321c       ??_C@_1M@KPOPDDGO@?$AAn?$AAl?$AA?9?$AAn?$AAl?$AA?$AA@ 1006521c     libucrtd:lcidtoname_downlevel.obj
 0002:00013228       ??_C@_1M@LJKPEMLN@?$AAn?$AAn?$AA?9?$AAn?$AAo?$AA?$AA@ 10065228     libucrtd:lcidtoname_downlevel.obj
 0002:00013234       ??_C@_1M@BDGHHBFL@?$AAn?$AAs?$AA?9?$AAz?$AAa?$AA?$AA@ 10065234     libucrtd:lcidtoname_downlevel.obj
 0002:00013240       ??_C@_1M@IDEHOAP@?$AAp?$AAa?$AA?9?$AAi?$AAn?$AA?$AA@ 10065240     libucrtd:lcidtoname_downlevel.obj
 0002:0001324c       ??_C@_1M@HDBKGOGH@?$AAp?$AAl?$AA?9?$AAp?$AAl?$AA?$AA@ 1006524c     libucrtd:lcidtoname_downlevel.obj
 0002:00013258       ??_C@_1M@LJLLCMEH@?$AAp?$AAt?$AA?9?$AAb?$AAr?$AA?$AA@ 10065258     libucrtd:lcidtoname_downlevel.obj
 0002:00013264       ??_C@_1M@NCMONAAL@?$AAp?$AAt?$AA?9?$AAp?$AAt?$AA?$AA@ 10065264     libucrtd:lcidtoname_downlevel.obj
 0002:00013270       ??_C@_1O@EAKMAJDN@?$AAq?$AAu?$AAz?$AA?9?$AAb?$AAo?$AA?$AA@ 10065270     libucrtd:lcidtoname_downlevel.obj
 0002:00013280       ??_C@_1O@BHHPIGDN@?$AAq?$AAu?$AAz?$AA?9?$AAe?$AAc?$AA?$AA@ 10065280     libucrtd:lcidtoname_downlevel.obj
 0002:00013290       ??_C@_1O@GBAPEKMJ@?$AAq?$AAu?$AAz?$AA?9?$AAp?$AAe?$AA?$AA@ 10065290     libucrtd:lcidtoname_downlevel.obj
 0002:000132a0       ??_C@_1M@CLGLEFBO@?$AAr?$AAo?$AA?9?$AAr?$AAo?$AA?$AA@ 100652a0     libucrtd:lcidtoname_downlevel.obj
 0002:000132ac       ??_C@_1M@CEEDODME@?$AAr?$AAu?$AA?9?$AAr?$AAu?$AA?$AA@ 100652ac     libucrtd:lcidtoname_downlevel.obj
 0002:000132b8       ??_C@_1M@HPKKKMPP@?$AAs?$AAa?$AA?9?$AAi?$AAn?$AA?$AA@ 100652b8     libucrtd:lcidtoname_downlevel.obj
 0002:000132c4       ??_C@_1M@BKMAIGOJ@?$AAs?$AAe?$AA?9?$AAf?$AAi?$AA?$AA@ 100652c4     libucrtd:lcidtoname_downlevel.obj
 0002:000132d0       ??_C@_1M@NDPIFLFI@?$AAs?$AAe?$AA?9?$AAn?$AAo?$AA?$AA@ 100652d0     libucrtd:lcidtoname_downlevel.obj
 0002:000132dc       ??_C@_1M@DANKKHJ@?$AAs?$AAe?$AA?9?$AAs?$AAe?$AA?$AA@ 100652dc     libucrtd:lcidtoname_downlevel.obj
 0002:000132e8       ??_C@_1M@PNBLONPJ@?$AAs?$AAk?$AA?9?$AAs?$AAk?$AA?$AA@ 100652e8     libucrtd:lcidtoname_downlevel.obj
 0002:000132f4       ??_C@_1M@LFMODOAL@?$AAs?$AAl?$AA?9?$AAs?$AAi?$AA?$AA@ 100652f4     libucrtd:lcidtoname_downlevel.obj
 0002:00013300       ??_C@_1O@DFKOMPG@?$AAs?$AAm?$AAa?$AA?9?$AAn?$AAo?$AA?$AA@ 10065300     libucrtd:lcidtoname_downlevel.obj
 0002:00013310       ??_C@_1O@NDKPBNNH@?$AAs?$AAm?$AAa?$AA?9?$AAs?$AAe?$AA?$AA@ 10065310     libucrtd:lcidtoname_downlevel.obj
 0002:00013320       ??_C@_1O@PLLKBHAB@?$AAs?$AAm?$AAj?$AA?9?$AAn?$AAo?$AA?$AA@ 10065320     libucrtd:lcidtoname_downlevel.obj
 0002:00013330       ??_C@_1O@CLEPOGCA@?$AAs?$AAm?$AAj?$AA?9?$AAs?$AAe?$AA?$AA@ 10065330     libucrtd:lcidtoname_downlevel.obj
 0002:00013340       ??_C@_1O@DLGJGKMK@?$AAs?$AAm?$AAn?$AA?9?$AAf?$AAi?$AA?$AA@ 10065340     libucrtd:lcidtoname_downlevel.obj
 0002:00013350       ??_C@_1O@OJDJGAJC@?$AAs?$AAm?$AAs?$AA?9?$AAf?$AAi?$AA?$AA@ 10065350     libucrtd:lcidtoname_downlevel.obj
 0002:00013360       ??_C@_1M@BOFOGHPB@?$AAs?$AAq?$AA?9?$AAa?$AAl?$AA?$AA@ 10065360     libucrtd:lcidtoname_downlevel.obj
 0002:0001336c       ??_C@_1BG@LJBBIPGB@?$AAs?$AAr?$AA?9?$AAb?$AAa?$AA?9?$AAc?$AAy?$AAr?$AAl?$AA?$AA@ 1006536c     libucrtd:lcidtoname_downlevel.obj
 0002:00013384       ??_C@_1BG@JLBENFOE@?$AAs?$AAr?$AA?9?$AAb?$AAa?$AA?9?$AAl?$AAa?$AAt?$AAn?$AA?$AA@ 10065384     libucrtd:lcidtoname_downlevel.obj
 0002:0001339c       ??_C@_1BG@KODPNHE@?$AAs?$AAr?$AA?9?$AAs?$AAp?$AA?9?$AAc?$AAy?$AAr?$AAl?$AA?$AA@ 1006539c     libucrtd:lcidtoname_downlevel.obj
 0002:000133b4       ??_C@_1BG@CIOGKHPB@?$AAs?$AAr?$AA?9?$AAs?$AAp?$AA?9?$AAl?$AAa?$AAt?$AAn?$AA?$AA@ 100653b4     libucrtd:lcidtoname_downlevel.obj
 0002:000133cc       ??_C@_1M@NGFJLMAC@?$AAs?$AAv?$AA?9?$AAf?$AAi?$AA?$AA@ 100653cc     libucrtd:lcidtoname_downlevel.obj
 0002:000133d8       ??_C@_1M@MPJEJAJC@?$AAs?$AAv?$AA?9?$AAs?$AAe?$AA?$AA@ 100653d8     libucrtd:lcidtoname_downlevel.obj
 0002:000133e4       ??_C@_1M@MPNDHLFK@?$AAs?$AAw?$AA?9?$AAk?$AAe?$AA?$AA@ 100653e4     libucrtd:lcidtoname_downlevel.obj
 0002:000133f0       ??_C@_1O@KOHBJJI@?$AAs?$AAy?$AAr?$AA?9?$AAs?$AAy?$AA?$AA@ 100653f0     libucrtd:lcidtoname_downlevel.obj
 0002:00013400       ??_C@_1M@LDCEFHA@?$AAt?$AAa?$AA?9?$AAi?$AAn?$AA?$AA@ 10065400     libucrtd:lcidtoname_downlevel.obj
 0002:0001340c       ??_C@_1M@CNJOFAK@?$AAt?$AAe?$AA?9?$AAi?$AAn?$AA?$AA@ 1006540c     libucrtd:lcidtoname_downlevel.obj
 0002:00013418       ??_C@_1M@GNAECACD@?$AAt?$AAh?$AA?9?$AAt?$AAh?$AA?$AA@ 10065418     libucrtd:lcidtoname_downlevel.obj
 0002:00013424       ??_C@_1M@CHBIHOJO@?$AAt?$AAn?$AA?9?$AAz?$AAa?$AA?$AA@ 10065424     libucrtd:lcidtoname_downlevel.obj
 0002:00013430       ??_C@_1M@GCCMIGPJ@?$AAt?$AAr?$AA?9?$AAt?$AAr?$AA?$AA@ 10065430     libucrtd:lcidtoname_downlevel.obj
 0002:0001343c       ??_C@_1M@CELMCNBK@?$AAt?$AAt?$AA?9?$AAr?$AAu?$AA?$AA@ 1006543c     libucrtd:lcidtoname_downlevel.obj
 0002:00013448       ??_C@_1M@KLMCELGA@?$AAu?$AAk?$AA?9?$AAu?$AAa?$AA?$AA@ 10065448     libucrtd:lcidtoname_downlevel.obj
 0002:00013454       ??_C@_1M@EPAJJAJF@?$AAu?$AAr?$AA?9?$AAp?$AAk?$AA?$AA@ 10065454     libucrtd:lcidtoname_downlevel.obj
 0002:00013460       ??_C@_1BG@GEGPMCDJ@?$AAu?$AAz?$AA?9?$AAu?$AAz?$AA?9?$AAc?$AAy?$AAr?$AAl?$AA?$AA@ 10065460     libucrtd:lcidtoname_downlevel.obj
 0002:00013478       ??_C@_1BG@EGGKJILM@?$AAu?$AAz?$AA?9?$AAu?$AAz?$AA?9?$AAl?$AAa?$AAt?$AAn?$AA?$AA@ 10065478     libucrtd:lcidtoname_downlevel.obj
 0002:00013490       ??_C@_1M@GFOCLFF@?$AAv?$AAi?$AA?9?$AAv?$AAn?$AA?$AA@ 10065490     libucrtd:lcidtoname_downlevel.obj
 0002:0001349c       ??_C@_1M@CPAMEDFI@?$AAx?$AAh?$AA?9?$AAz?$AAa?$AA?$AA@ 1006549c     libucrtd:lcidtoname_downlevel.obj
 0002:000134a8       ??_C@_1O@EBKIFIGN@?$AAz?$AAh?$AA?9?$AAc?$AAh?$AAs?$AA?$AA@ 100654a8     libucrtd:lcidtoname_downlevel.obj
 0002:000134b8       ??_C@_1O@NMHPGANE@?$AAz?$AAh?$AA?9?$AAc?$AAh?$AAt?$AA?$AA@ 100654b8     libucrtd:lcidtoname_downlevel.obj
 0002:000134c8       ??_C@_1M@LPINJOMC@?$AAz?$AAh?$AA?9?$AAc?$AAn?$AA?$AA@ 100654c8     libucrtd:lcidtoname_downlevel.obj
 0002:000134d4       ??_C@_1M@OCJEJODD@?$AAz?$AAh?$AA?9?$AAh?$AAk?$AA?$AA@ 100654d4     libucrtd:lcidtoname_downlevel.obj
 0002:000134e0       ??_C@_1M@DNDLJINH@?$AAz?$AAh?$AA?9?$AAm?$AAo?$AA?$AA@ 100654e0     libucrtd:lcidtoname_downlevel.obj
 0002:000134ec       ??_C@_1M@MBFDNDND@?$AAz?$AAh?$AA?9?$AAs?$AAg?$AA?$AA@ 100654ec     libucrtd:lcidtoname_downlevel.obj
 0002:000134f8       ??_C@_1M@IMEPLEPE@?$AAz?$AAh?$AA?9?$AAt?$AAw?$AA?$AA@ 100654f8     libucrtd:lcidtoname_downlevel.obj
 0002:00013504       ??_C@_1M@BBGHNHJP@?$AAz?$AAu?$AA?9?$AAz?$AAa?$AA?$AA@ 10065504     libucrtd:lcidtoname_downlevel.obj
 0002:00013510       ??_C@_1FE@KNPCCODH@?$AA?$CI?$AA?$CC?$AAC?$AAo?$AAr?$AAr?$AAu?$AAp?$AAt?$AAe?$AAd?$AA?5?$AAp?$AAo?$AAi?$AAn?$AAt?$AAe?$AAr?$AA?5?$AAp?$AAa?$AAs?$AAs?$AAe?$AAd?$AA?5?$AAt?$AAo?$AA?5?$AA_?$AAf@ 10065510     libucrtd:getstringtypea.obj
 0002:00013568       ??_C@_1HG@NGPLHMCI@?$AAm?$AAi?$AAn?$AAk?$AAe?$AAr?$AAn?$AAe?$AAl?$AA?2?$AAc?$AAr?$AAt?$AAs?$AA?2?$AAu?$AAc?$AAr?$AAt?$AA?2?$AAd?$AAe?$AAv?$AAd?$AAi?$AAv?$AA?2?$AAv?$AAc?$AAr?$AAu?$AAn@ 10065568     libucrtd:getstringtypea.obj
 0002:000135e0       ??_C@_0DJ@HCPJODDK@minkernel?2crts?2ucrt?2src?2appcrt?2l@ 100655e0     libucrtd:getstringtypea.obj
 0002:0001361c       ??_C@_0DH@IKPCBLP@minkernel?2crts?2ucrt?2src?2appcrt?2l@ 1006561c     libucrtd:lcmapstringa.obj
 0002:00013654       ??_C@_0DB@JFFPGLDM@minkernel?2crts?2ucrt?2src?2appcrt?2l@ 10065654     libucrtd:osfinfo.obj
 0002:00013688       ??_C@_1EM@BPODPNEJ@?$AAs?$AAt?$AAa?$AAt?$AAi?$AAc?$AA_?$AAc?$AAa?$AAs?$AAt?$AA?$DM?$AAu?$AAn?$AAs?$AAi?$AAg?$AAn?$AAe?$AAd?$AA?$DO?$AA?$CI?$AAf?$AAh?$AA?$CJ?$AA?5?$AA?$DM?$AA?5?$AA_?$AAN?$AAH?$AAA@ 10065688     libucrtd:osfinfo.obj
 0002:000136d8       ??_C@_1GC@LDGKBAFM@?$AAm?$AAi?$AAn?$AAk?$AAe?$AAr?$AAn?$AAe?$AAl?$AA?2?$AAc?$AAr?$AAt?$AAs?$AA?2?$AAu?$AAc?$AAr?$AAt?$AA?2?$AAs?$AAr?$AAc?$AA?2?$AAa?$AAp?$AAp?$AAc?$AAr?$AAt?$AA?2?$AAl@ 100656d8     libucrtd:osfinfo.obj
 0002:0001373c       ??_C@_1DM@JELNOMLN@?$AA_?$AA_?$AAa?$AAc?$AAr?$AAt?$AA_?$AAl?$AAo?$AAw?$AAi?$AAo?$AA_?$AAe?$AAn?$AAs?$AAu?$AAr?$AAe?$AA_?$AAf?$AAh?$AA_?$AAe?$AAx?$AAi?$AAs?$AAt?$AAs?$AA?$AA@ 1006573c     libucrtd:osfinfo.obj
 0002:00013778       ??_C@_1FK@MGHFJLAL@?$AAf?$AAh?$AA?5?$AA?$DO?$AA?$DN?$AA?5?$AA0?$AA?5?$AA?$CG?$AA?$CG?$AA?5?$AA?$CI?$AAu?$AAn?$AAs?$AAi?$AAg?$AAn?$AAe?$AAd?$AA?$CJ?$AAf?$AAh?$AA?5?$AA?$DM?$AA?5?$AA?$CI?$AAu?$AAn?$AAs?$AAi?$AAg@ 10065778     libucrtd:osfinfo.obj
 0002:000137d4       ??_C@_1BO@EMBOBGKE@?$AA_?$AAg?$AAe?$AAt?$AA_?$AAo?$AAs?$AAf?$AAh?$AAa?$AAn?$AAd?$AAl?$AAe?$AA?$AA@ 100657d4     libucrtd:osfinfo.obj
 0002:000137f4       ??_C@_1CI@ILOIOBLM@?$AA_?$AAo?$AAs?$AAf?$AAi?$AAl?$AAe?$AA?$CI?$AAf?$AAh?$AA?$CJ?$AA?5?$AA?$CG?$AA?5?$AAF?$AAO?$AAP?$AAE?$AAN?$AA?$AA@ 100657f4     libucrtd:osfinfo.obj
 0002:00013820       __wctype                   10065820     libucrtd:ctype.obj
 0002:00013a28       ___newctype                10065a28     libucrtd:ctype.obj
 0002:00013d28       ___newclmap                10065d28     libucrtd:ctype.obj
 0002:00013ea8       ___newcumap                10065ea8     libucrtd:ctype.obj
 0002:00014028       ??_C@_1GA@DEPMKPD@?$AAm?$AAi?$AAn?$AAk?$AAe?$AAr?$AAn?$AAe?$AAl?$AA?2?$AAc?$AAr?$AAt?$AAs?$AA?2?$AAu?$AAc?$AAr?$AAt?$AA?2?$AAs?$AAr?$AAc?$AA?2?$AAa?$AAp?$AAp?$AAc?$AAr?$AAt?$AA?2?$AAl@ 10066028     libucrtd:isatty.obj
 0002:00014088       ??_C@_1BA@LEBDGIHM@?$AA_?$AAi?$AAs?$AAa?$AAt?$AAt?$AAy?$AA?$AA@ 10066088     libucrtd:isatty.obj
 0002:00014098       ??_C@_1BK@FPAMLIDG@?$AAs?$AA?5?$AA?$CB?$AA?$DN?$AA?5?$AAn?$AAu?$AAl?$AAl?$AAp?$AAt?$AAr?$AA?$AA@ 10066098     libucrtd:mbstowcs.obj
 0002:000140b8       ??_C@_1GI@KABMHNPH@?$AAm?$AAi?$AAn?$AAk?$AAe?$AAr?$AAn?$AAe?$AAl?$AA?2?$AAc?$AAr?$AAt?$AAs?$AA?2?$AAu?$AAc?$AAr?$AAt?$AA?2?$AAs?$AAr?$AAc?$AA?2?$AAa?$AAp?$AAp?$AAc?$AAr?$AAt?$AA?2?$AAc@ 100660b8     libucrtd:mbstowcs.obj
 0002:00014120       ??_C@_1CG@JEHFHLNG@?$AA_?$AAm?$AAb?$AAs?$AAt?$AAo?$AAw?$AAc?$AAs?$AA_?$AAl?$AA_?$AAh?$AAe?$AAl?$AAp?$AAe?$AAr?$AA?$AA@ 10066120     libucrtd:mbstowcs.obj
 0002:00014148       ??_C@_1JM@MEKBACIG@?$AA?$CI?$AAp?$AAw?$AAc?$AAs?$AA?5?$AA?$DN?$AA?$DN?$AA?5?$AAn?$AAu?$AAl?$AAl?$AAp?$AAt?$AAr?$AA?5?$AA?$CG?$AA?$CG?$AA?5?$AAs?$AAi?$AAz?$AAe?$AAI?$AAn?$AAW?$AAo?$AAr?$AAd?$AAs?$AA?5@ 10066148     libucrtd:mbstowcs.obj
 0002:000141e4       ??_C@_1BM@PHENIGHD@?$AA_?$AAm?$AAb?$AAs?$AAt?$AAo?$AAw?$AAc?$AAs?$AA_?$AAs?$AA_?$AAl?$AA?$AA@ 100661e4     libucrtd:mbstowcs.obj
 0002:00014200       ??_C@_1CM@LLECFMFH@?$AAb?$AAu?$AAf?$AAf?$AAe?$AAr?$AAS?$AAi?$AAz?$AAe?$AA?5?$AA?$DM?$AA?$DN?$AA?5?$AAI?$AAN?$AAT?$AA_?$AAM?$AAA?$AAX?$AA?$AA@ 10066200     libucrtd:mbstowcs.obj
 0002:0001422c       ??_C@_1CO@JNPEPJAL@?$AAr?$AAe?$AAt?$AAs?$AAi?$AAz?$AAe?$AA?5?$AA?$DM?$AA?$DN?$AA?5?$AAs?$AAi?$AAz?$AAe?$AAI?$AAn?$AAW?$AAo?$AAr?$AAd?$AAs?$AA?$AA@ 1006622c     libucrtd:mbstowcs.obj
 0002:0001425c       ??_C@_1CA@NOKNKDIG@?$AAp?$AAw?$AAc?$AAs?$AA?5?$AA?$CB?$AA?$DN?$AA?5?$AAn?$AAu?$AAl?$AAl?$AAp?$AAt?$AAr?$AA?$AA@ 1006625c     libucrtd:wcstombs.obj
 0002:00014280       ??_C@_1GI@EEJDEALP@?$AAm?$AAi?$AAn?$AAk?$AAe?$AAr?$AAn?$AAe?$AAl?$AA?2?$AAc?$AAr?$AAt?$AAs?$AA?2?$AAu?$AAc?$AAr?$AAt?$AA?2?$AAs?$AAr?$AAc?$AA?2?$AAa?$AAp?$AAp?$AAc?$AAr?$AAt?$AA?2?$AAc@ 10066280     libucrtd:wcstombs.obj
 0002:000142e8       ??_C@_1CG@LLJCAOHF@?$AA_?$AAw?$AAc?$AAs?$AAt?$AAo?$AAm?$AAb?$AAs?$AA_?$AAl?$AA_?$AAh?$AAe?$AAl?$AAp?$AAe?$AAr?$AA?$AA@ 100662e8     libucrtd:wcstombs.obj
 0002:00014310       ??_C@_1JI@DFNKFCLG@?$AA?$CI?$AAd?$AAs?$AAt?$AA?5?$AA?$CB?$AA?$DN?$AA?5?$AAn?$AAu?$AAl?$AAl?$AAp?$AAt?$AAr?$AA?5?$AA?$CG?$AA?$CG?$AA?5?$AAs?$AAi?$AAz?$AAe?$AAI?$AAn?$AAB?$AAy?$AAt?$AAe?$AAs?$AA?5?$AA?$DO@ 10066310     libucrtd:wcstombs.obj
 0002:000143a8       ??_C@_1BM@BDMCLLDL@?$AA_?$AAw?$AAc?$AAs?$AAt?$AAo?$AAm?$AAb?$AAs?$AA_?$AAs?$AA_?$AAl?$AA?$AA@ 100663a8     libucrtd:wcstombs.obj
 0002:000143c4       ??_C@_1CM@KEOGBFLI@?$AAs?$AAi?$AAz?$AAe?$AAI?$AAn?$AAB?$AAy?$AAt?$AAe?$AAs?$AA?5?$AA?$DO?$AA?5?$AAr?$AAe?$AAt?$AAs?$AAi?$AAz?$AAe?$AA?$AA@ 100663c4     libucrtd:wcstombs.obj
 0002:000143f0       ??_C@_1GI@IMEEHIAK@?$AAm?$AAi?$AAn?$AAk?$AAe?$AAr?$AAn?$AAe?$AAl?$AA?2?$AAc?$AAr?$AAt?$AAs?$AA?2?$AAu?$AAc?$AAr?$AAt?$AA?2?$AAs?$AAr?$AAc?$AA?2?$AAa?$AAp?$AAp?$AAc?$AAr?$AAt?$AA?2?$AAc@ 100663f0     libucrtd:_fptostr.obj
 0002:00014458       ??_C@_1DG@NMGBKPMI@?$AA_?$AA_?$AAa?$AAc?$AAr?$AAt?$AA_?$AAf?$AAp?$AA_?$AAs?$AAt?$AAr?$AAf?$AAl?$AAt?$AA_?$AAt?$AAo?$AA_?$AAs?$AAt?$AAr?$AAi?$AAn?$AAg?$AA?$AA@ 10066458     libucrtd:_fptostr.obj
 0002:00014490       ??_C@_1IE@EAOKIIFP@?$AAb?$AAu?$AAf?$AAf?$AAe?$AAr?$AA_?$AAc?$AAo?$AAu?$AAn?$AAt?$AA?5?$AA?$DO?$AA?5?$AAs?$AAt?$AAa?$AAt?$AAi?$AAc?$AA_?$AAc?$AAa?$AAs?$AAt?$AA?$DM?$AAs?$AAi?$AAz?$AAe?$AA_@ 10066490     libucrtd:_fptostr.obj
 0002:00014514       ??_C@_1CA@EDEEBMBB@?$AAp?$AAf?$AAl?$AAt?$AA?5?$AA?$CB?$AA?$DN?$AA?5?$AAn?$AAu?$AAl?$AAl?$AAp?$AAt?$AAr?$AA?$AA@ 10066514     libucrtd:_fptostr.obj
 0002:00014538       ?large_power_data@?1??multiply_by_power_of_ten@__crt_strtox@@YA_NAAUbig_integer@2@I@Z@4QBIB 10066538     libucrtd:cfout.obj
 0002:00014e40       ?large_power_indices@?1??multiply_by_power_of_ten@__crt_strtox@@YA_NAAUbig_integer@2@I@Z@4QBUunpack_index@?1??12@YA_N0I@Z@B 10066e40     libucrtd:cfout.obj
 0002:00014ed8       ?small_powers_of_ten@?6??multiply_by_power_of_ten@__crt_strtox@@YA_NAAUbig_integer@2@I@Z@4QBIB 10066ed8     libucrtd:cfout.obj
 0002:00014efc       ??_C@_1DI@GICAMMFM@?$AA?$CI?$AA?$CC?$AAD?$AAi?$AAv?$AAi?$AAs?$AAi?$AAo?$AAn?$AA?5?$AAb?$AAy?$AA?5?$AAz?$AAe?$AAr?$AAo?$AA?$CC?$AA?0?$AA?5?$AAf?$AAa?$AAl?$AAs?$AAe?$AA?$CJ?$AA?$AA@ 10066efc     libucrtd:cfout.obj
 0002:00014f38       ??_C@_1GO@BFGDDONN@?$AAm?$AAi?$AAn?$AAk?$AAe?$AAr?$AAn?$AAe?$AAl?$AA?2?$AAc?$AAr?$AAt?$AAs?$AA?2?$AAu?$AAc?$AAr?$AAt?$AA?2?$AAi?$AAn?$AAc?$AA?2?$AAc?$AAo?$AAr?$AAe?$AAc?$AAr?$AAt?$AA_@ 10066f38     libucrtd:cfout.obj
 0002:00014fa8       ??_C@_1GC@DDAKNBNC@?$AAm?$AAi?$AAn?$AAk?$AAe?$AAr?$AAn?$AAe?$AAl?$AA?2?$AAc?$AAr?$AAt?$AAs?$AA?2?$AAu?$AAc?$AAr?$AAt?$AA?2?$AAs?$AAr?$AAc?$AA?2?$AAa?$AAp?$AAp?$AAc?$AAr?$AAt?$AA?2?$AAc@ 10066fa8     libucrtd:cfout.obj
 0002:0001500c       ??_C@_1BM@FAAOAKKO@?$AA_?$AA_?$AAa?$AAc?$AAr?$AAt?$AA_?$AAf?$AAl?$AAt?$AAo?$AAu?$AAt?$AA?$AA@ 1006700c     libucrtd:cfout.obj
 0002:00015028       ??_C@_1EI@OACEJKEP@?$AAs?$AAt?$AAr?$AAc?$AAp?$AAy?$AA_?$AAs?$AA?$CI?$AAr?$AAe?$AAs?$AAu?$AAl?$AAt?$AA?0?$AA?5?$AAr?$AAe?$AAs?$AAu?$AAl?$AAt?$AA_?$AAc?$AAo?$AAu?$AAn?$AAt?$AA?0?$AA?5?$AA?$CC@ 10067028     libucrtd:cfout.obj
 0002:00015070       ??_C@_01GBGANLPD@0?$AA@    10067070     libucrtd:cfout.obj
 0002:00015078       ??_C@_1FC@KIECGFMP@?$AAs?$AAt?$AAr?$AAc?$AAp?$AAy?$AA_?$AAs?$AA?$CI?$AAr?$AAe?$AAs?$AAu?$AAl?$AAt?$AA?0?$AA?5?$AAr?$AAe?$AAs?$AAu?$AAl?$AAt?$AA_?$AAc?$AAo?$AAu?$AAn?$AAt?$AA?0?$AA?5?$AA?$CC@ 10067078     libucrtd:cfout.obj
 0002:000150cc       ??_C@_05DNEBIAHO@1?$CDINF?$AA@ 100670cc     libucrtd:cfout.obj
 0002:000150d8       ??_C@_1FC@NFPJEIBD@?$AAs?$AAt?$AAr?$AAc?$AAp?$AAy?$AA_?$AAs?$AA?$CI?$AAr?$AAe?$AAs?$AAu?$AAl?$AAt?$AA?0?$AA?5?$AAr?$AAe?$AAs?$AAu?$AAl?$AAt?$AA_?$AAc?$AAo?$AAu?$AAn?$AAt?$AA?0?$AA?5?$AA?$CC@ 100670d8     libucrtd:cfout.obj
 0002:0001512c       ??_C@_06IMKFLFPG@1?$CDQNAN?$AA@ 1006712c     libucrtd:cfout.obj
 0002:00015138       ??_C@_1FC@DEJHIMLO@?$AAs?$AAt?$AAr?$AAc?$AAp?$AAy?$AA_?$AAs?$AA?$CI?$AAr?$AAe?$AAs?$AAu?$AAl?$AAt?$AA?0?$AA?5?$AAr?$AAe?$AAs?$AAu?$AAl?$AAt?$AA_?$AAc?$AAo?$AAu?$AAn?$AAt?$AA?0?$AA?5?$AA?$CC@ 10067138     libucrtd:cfout.obj
 0002:0001518c       ??_C@_06PGGFOGJG@1?$CDSNAN?$AA@ 1006718c     libucrtd:cfout.obj
 0002:00015198       ??_C@_1FC@KMLHLFPC@?$AAs?$AAt?$AAr?$AAc?$AAp?$AAy?$AA_?$AAs?$AA?$CI?$AAr?$AAe?$AAs?$AAu?$AAl?$AAt?$AA?0?$AA?5?$AAr?$AAe?$AAs?$AAu?$AAl?$AAt?$AA_?$AAc?$AAo?$AAu?$AAn?$AAt?$AA?0?$AA?5?$AA?$CC@ 10067198     libucrtd:cfout.obj
 0002:000151ec       ??_C@_05PHHOCPM@1?$CDIND?$AA@ 100671ec     libucrtd:cfout.obj
 0002:000151f4       ??_C@_1DE@KHKADFOO@?$AAm?$AAa?$AAn?$AAt?$AAi?$AAs?$AAs?$AAa?$AA_?$AAb?$AAu?$AAf?$AAf?$AAe?$AAr?$AA_?$AAc?$AAo?$AAu?$AAn?$AAt?$AA?5?$AA?$DO?$AA?5?$AA0?$AA?$AA@ 100671f4     libucrtd:cfout.obj
 0002:00015228       ??_C@_1FI@LFKLOPAC@?$AA?$CI?$AA?$CC?$AAu?$AAn?$AAe?$AAx?$AAp?$AAe?$AAc?$AAt?$AAe?$AAd?$AA?5?$AAi?$AAn?$AAp?$AAu?$AAt?$AA?5?$AAv?$AAa?$AAl?$AAu?$AAe?$AA?$DL?$AA?5?$AAl?$AAo?$AAg?$AA1?$AA0?$AA?5@ 10067228     libucrtd:cfout.obj
 0002:00015280       ??_C@_1FG@MLHBDPBG@?$AAq?$AAu?$AAo?$AAt?$AAi?$AAe?$AAn?$AAt?$AA?5?$AA?$DM?$AA?5?$AAd?$AAi?$AAg?$AAi?$AAt?$AAs?$AA_?$AAp?$AAe?$AAr?$AA_?$AAi?$AAt?$AAe?$AAr?$AAa?$AAt?$AAi?$AAo?$AAn?$AA_@ 10067280     libucrtd:cfout.obj
 0002:000152d8       ??_C@_1GC@DFIGBGJI@?$AAm?$AAi?$AAn?$AAk?$AAe?$AAr?$AAn?$AAe?$AAl?$AA?2?$AAc?$AAr?$AAt?$AAs?$AA?2?$AAu?$AAc?$AAr?$AAt?$AA?2?$AAs?$AAr?$AAc?$AA?2?$AAa?$AAp?$AAp?$AAc?$AAr?$AAt?$AA?2?$AAs@ 100672d8     libucrtd:_flsbuf.obj
 0002:00015340       ??_C@_1HO@MLMGPAFH@?$AA?$CI?$AA?$CC?$AAi?$AAn?$AAc?$AAo?$AAn?$AAs?$AAi?$AAs?$AAt?$AAe?$AAn?$AAt?$AA?5?$AAI?$AAO?$AAB?$AA?5?$AAf?$AAi?$AAe?$AAl?$AAd?$AAs?$AA?$CC?$AA?0?$AA?5?$AAs?$AAt?$AAr?$AAe@ 10067340     libucrtd:_flsbuf.obj
 0002:000153c0       ??_C@_1GA@DKNOMDCL@?$AAm?$AAi?$AAn?$AAk?$AAe?$AAr?$AAn?$AAe?$AAl?$AA?2?$AAc?$AAr?$AAt?$AAs?$AA?2?$AAu?$AAc?$AAr?$AAt?$AA?2?$AAs?$AAr?$AAc?$AA?2?$AAa?$AAp?$AAp?$AAc?$AAr?$AAt?$AA?2?$AAs@ 100673c0     libucrtd:fclose.obj
 0002:00015420       ??_C@_1O@EGMJNCOI@?$AAf?$AAc?$AAl?$AAo?$AAs?$AAe?$AA?$AA@ 10067420     libucrtd:fclose.obj
 0002:00015430       ??_C@_1BO@JINCABEC@?$AA_?$AAf?$AAc?$AAl?$AAo?$AAs?$AAe?$AA_?$AAn?$AAo?$AAl?$AAo?$AAc?$AAk?$AA?$AA@ 10067430     libucrtd:fclose.obj
 0002:00015450       ??_C@_1FO@KIIHJNFN@?$AAm?$AAi?$AAn?$AAk?$AAe?$AAr?$AAn?$AAe?$AAl?$AA?2?$AAc?$AAr?$AAt?$AAs?$AA?2?$AAu?$AAc?$AAr?$AAt?$AA?2?$AAs?$AAr?$AAc?$AA?2?$AAa?$AAp?$AAp?$AAc?$AAr?$AAt?$AA?2?$AAl@ 10067450     libucrtd:lseek.obj
 0002:000154b0       ??_C@_1BK@JOMBNFIM@?$AAc?$AAo?$AAm?$AAm?$AAo?$AAn?$AA_?$AAl?$AAs?$AAe?$AAe?$AAk?$AA?$AA@ 100674b0     libucrtd:lseek.obj
 0002:000154cc       ??_C@_1DM@LMLOLGJ@?$AA?$CI?$AA?$CC?$AAI?$AAn?$AAv?$AAa?$AAl?$AAi?$AAd?$AA?5?$AAf?$AAi?$AAl?$AAe?$AA?5?$AAd?$AAe?$AAs?$AAc?$AAr?$AAi?$AAp?$AAt?$AAo?$AAr?$AA?$CC?$AA?0?$AA0?$AA?$CJ?$AA?$AA@ 100674cc     libucrtd:lseek.obj
 0002:00015518       ??_C@_1GC@DLDMJFMI@?$AAm?$AAi?$AAn?$AAk?$AAe?$AAr?$AAn?$AAe?$AAl?$AA?2?$AAc?$AAr?$AAt?$AAs?$AA?2?$AAu?$AAc?$AAr?$AAt?$AA?2?$AAs?$AAr?$AAc?$AA?2?$AAa?$AAp?$AAp?$AAc?$AAr?$AAt?$AA?2?$AAs@ 10067518     libucrtd:_getbuf.obj
 0002:0001557c       ??_C@_0DB@LKJPMJPL@minkernel?2crts?2ucrt?2src?2appcrt?2s@ 1006757c     libucrtd:_getbuf.obj
 0002:000155b0       ??_C@_1FO@IPDGALOE@?$AAm?$AAi?$AAn?$AAk?$AAe?$AAr?$AAn?$AAe?$AAl?$AA?2?$AAc?$AAr?$AAt?$AAs?$AA?2?$AAu?$AAc?$AAr?$AAt?$AA?2?$AAs?$AAr?$AAc?$AA?2?$AAa?$AAp?$AAp?$AAc?$AAr?$AAt?$AA?2?$AAl@ 100675b0     libucrtd:close.obj
 0002:00015610       ??_C@_1O@EDEJGJBM@?$AA_?$AAc?$AAl?$AAo?$AAs?$AAe?$AA?$AA@ 10067610     libucrtd:close.obj
 0002:00015620       ??_C@_1BA@BALFACEM@?$AAC?$AAO?$AAN?$AAO?$AAU?$AAT?$AA$?$AA?$AA@ 10067620     libucrtd:initcon.obj
 0002:00015730       ___acrt_log10_table_t      10067730     libucrtd:log10_tables.obj
 0002:00015b40       ___acrt_log10_table_cb     10067b40     libucrtd:log10_tables.obj
 0002:00015f54       ??_7type_info@@6B@         10067f54     LIBCMTD:std_type_info_static.obj
 0002:00015f58       __pDestructExceptionObject 10067f58     libvcruntimed:frame.obj
 0002:00015f60       ??_7exception@std@@6B@     10067f60     libvcruntimed:frame.obj
 0002:00015f68       ??_C@_0BC@EOODALEL@Unknown?5exception?$AA@ 10067f68     libvcruntimed:frame.obj
 0002:00015f80       ??_7bad_exception@std@@6B@ 10067f80     libvcruntimed:frame.obj
 0002:00015f88       ??_C@_0O@DPKOEFFH@bad?5exception?$AA@ 10067f88     libvcruntimed:frame.obj
 0002:00015f98       ??_C@_1FK@OACNEHHA@?$AAt?$AAo?$AA?9?$AA?$DO?$AA_?$AAW?$AAh?$AAa?$AAt?$AA?5?$AA?$DN?$AA?$DN?$AA?5?$AAn?$AAu?$AAl?$AAl?$AAp?$AAt?$AAr?$AA?5?$AA?$CG?$AA?$CG?$AA?5?$AAt?$AAo?$AA?9?$AA?$DO?$AA_?$AAD?$AAo?$AAF@ 10067f98     libvcruntimed:std_exception.obj
 0002:00015ff8       ??_C@_1GK@GJEBHBCE@?$AAf?$AA?3?$AA?2?$AAd?$AAd?$AA?2?$AAv?$AAc?$AAt?$AAo?$AAo?$AAl?$AAs?$AA?2?$AAc?$AAr?$AAt?$AA?2?$AAv?$AAc?$AAr?$AAu?$AAn?$AAt?$AAi?$AAm?$AAe?$AA?2?$AAs?$AAr?$AAc?$AA?2@ 10067ff8     libvcruntimed:std_exception.obj
 0002:000160e8       __load_config_used         100680e8     LIBCMTD:loadcfg.obj
 0002:00016144       ??_R4type_info@@6B@        10068144     LIBCMTD:std_type_info_static.obj
 0002:00016158       ??_R3type_info@@8          10068158     LIBCMTD:std_type_info_static.obj
 0002:00016168       ??_R2type_info@@8          10068168     LIBCMTD:std_type_info_static.obj
 0002:00016170       ??_R1A@?0A@EA@type_info@@8 10068170     LIBCMTD:std_type_info_static.obj
 0002:0001618c       ??_R4exception@std@@6B@    1006818c     libvcruntimed:frame.obj
 0002:000161a0       ??_R3exception@std@@8      100681a0     libvcruntimed:frame.obj
 0002:000161b0       ??_R2exception@std@@8      100681b0     libvcruntimed:frame.obj
 0002:000161b8       ??_R1A@?0A@EA@exception@std@@8 100681b8     libvcruntimed:frame.obj
 0002:000161d4       ??_R4bad_exception@std@@6B@ 100681d4     libvcruntimed:frame.obj
 0002:000161e8       ??_R3bad_exception@std@@8  100681e8     libvcruntimed:frame.obj
 0002:000161f8       ??_R2bad_exception@std@@8  100681f8     libvcruntimed:frame.obj
 0002:00016204       ??_R1A@?0A@EA@bad_exception@std@@8 10068204     libvcruntimed:frame.obj
 0002:00016220       ___safe_se_handler_table   10068220     <linker-defined>
 0002:00016240       ?_TraceLoggingMetadata@?1??_TlgWrite@__vcrt_trace_logging_provider@@YAJPBU_TlgProvider_t@2@PBXPBU_GUID@@2IPAU_EVENT_DATA_DESCRIPTOR@@@Z@4U_TraceLoggingMetadata_t@2@B 10068240     libvcruntimed:telemetry.obj
 0002:000162f3       ?_TraceLoggingMetadataEnd@?1??_TlgWrite@__vcrt_trace_logging_provider@@YAJPBU_TlgProvider_t@2@PBXPBU_GUID@@2IPAU_EVENT_DATA_DESCRIPTOR@@@Z@4EB 100682f3     libvcruntimed:telemetry.obj
 0002:00016644       ___rtc_iaa                 10068644     LIBCMTD:_initsect_.obj
 0002:00016648       ___rtc_izz                 10068648     LIBCMTD:_initsect_.obj
 0002:0001664c       ___rtc_taa                 1006864c     LIBCMTD:_initsect_.obj
 0002:00016650       ___rtc_tzz                 10068650     LIBCMTD:_initsect_.obj
 0002:00016d54       __TI2?AVbad_exception@std@@ 10068d54     libvcruntimed:frame.obj
 0002:00016d64       __CTA2?AVbad_exception@std@@ 10068d64     libvcruntimed:frame.obj
 0002:00016d70       __CT??_R0?AVbad_exception@std@@@8??0bad_exception@std@@QAE@ABV01@@Z12 10068d70     libvcruntimed:frame.obj
 0002:00016d8c       __CT??_R0?AVexception@std@@@8??0exception@std@@QAE@ABV01@@Z12 10068d8c     libvcruntimed:frame.obj
 0002:00016e1c       __IMPORT_DESCRIPTOR_OPENGL32 10068e1c     OpenGL32:OPENGL32.dll
 0002:00016e30       __IMPORT_DESCRIPTOR_KERNEL32 10068e30     kernel32:KERNEL32.dll
 0002:00016e44       __IMPORT_DESCRIPTOR_ADVAPI32 10068e44     advapi32:ADVAPI32.dll
 0002:00016e58       __NULL_IMPORT_DESCRIPTOR   10068e58     OpenGL32:OPENGL32.dll
 0003:00004000       ___security_cookie_complement 1006e000     LIBCMTD:gs_cookie.obj
 0003:00004004       ___security_cookie         1006e004     LIBCMTD:gs_cookie.obj
 0003:00004008       __fltused                  1006e008     LIBCMTD:fltused.obj
 0003:0000400c       ___isa_enabled             1006e00c     LIBCMTD:_cpu_disp_.obj
 0003:00004010       ___scrt_native_dllmain_reason 1006e010     LIBCMTD:utility.obj
 0003:00004070       __NLG_Destination          1006e070     libvcruntimed:_exsup_.obj
 0003:00004084       __crtDbgFlag               1006e084     libucrtd:debug_heap.obj
 0003:00004088       __crtBreakAlloc            1006e088     libucrtd:debug_heap.obj
 0003:00004090       ___abort_behavior          1006e090     libucrtd:abort.obj
 0003:000040a0       __iob                      1006e0a0     libucrtd:_file.obj
 0003:00004458       ___acrt_initial_multibyte_data 1006e458     libucrtd:mbctype.obj
 0003:00004678       ___badioinfo               1006e678     libucrtd:ioinit.obj
 0003:000046a8       ___acrt_initial_locale_data 1006e6a8     libucrtd:nlsdata.obj
 0003:00004760       ___acrt_initial_locale_pointers 1006e760     libucrtd:nlsdata.obj
 0003:00004768       ___acrt_wide_c_locale_string 1006e768     libucrtd:nlsdata.obj
 0003:0000476c       __pfnAllocHook             1006e76c     libucrtd:debug_heap_hook.obj
 0003:00004774       __CrtDbgMode               1006e774     libucrtd:dbgrptt.obj
 0003:00004780       __CrtDbgFile               1006e780     libucrtd:dbgrptt.obj
 0003:0000478c       __crtAssertBusy            1006e78c     libucrtd:dbgrptt.obj
 0003:00004790       ___globallocalestatus      1006e790     libucrtd:glstatus.obj
 0003:00004794       ___acrt_lconv_static_decimal 1006e794     libucrtd:localeconv.obj
 0003:00004798       ___acrt_lconv_static_W_decimal 1006e798     libucrtd:localeconv.obj
 0003:000047a0       ___acrt_lconv_c            1006e7a0     libucrtd:localeconv.obj
 0003:000047f0       __pwctype                  1006e7f0     libucrtd:ctype.obj
 0003:00004800       ___dcrt_lowio_console_output_handle 1006e800     libucrtd:initcon.obj
 0003:00004810       ??_R0?AVtype_info@@@8      1006e810     LIBCMTD:std_type_info_static.obj
 0003:00004828       ??_R0?AVbad_exception@std@@@8 1006e828     libvcruntimed:frame.obj
 0003:00004848       ??_R0?AVexception@std@@@8  1006e848     libvcruntimed:frame.obj
 0003:00004bac       ___isa_available           1006ebac     LIBCMTD:_cpu_disp_.obj
 0003:00004bb0       ___favor                   1006ebb0     LIBCMTD:_cpu_disp_.obj
 0003:00004bb4       ___scrt_current_native_startup_state 1006ebb4     LIBCMTD:utility.obj
 0003:00004bb8       ___scrt_native_startup_lock 1006ebb8     LIBCMTD:utility.obj
 0003:00004bd8       ?__type_info_root_node@@3U__type_info_node@@A 1006ebd8     LIBCMTD:tncleanup.obj
 0003:00004be0       ?_OptionsStorage@?1??__local_stdio_printf_options@@9@4_KA 1006ebe0     LIBCMTD:default_local_stdio_options.obj
 0003:00004be8       ?_OptionsStorage@?1??__local_stdio_scanf_options@@9@4_KA 1006ebe8     LIBCMTD:default_local_stdio_options.obj
 0003:00004bf0       ___scrt_debugger_hook_flag 1006ebf0     LIBCMTD:utility_desktop.obj
 0003:00004c6c       ___pPurecall               1006ec6c     libvcruntimed:purevirt_data.obj
 0003:00004c70       ?pArgList@UnDecorator@@0PAVReplicator@@A 1006ec70     libvcruntimed:undname.obj
 0003:00004c74       ?pZNameList@UnDecorator@@0PAVReplicator@@A 1006ec74     libvcruntimed:undname.obj
 0003:00004c78       ?pTemplateArgList@UnDecorator@@0PAVReplicator@@A 1006ec78     libvcruntimed:undname.obj
 0003:00004c7c       ?gName@UnDecorator@@0PBDB  1006ec7c     libvcruntimed:undname.obj
 0003:00004c80       ?name@UnDecorator@@0PBDB   1006ec80     libvcruntimed:undname.obj
 0003:00004c84       ?outputString@UnDecorator@@0PADA 1006ec84     libvcruntimed:undname.obj
 0003:00004c88       ?maxStringLength@UnDecorator@@0HA 1006ec88     libvcruntimed:undname.obj
 0003:00004c8c       ?disableFlags@UnDecorator@@0KA 1006ec8c     libvcruntimed:undname.obj
 0003:00004c90       ?fExplicitTemplateParams@UnDecorator@@0_NA 1006ec90     libvcruntimed:undname.obj
 0003:00004c91       ?fGetTemplateArgumentList@UnDecorator@@0_NA 1006ec91     libvcruntimed:undname.obj
 0003:00004c94       ?m_pGetParameter@UnDecorator@@0P6APADJ@ZA 1006ec94     libvcruntimed:undname.obj
 0003:00004cb8       __environ_table            1006ecb8     libucrtd:environment_initialization.obj
 0003:00004cbc       __wenviron_table           1006ecbc     libucrtd:environment_initialization.obj
 0003:00004cc0       ___dcrt_initial_wide_environment 1006ecc0     libucrtd:environment_initialization.obj
 0003:00004cc4       ___dcrt_initial_narrow_environment 1006ecc4     libucrtd:environment_initialization.obj
 0003:00004cc8       ___acrt_atexit_table       1006ecc8     libucrtd:onexit.obj
 0003:00004cd4       ___acrt_at_quick_exit_table 1006ecd4     libucrtd:onexit.obj
 0003:00004cfc       __pfnDumpClient            1006ecfc     libucrtd:debug_heap.obj
 0003:0000533c       __nstream                  1006f33c     libucrtd:_file.obj
 0003:00005340       ___piob                    1006f340     libucrtd:_file.obj
 0003:00005344       __cflush                   1006f344     libucrtd:_file.obj
 0003:00005570       __mbctype                  1006f570     libucrtd:mbctype.obj
 0003:00005574       __mbcasemap                1006f574     libucrtd:mbctype.obj
 0003:00005578       ___acrt_current_multibyte_data 1006f578     libucrtd:mbctype.obj
 0003:00005584       ___acrt_heap               1006f584     libucrtd:heap_handle.obj
 0003:00005588       ___pioinfo                 1006f588     libucrtd:ioinit.obj
 0003:00005788       __nhandle                  1006f788     libucrtd:ioinit.obj
 0003:0000578c       ___argv                    1006f78c     libucrtd:argv_data.obj
 0003:00005790       ___wargv                   1006f790     libucrtd:argv_data.obj
 0003:00005794       __acmdln                   1006f794     libucrtd:argv_data.obj
 0003:00005798       __wcmdln                   1006f798     libucrtd:argv_data.obj
 0003:000057a0       ___acrt_current_locale_data 1006f7a0     libucrtd:nlsdata.obj
 0003:000057a4       ___acrt_stdout_buffer      1006f7a4     libucrtd:_sftbuf.obj
 0003:000057a8       ___acrt_stderr_buffer      1006f7a8     libucrtd:_sftbuf.obj
 0003:000057b0       ___acrt_locale_changed_data 1006f7b0     libucrtd:wsetlocale.obj
 0003:000057b4       __pfnReportHook            1006f7b4     libucrtd:dbgrptt.obj
 0003:000057b8       __pReportHookList          1006f7b8     libucrtd:dbgrptt.obj
 0003:000057bc       __pReportHookListW         1006f7bc     libucrtd:dbgrptt.obj
 0003:000057c4       ___fastflag                1006f7c4     libucrtd:fp_flags.obj
 0003:000057c8       ___acrt_lconv_static_null  1006f7c8     libucrtd:localeconv.obj
 0003:000057cc       ___acrt_lconv_static_W_null 1006f7cc     libucrtd:localeconv.obj
 0003:000057d0       ?g_OutOfMemoryExceptionCallback@@3P6GPAXXZA 1006f7d0     libvcruntimed:frame.obj
 0003:000057d4       ___scrt_ucrt_dll_is_in_use 1006f7d4     <common>
 0003:000057d8       ___dyn_tls_init_callback   1006f7d8     <common>
 0003:000057dc       ___use_sse2_mathfcns       1006f7dc     <common>
 0003:000057e0       __pmatherr                 1006f7e0     <common>

 entry point at        0001:0001fb00

 Static symbols

 0000:fff8c000       .debug$S                   10000000     OpenGL32:OPENGL32.dll
 0000:fff8c000       .debug$S                   10000000     app.exp
 0000:fff8c000       .debug$S                   10000000     OpenGL32:OPENGL32.dll
 0000:fff8c000       .debug$S                   10000000     OpenGL32:OPENGL32.dll
 0000:fff8c000       .debug$S                   10000000     OpenGL32:OPENGL32.dll
 0000:fff8c000       .debug$S                   10000000     OpenGL32:OPENGL32.dll
 0000:fff8c000       .debug$S                   10000000     OpenGL32:OPENGL32.dll
 0000:fff8c000       .debug$S                   10000000     OpenGL32:OPENGL32.dll
 0000:fff8c000       .debug$S                   10000000     OpenGL32:OPENGL32.dll
 0000:fff8c000       .debug$S                   10000000     OpenGL32:OPENGL32.dll
 0000:fff8c000       .debug$S                   10000000     kernel32:KERNEL32.dll
 0000:fff8c000       .debug$S                   10000000     kernel32:KERNEL32.dll
 0000:fff8c000       .debug$S                   10000000     kernel32:KERNEL32.dll
 0000:fff8c000       .debug$S                   10000000     kernel32:KERNEL32.dll
 0000:fff8c000       .debug$S                   10000000     kernel32:KERNEL32.dll
 0000:fff8c000       .debug$S                   10000000     kernel32:KERNEL32.dll
 0000:fff8c000       .debug$S                   10000000     advapi32:ADVAPI32.dll
 0000:fff8c000       .debug$S                   10000000     kernel32:KERNEL32.dll
 0000:fff8c000       .debug$S                   10000000     kernel32:KERNEL32.dll
 0000:fff8c000       .debug$S                   10000000     kernel32:KERNEL32.dll
 0000:fff8c000       .debug$S                   10000000     kernel32:KERNEL32.dll
 0000:fff8c000       .debug$S                   10000000     kernel32:KERNEL32.dll
 0000:fff8c000       .debug$S                   10000000     kernel32:KERNEL32.dll
 0000:fff8c000       .debug$S                   10000000     kernel32:KERNEL32.dll
 0000:fff8c000       .debug$S                   10000000     kernel32:KERNEL32.dll
 0000:fff8c000       .debug$S                   10000000     kernel32:KERNEL32.dll
 0000:fff8c000       .debug$S                   10000000     kernel32:KERNEL32.dll
 0000:fff8c000       .debug$S                   10000000     kernel32:KERNEL32.dll
 0000:fff8c000       .debug$S                   10000000     kernel32:KERNEL32.dll
 0000:fff8c000       .debug$S                   10000000     kernel32:KERNEL32.dll
 0000:fff8c000       .debug$S                   10000000     kernel32:KERNEL32.dll
 0000:fff8c000       .debug$S                   10000000     kernel32:KERNEL32.dll
 0000:fff8c000       .debug$S                   10000000     kernel32:KERNEL32.dll
 0000:fff8c000       .debug$S                   10000000     kernel32:KERNEL32.dll
 0000:fff8c000       .debug$S                   10000000     kernel32:KERNEL32.dll
 0000:fff8c000       .debug$S                   10000000     kernel32:KERNEL32.dll
 0000:fff8c000       .debug$S                   10000000     kernel32:KERNEL32.dll
 0000:fff8c000       .debug$S                   10000000     kernel32:KERNEL32.dll
 0000:fff8c000       .debug$S                   10000000     kernel32:KERNEL32.dll
 0000:fff8c000       .debug$S                   10000000     kernel32:KERNEL32.dll
 0000:fff8c000       .debug$S                   10000000     kernel32:KERNEL32.dll
 0000:fff8c000       .debug$S                   10000000     kernel32:KERNEL32.dll
 0000:fff8c000       .debug$S                   10000000     kernel32:KERNEL32.dll
 0000:fff8c000       .debug$S                   10000000     kernel32:KERNEL32.dll
 0000:fff8c000       .debug$S                   10000000     kernel32:KERNEL32.dll
 0000:fff8c000       .debug$S                   10000000     kernel32:KERNEL32.dll
 0000:fff8c000       .debug$S                   10000000     kernel32:KERNEL32.dll
 0000:fff8c000       .debug$S                   10000000     kernel32:KERNEL32.dll
 0000:fff8c000       .debug$S                   10000000     kernel32:KERNEL32.dll
 0000:fff8c000       .debug$S                   10000000     kernel32:KERNEL32.dll
 0000:fff8c000       .debug$S                   10000000     kernel32:KERNEL32.dll
 0000:fff8c000       .debug$S                   10000000     kernel32:KERNEL32.dll
 0000:fff8c000       .debug$S                   10000000     kernel32:KERNEL32.dll
 0000:fff8c000       .debug$S                   10000000     kernel32:KERNEL32.dll
 0000:fff8c000       .debug$S                   10000000     kernel32:KERNEL32.dll
 0000:fff8c000       .debug$S                   10000000     kernel32:KERNEL32.dll
 0000:fff8c000       .debug$S                   10000000     kernel32:KERNEL32.dll
 0000:fff8c000       .debug$S                   10000000     kernel32:KERNEL32.dll
 0000:fff8c000       .debug$S                   10000000     kernel32:KERNEL32.dll
 0000:fff8c000       .debug$S                   10000000     kernel32:KERNEL32.dll
 0000:fff8c000       .debug$S                   10000000     kernel32:KERNEL32.dll
 0000:fff8c000       .debug$S                   10000000     kernel32:KERNEL32.dll
 0000:fff8c000       .debug$S                   10000000     kernel32:KERNEL32.dll
 0000:fff8c000       .debug$S                   10000000     kernel32:KERNEL32.dll
 0000:fff8c000       .debug$S                   10000000     kernel32:KERNEL32.dll
 0000:fff8c000       .debug$S                   10000000     kernel32:KERNEL32.dll
 0000:fff8c000       .debug$S                   10000000     kernel32:KERNEL32.dll
 0000:fff8c000       .debug$S                   10000000     kernel32:KERNEL32.dll
 0000:fff8c000       .debug$S                   10000000     kernel32:KERNEL32.dll
 0000:fff8c000       .debug$S                   10000000     kernel32:KERNEL32.dll
 0000:fff8c000       .debug$S                   10000000     kernel32:KERNEL32.dll
 0000:fff8c000       .debug$S                   10000000     kernel32:KERNEL32.dll
 0000:fff8c000       .debug$S                   10000000     kernel32:KERNEL32.dll
 0000:fff8c000       .debug$S                   10000000     kernel32:KERNEL32.dll
 0000:fff8c000       .debug$S                   10000000     kernel32:KERNEL32.dll
 0000:fff8c000       .debug$S                   10000000     kernel32:KERNEL32.dll
 0000:fff8c000       .debug$S                   10000000     kernel32:KERNEL32.dll
 0000:fff8c000       .debug$S                   10000000     kernel32:KERNEL32.dll
 0000:fff8c000       .debug$S                   10000000     kernel32:KERNEL32.dll
 0000:fff8c000       .debug$S                   10000000     kernel32:KERNEL32.dll
 0000:fff8c000       .debug$S                   10000000     kernel32:KERNEL32.dll
 0000:fff8c000       .debug$S                   10000000     kernel32:KERNEL32.dll
 0000:fff8c000       .debug$S                   10000000     kernel32:KERNEL32.dll
 0000:fff8c000       .debug$S                   10000000     kernel32:KERNEL32.dll
 0000:fff8c000       .debug$S                   10000000     kernel32:KERNEL32.dll
 0000:fff8c000       .debug$S                   10000000     kernel32:KERNEL32.dll
 0000:fff8c000       .debug$S                   10000000     kernel32:KERNEL32.dll
 0000:fff8c000       .debug$S                   10000000     kernel32:KERNEL32.dll
 0000:fff8c000       .debug$S                   10000000     kernel32:KERNEL32.dll
 0000:fff8c000       .debug$S                   10000000     kernel32:KERNEL32.dll
 0000:fff8c000       .debug$S                   10000000     kernel32:KERNEL32.dll
 0000:fff8c000       .debug$S                   10000000     kernel32:KERNEL32.dll
 0000:fff8c000       .debug$S                   10000000     kernel32:KERNEL32.dll
 0001:000004e0       ?CanOverlap@@YAHPAUworld_entity@@0@Z 100014e0 f   app.obj
 0001:00000530       ?EntityOverlap@@YAHPAUworld_entity@@0@Z 10001530 f   app.obj
 0001:00000810       ?HandleOverlap@@YAXPAUapp_state@@PAUworld@@PAUmemory_arena@@PAUworld_entity@@3@Z 10001810 f   app.obj
 0001:00000880       ?AddCollisionRule@@YAXPAUapp_state@@PAUmemory_arena@@IIH@Z 10001880 f   app.obj
 0001:00000990       ?CanCollide@@YAHPAUapp_state@@PAUworld_entity@@1@Z 10001990 f   app.obj
 0001:00000a30       ?CompareStrings@@YAHPADI0I@Z 10001a30 f   app.obj
 0001:00000ae0       ?TextureCacheCreate@@YAPAUtexture_cache@@PAUmemory_arena@@II@Z 10001ae0 f   app.obj
 0001:00000b50       ?TextureCacheGet@@YA?AUloaded_texture@@PAUtexture_cache@@PAD@Z 10001b50 f   app.obj
 0001:00000cd0       ?AddOpenglTextureToQueue@@YAXPAUopengl_texture_queue@@PAUassets@@Uasset_id@@PAXIIHI@Z 10001cd0 f   app.obj
 0001:00000dc0       ?LoadTexture@@YAXPAUopengl_texture_queue@@PAUassets@@Uasset_id@@PAUzas_asset_info@@@Z 10001dc0 f   app.obj
 0001:00000ea0       ?LoadAudio@@YAXPAUassets@@Uasset_id@@PAUzas_asset_info@@@Z 10001ea0 f   app.obj
 0001:00000f80       ?LoadAssetWork@@YAXPAX@Z   10001f80 f   app.obj
 0001:00001020       ?PrefetchAsset@@YAXPAUassets@@PAUapp_state@@Uasset_id@@@Z 10002020 f   app.obj
 0001:000010d0       ?LoadAsset@@YAXPAUassets@@PAUapp_state@@Uasset_id@@@Z 100020d0 f   app.obj
 0001:00001150       ?LoadOpenglTextureFromEntry@@YAXPAUopen_gl@@PAUopengl_texture_queue_entry@@@Z 10002150 f   app.obj
 0001:000012a0       ?LoadOpenglTexturesFromQueue@@YAXPAUopen_gl@@PAUopengl_texture_queue@@@Z 100022a0 f   app.obj
 0001:00001310       ?InitializeAssets@@YAXPAUassets@@PAUapp_state@@PAUmemory_arena@@@Z 10002310 f   app.obj
 0001:000054d0       ?stbtt__buf_get8@@YAEPAUstbtt__buf@@@Z 100064d0 f   app.obj
 0001:00005510       ?stbtt__buf_peek8@@YAEPAUstbtt__buf@@@Z 10006510 f   app.obj
 0001:00005540       ?stbtt__buf_seek@@YAXPAUstbtt__buf@@H@Z 10006540 f   app.obj
 0001:000055a0       ?stbtt__buf_skip@@YAXPAUstbtt__buf@@H@Z 100065a0 f   app.obj
 0001:000055c0       ?stbtt__buf_get@@YAIPAUstbtt__buf@@H@Z 100065c0 f   app.obj
 0001:00005630       ?stbtt__new_buf@@YA?AUstbtt__buf@@PBXI@Z 10006630 f   app.obj
 0001:00005690       ?stbtt__buf_range@@YA?AUstbtt__buf@@PBU1@HH@Z 10006690 f   app.obj
 0001:00005740       ?stbtt__cff_get_index@@YA?AUstbtt__buf@@PAU1@@Z 10006740 f   app.obj
 0001:00005820       ?stbtt__cff_int@@YAIPAUstbtt__buf@@@Z 10006820 f   app.obj
 0001:00005920       ?stbtt__cff_skip_operand@@YAXPAUstbtt__buf@@@Z 10006920 f   app.obj
 0001:000059c0       ?stbtt__dict_get@@YA?AUstbtt__buf@@PAU1@H@Z 100069c0 f   app.obj
 0001:00005ae0       ?stbtt__dict_get_ints@@YAXPAUstbtt__buf@@HHPAI@Z 10006ae0 f   app.obj
 0001:00005b60       ?stbtt__cff_index_count@@YAHPAUstbtt__buf@@@Z 10006b60 f   app.obj
 0001:00005b90       ?stbtt__cff_index_get@@YA?AUstbtt__buf@@U1@H@Z 10006b90 f   app.obj
 0001:00005ca0       ?ttUSHORT@@YAGPAE@Z        10006ca0 f   app.obj
 0001:00005cd0       ?ttSHORT@@YAFPAE@Z         10006cd0 f   app.obj
 0001:00005d00       ?ttULONG@@YAIPAE@Z         10006d00 f   app.obj
 0001:00005d50       ?ttLONG@@YAHPAE@Z          10006d50 f   app.obj
 0001:00005da0       ?stbtt__isfont@@YAHPAE@Z   10006da0 f   app.obj
 0001:00006000       ?stbtt__find_table@@YAIPAEIPBD@Z 10007000 f   app.obj
 0001:00006110       ?stbtt_GetFontOffsetForIndex_internal@@YAHPAEH@Z 10007110 f   app.obj
 0001:00006240       ?stbtt_GetNumberOfFonts_internal@@YAHPAE@Z 10007240 f   app.obj
 0001:00006330       ?stbtt__get_subrs@@YA?AUstbtt__buf@@U1@0@Z 10007330 f   app.obj
 0001:000064c0       ?stbtt__get_svg@@YAHPAUstbtt_fontinfo@@@Z 100074c0 f   app.obj
 0001:00006530       ?stbtt_InitFont_internal@@YAHPAUstbtt_fontinfo@@PAEH@Z 10007530 f   app.obj
 0001:00006ca0       ?stbtt_setvertex@@YAXPAUstbtt_vertex@@EHHHH@Z 10007ca0 f   app.obj
 0001:00006ce0       ?stbtt__GetGlyfOffset@@YAHPBUstbtt_fontinfo@@H@Z 10007ce0 f   app.obj
 0001:00006e00       ?stbtt__GetGlyphInfoT2@@YAHPBUstbtt_fontinfo@@HPAH111@Z 10007e00 f   app.obj
 0001:00006f40       ?stbtt__close_shape@@YAHPAUstbtt_vertex@@HHHHHHHHH@Z 10007f40 f   app.obj
 0001:00007030       ?stbtt__GetGlyphShapeTT@@YAHPBUstbtt_fontinfo@@HPAPAUstbtt_vertex@@@Z 10008030 f   app.obj
 0001:00007e10       ?stbtt__track_vertex@@YAXPAUstbtt__csctx@@HH@Z 10008e10 f   app.obj
 0001:00007ea0       ?stbtt__csctx_v@@YAXPAUstbtt__csctx@@EHHHHHH@Z 10008ea0 f   app.obj
 0001:00007f60       ?stbtt__csctx_close_shape@@YAXPAUstbtt__csctx@@@Z 10008f60 f   app.obj
 0001:00007fc0       ?stbtt__csctx_rmove_to@@YAXPAUstbtt__csctx@@MM@Z 10008fc0 f   app.obj
 0001:00008060       ?stbtt__csctx_rline_to@@YAXPAUstbtt__csctx@@MM@Z 10009060 f   app.obj
 0001:000080c0       ?stbtt__csctx_rccurve_to@@YAXPAUstbtt__csctx@@MMMMMM@Z 100090c0 f   app.obj
 0001:00008170       ?stbtt__get_subr@@YA?AUstbtt__buf@@U1@H@Z 10009170 f   app.obj
 0001:00008250       ?stbtt__cid_get_glyph_subrs@@YA?AUstbtt__buf@@PBUstbtt_fontinfo@@H@Z 10009250 f   app.obj
 0001:00008420       ?stbtt__run_charstring@@YAHPBUstbtt_fontinfo@@HPAUstbtt__csctx@@@Z 10009420 f   app.obj
 0001:000099e0       $LN104                     1000a9e0     app.obj
 0001:00009a30       $LN103                     1000aa30     app.obj
 0001:00009a50       $LN105                     1000aa50     app.obj
 0001:00009a60       ?stbtt__GetGlyphShapeT2@@YAHPBUstbtt_fontinfo@@HPAPAUstbtt_vertex@@@Z 1000aa60 f   app.obj
 0001:00009bc0       ?stbtt__GetGlyphKernInfoAdvance@@YAHPBUstbtt_fontinfo@@HH@Z 1000abc0 f   app.obj
 0001:00009cc0       ?stbtt__GetCoverageIndex@@YAHPAEH@Z 1000acc0 f   app.obj
 0001:00009e80       ?stbtt__GetGlyphClass@@YAHPAEH@Z 1000ae80 f   app.obj
 0001:0000a010       ?stbtt__GetGlyphGPOSInfoAdvance@@YAHPBUstbtt_fontinfo@@HH@Z 1000b010 f   app.obj
 0001:0000a5a0       ?stbtt__hheap_alloc@@YAPAXPAUstbtt__hheap@@IPAX@Z 1000b5a0 f   app.obj
 0001:0000a670       ?stbtt__hheap_free@@YAXPAUstbtt__hheap@@PAX@Z 1000b670 f   app.obj
 0001:0000a690       ?stbtt__hheap_cleanup@@YAXPAUstbtt__hheap@@PAX@Z 1000b690 f   app.obj
 0001:0000a6d0       ?stbtt__new_active@@YAPAUstbtt__active_edge@@PAUstbtt__hheap@@PAUstbtt__edge@@HMPAX@Z 1000b6d0 f   app.obj
 0001:0000a820       ?stbtt__handle_clipped_edge@@YAXPAMHPAUstbtt__active_edge@@MMMM@Z 1000b820 f   app.obj
 0001:0000aba0       ?stbtt__fill_active_edges_new@@YAXPAM0HPAUstbtt__active_edge@@M@Z 1000bba0 f   app.obj
 0001:0000b6d0       ?stbtt__rasterize_sorted_edges@@YAXPAUstbtt__bitmap@@PAUstbtt__edge@@HHHHPAX@Z 1000c6d0 f   app.obj
 0001:0000bba0       ?stbtt__sort_edges_ins_sort@@YAXPAUstbtt__edge@@H@Z 1000cba0 f   app.obj
 0001:0000bcc0       ?stbtt__sort_edges_quicksort@@YAXPAUstbtt__edge@@H@Z 1000ccc0 f   app.obj
 0001:0000c010       ?stbtt__sort_edges@@YAXPAUstbtt__edge@@H@Z 1000d010 f   app.obj
 0001:0000c040       ?stbtt__rasterize@@YAXPAUstbtt__bitmap@@PAUstbtt__point@@PAHHMMMMHHHPAX@Z 1000d040 f   app.obj
 0001:0000c310       ?stbtt__add_point@@YAXPAUstbtt__point@@HMM@Z 1000d310 f   app.obj
 0001:0000c340       ?stbtt__tesselate_curve@@YAHPAUstbtt__point@@PAHMMMMMMMH@Z 1000d340 f   app.obj
 0001:0000c540       ?stbtt__tesselate_cubic@@YAXPAUstbtt__point@@PAHMMMMMMMMMH@Z 1000d540 f   app.obj
 0001:0000c8f0       ?stbtt_FlattenCurves@@YAPAUstbtt__point@@PAUstbtt_vertex@@HMPAPAHPAHPAX@Z 1000d8f0 f   app.obj
 0001:0000cd24       $LN25                      1000dd24     app.obj
 0001:0000cd40       ?stbtt_BakeFontBitmap_internal@@YAHPAEHM0HHHHPAUstbtt_bakedchar@@@Z 1000dd40 f   app.obj
 0001:0000cfd0       ?stbrp_init_target@@YAXPAUstbrp_context@@HHPAUstbrp_node@@H@Z 1000dfd0 f   app.obj
 0001:0000d010       ?stbrp_pack_rects@@YAXPAUstbrp_context@@PAUstbrp_rect@@H@Z 1000e010 f   app.obj
 0001:0000d120       ?stbtt__h_prefilter@@YAXPAEHHHI@Z 1000e120 f   app.obj
 0001:0000d3f8       $LN32                      1000e3f8     app.obj
 0001:0000d410       ?stbtt__v_prefilter@@YAXPAEHHHI@Z 1000e410 f   app.obj
 0001:0000d740       $LN32                      1000e740     app.obj
 0001:0000d750       ?stbtt__oversample_shift@@YAMH@Z 1000e750 f   app.obj
 0001:0000d790       ?stbtt__ray_intersect_bezier@@YAHQAM0000QAY01M@Z 1000e790 f   app.obj
 0001:0000dd10       ?equal@@YAHPAM0@Z          1000ed10 f   app.obj
 0001:0000dd80       ?stbtt__compute_crossings_x@@YAHMMHPAUstbtt_vertex@@@Z 1000ed80 f   app.obj
 0001:0000e470       ?stbtt__cuberoot@@YAMM@Z   1000f470 f   app.obj
 0001:0000e4e0       ?stbtt__solve_cubic@@YAHMMMPAM@Z 1000f4e0 f   app.obj
 0001:0000e7a0       ?stbtt__CompareUTF8toUTF16_bigendian_prefix@@YAHPAEH0H@Z 1000f7a0 f   app.obj
 0001:0000eb10       ?stbtt_CompareUTF8toUTF16_bigendian_internal@@YAHPADH0H@Z 1000fb10 f   app.obj
 0001:0000eb50       ?stbtt__matchpair@@YAHPAEI0HHH@Z 1000fb50 f   app.obj
 0001:0000edf0       ?stbtt__matches@@YAHPAEI0H@Z 1000fdf0 f   app.obj
 0001:0000efb0       ?stbtt_FindMatchingFont_internal@@YAHPAEPADH@Z 1000ffb0 f   app.obj
 0001:0000f010       ?CreateFontA@@YAPAUfont@@PAUmemory_arena@@MHHPAD@Z 10010010 f   app.obj
 0001:0000f300       ?SetupBatchRenderer@@YAXPAUrender_context@@PAUmemory_arena@@I@Z 10010300 f   app.obj
 0001:0000f360       ?RenderBegin@@YAXPAUrender_context@@II@Z 10010360 f   app.obj
 0001:0000f410       ?CompareVertexBackToFront@@YA_NPAUrender_vertex@@0@Z 10010410 f   app.obj
 0001:0000f440       ?CompareVertexFrontToBack@@YA_NPAUrender_vertex@@0@Z 10010440 f   app.obj
 0001:0000f470       ?SortVerticies@@YAXPAUrender_vertex@@IP6A_N00@Z@Z 10010470 f   app.obj
 0001:0000f580       ?CompareBatchBackToFront@@YA_NPAUrender_batch@@0@Z 10010580 f   app.obj
 0001:0000f5b0       ?CompareBatchFrontToBack@@YA_NPAUrender_batch@@0@Z 100105b0 f   app.obj
 0001:0000f5e0       ?SortBatches@@YAXPAUrender_batch@@IP6A_N00@Z@Z 100105e0 f   app.obj
 0001:0000f680       ?RenderFlush@@YAXPAUrender_context@@@Z 10010680 f   app.obj
 0001:0000f940       ?RenderQuadTexture@@YAXPAUrender_context@@MMMMUv4@@IM@Z 10010940 f   app.obj
 0001:0000fb50       ?RenderGlyph@@YAXPAUrender_context@@MMMMMMMMIM@Z 10010b50 f   app.obj
 0001:0000fd50       ?DrawRectangle@@YAXPAUrender_context@@MMMMIM@Z 10010d50 f   app.obj
 0001:0000fed0       ?GetTextWidth@@YAMPAUfont@@PAD@Z 10010ed0 f   app.obj
 0001:0000ff60       ?RenderText@@YAXPAUrender_context@@MMPAUfont@@Urender_program@@PADIMMUv4@@M@Z 10010f60 f   app.obj
 0001:000102a0       ?UIContextCreate@@YAPAUui_context@@PAUmemory_arena@@I@Z 100112a0 f   app.obj
 0001:000102f0       ?UIBegin@@YAXPAUrender_context@@PAUmemory_arena@@PAUapp_input@@PAUapp_state@@PAUui_context@@II@Z 100112f0 f   app.obj
 0001:00010400       ?DrawButton@@YAXPAUui_element@@PAUui_context@@@Z 10011400 f   app.obj
 0001:00010720       ?DrawEditBox@@YAXPAUui_element@@PAUui_context@@@Z 10011720 f   app.obj
 0001:00010af0       ?DrawTextLabel@@YAXPAUui_element@@PAUui_context@@@Z 10011af0 f   app.obj
 0001:00010e90       ?DrawTilePickerWidget@@YAXPAUui_element@@PAUui_context@@@Z 10011e90 f   app.obj
 0001:00011490       ?DoTilePickerWidget@@YAXPAUui_state@@PAUapp_state@@PAUui_context@@MMMMPAUloaded_texture@@IIII@Z 10012490 f   app.obj
 0001:00011f20       ?CheckEntityOverlapInChunk@@YAXPAUapp_state@@PAUworld@@PAUmemory_arena@@PAUworld_entity@@PAUworld_entity_chunk@@@Z 10012f20 f   app.obj
 0001:00011fc0       ?InsertEntity@@YAXPAUapp_state@@PAUworld@@PAUmemory_arena@@PAUworld_entity_chunk@@PAUworld_entity@@@Z 10012fc0 f   app.obj
 0001:00012070       ?RemoveEntity@@YAHPAUworld@@PAUworld_chunk@@PAUworld_entity@@@Z 10013070 f   app.obj
 0001:00012190       ?GetChunksFromBox@@YAXPAUworld@@Urectangle3@@PAI22222@Z 10013190 f   app.obj
 0001:00012580       ?AddEntity@@YAPAUworld_entity@@PAUapp_state@@PAUworld@@PAUmemory_arena@@W4entity_type@@Uv3@@PAUentity_collision_volume_group@@@Z 10013580 f   app.obj
 0001:000126e0       ?CheckAndChangeEntityChunk@@YAXPAUapp_state@@PAUworld@@PAUmemory_arena@@Uv3@@PAUworld_entity@@@Z 100136e0 f   app.obj
 0001:00012b40       ?AddAnimation@@YAPAUanimation_slot@@PAUanimation_set@@PAUmemory_arena@@W4animation_type@@W4animation_direction@@IIMH@Z 10013b40 f   app.obj
 0001:00012bd0       ?DoAnimation@@YA?AUv4@@PAUanimation_state@@IIIIMMUanimation_slot@@@Z 10013bd0 f   app.obj
 0001:00012ee0       ?HandleCollision@@YAHPAUworld@@PAUworld_entity@@1@Z 10013ee0 f   app.obj
 0001:00012fb0       ?TestWall@@YAHMMMMMMMPAMMMMM@Z 10013fb0 f   app.obj
 0001:000130c0       ?MoveEntity@@YAXPAUworld_entity@@PAUworld@@PAUmemory_arena@@PAUapp_input@@PAUapp_state@@Uv3@@PAM@Z 100140c0 f   app.obj
 0001:00015080       ?CompileShader@@YAHPAUopen_gl@@PAUmemory_arena@@PAXIPADI@Z 10016080 f   app.obj
 0001:000151a0       ?InitProgram@@YAXPAUopen_gl@@PAUmemory_arena@@PAUrender_program@@PAD3PAPADI@Z 100161a0 f   app.obj
 0001:00015470       ?AppInitOpenGL@@YAXPAUmemory_arena@@PAUapp_state@@PAUthread_context@@PAUapp_memory@@@Z 10016470 f   app.obj
 0001:00015610       ?InitializeAudio@@YAXPAUaudio_state@@@Z 10016610 f   app.obj
 0001:00015660       ?PlaySoundA@@YAPAUplaying_sound@@PAUapp_state@@Uasset_id@@@Z 10016660 f   app.obj
 0001:000157a0       ?OutputAudio@@YAXPAUaudio_state@@PAUapp_sound_output_buffer@@PAUmemory_arena@@@Z 100167a0 f   app.obj
 0001:00016690       ?AddPlayer@@YAPAUworld_entity@@PAUapp_state@@PAUworld@@PAUmemory_arena@@Uv3@@@Z 10017690 f   app.obj
 0001:000167d0       ?AddSword@@YAPAUworld_entity@@PAUapp_state@@PAUworld@@PAUmemory_arena@@Uv3@@PAU1@W4animation_direction@@@Z 100177d0 f   app.obj
 0001:00016900       ?AddWall@@YAPAUworld_entity@@PAUapp_state@@PAUworld@@PAUmemory_arena@@Uv3@@@Z 10017900 f   app.obj
 0001:00016a00       ?AddTree@@YAPAUworld_entity@@PAUapp_state@@PAUworld@@PAUmemory_arena@@Uv3@@@Z 10017a00 f   app.obj
 0001:00016b10       ?AddTileEntity@@YAPAUworld_entity@@PAUapp_state@@PAUworld@@PAUmemory_arena@@III@Z 10017b10 f   app.obj
 0001:00016e10       ?AddMonster@@YAPAUworld_entity@@PAUapp_state@@PAUworld@@PAUmemory_arena@@Uv3@@@Z 10017e10 f   app.obj
 0001:00016f20       ?AddFamiliar@@YAPAUworld_entity@@PAUapp_state@@PAUworld@@PAUmemory_arena@@PAU1@@Z 10017f20 f   app.obj
 0001:000170b0       ?AddFireBall@@YAPAUworld_entity@@PAUapp_state@@PAUworld@@PAUmemory_arena@@PAU1@Uv3@@4@Z 100180b0 f   app.obj
 0001:000171f0       ?UpdatePlayer@@YAXPAUworld_entity@@PAUworld@@PAUmemory_arena@@PAUapp_input@@PAUapp_state@@Uv3@@PAMPAW4animation_type@@PAW4animation_direction@@@Z 100181f0 f   app.obj
 0001:00018140       ?UpdateFamiliar@@YAXPAUworld_entity@@PAUworld@@PAUmemory_arena@@PAUapp_input@@PAUapp_state@@PAMPAW4animation_type@@PAW4animation_direction@@@Z 10019140 f   app.obj
 0001:000184a0       ?UpdateFireBall@@YAXPAUworld_entity@@PAUworld@@PAUmemory_arena@@PAUapp_input@@PAUapp_state@@@Z 100194a0 f   app.obj
 0001:00018600       ?DrawTileEntity@@YAXPAUrender_context@@PAUapp_state@@Urender_program@@PAUassets@@PAUworld@@PAUworld_entity@@Uv3@@@Z 10019600 f   app.obj
 0001:00018a00       ?DrawEntity@@YAXPAUrender_context@@PAUapp_state@@Urender_program@@PAUassets@@PAUworld_entity@@Uv3@@@Z 10019a00 f   app.obj
 0001:00018ef0       ?DoEntityAnimation@@YAXPAUworld_entity@@PAUassets@@PAUapp_state@@MMW4animation_type@@W4animation_direction@@@Z 10019ef0 f   app.obj
 0001:0001c508       $LN73                      1001d508     app.obj
 0001:0001eef8       $LN14                      1001fef8     app.obj
 0001:0001f210       $$000000                   10020210     LIBCMTD:_ftol2_.obj
 0001:0001f2d0       $$000000                   100202d0     LIBCMTD:_ftol3_.obj
 0001:0001f650       ?dllmain_crt_dispatch@@YGHQAUHINSTANCE__@@KQAX@Z 10020650 f   LIBCMTD:dll_dllmain.obj
 0001:0001f6bc       $LN11                      100206bc     LIBCMTD:dll_dllmain.obj
 0001:0001f6d0       ?dllmain_crt_process_attach@@YAHQAUHINSTANCE__@@QAX@Z 100206d0 f   LIBCMTD:dll_dllmain.obj
 0001:0001f850       ?dllmain_crt_process_detach@@YAH_N@Z 10020850 f   LIBCMTD:dll_dllmain.obj
 0001:0001f920       ?dllmain_dispatch@@YAHQAUHINSTANCE__@@KQAX@Z 10020920 f   LIBCMTD:dll_dllmain.obj
 0001:0001fac0       ?dllmain_raw@@YGHQAUHINSTANCE__@@KQAX@Z 10020ac0 f   LIBCMTD:dll_dllmain.obj
 0001:00020080       ?find_pe_section@@YAPAU_IMAGE_SECTION_HEADER@@QAEI@Z 10021080 f   LIBCMTD:utility.obj
 0001:00020110       ?is_potentially_valid_image_base@@YA_NQAX@Z 10021110 f   LIBCMTD:utility.obj
 0001:00020a40       _cmpBYTE                   10021a40 f   libvcruntimed:_memcmp_.obj
 0001:00020a70       _cmpDWORD                  10021a70 f   libvcruntimed:_memcmp_.obj
 0001:00020b40       _cmpResult                 10021b40 f   libvcruntimed:_memcmp_.obj
 0001:00020b70       _cmpWORD                   10021b70 f   libvcruntimed:_memcmp_.obj
 0001:00020d94       $LN22                      10021d94     libvcruntimed:_memcmp_.obj
 0001:00020db0       _unaligned_memcmp          10021db0 f   libvcruntimed:_memcmp_.obj
 0001:00021434       $LN79                      10022434     libvcruntimed:_memcmp_.obj
 0001:000214c0       $$000000                   100224c0     libvcruntimed:memcpy.obj
 0001:00021724       TrailingUpVec              10022724     libvcruntimed:memcpy.obj
 0001:000217d0       TrailingDownVec            100227d0     libvcruntimed:memcpy.obj
 0001:00021a40       $$000000                   10022a40     libvcruntimed:memset.obj
 0001:00021ba0       ?__telemetry_getfilename@@YAXPAUHINSTANCE__@@PA_WK@Z 10022ba0 f   libvcruntimed:telemetry.obj
 0001:00021f30       _ValidateLocalCookies      10022f30 f   libvcruntimed:_chandler4_.obj
 0001:00022390       ?invalid_function_sentinel@@YAPAXXZ 10023390 f   libvcruntimed:winapi_downlevel.obj
 0001:000223a0       ?try_get_EventRegister@@YAP6GKPBU_GUID@@P6GX0KE_K1PAU_EVENT_FILTER_DESCRIPTOR@@PAX@Z3PA_K@ZXZ 100233a0 f   libvcruntimed:winapi_downlevel.obj
 0001:000223c0       ?try_get_EventSetInformation@@YAP6GK_KW4_EVENT_INFO_CLASS@@PAXK@ZXZ 100233c0 f   libvcruntimed:winapi_downlevel.obj
 0001:000223e0       ?try_get_EventUnregister@@YAP6GK_K@ZXZ 100233e0 f   libvcruntimed:winapi_downlevel.obj
 0001:00022400       ?try_get_EventWriteTransfer@@YAP6GK_KPBU_EVENT_DESCRIPTOR@@PBU_GUID@@2KPAU_EVENT_DATA_DESCRIPTOR@@@ZXZ 10023400 f   libvcruntimed:winapi_downlevel.obj
 0001:00022420       ?try_get_FlsAlloc@@YAP6GKP6GXPAX@Z@ZXZ 10023420 f   libvcruntimed:winapi_downlevel.obj
 0001:00022440       ?try_get_FlsFree@@YAP6GHK@ZXZ 10023440 f   libvcruntimed:winapi_downlevel.obj
 0001:00022460       ?try_get_FlsGetValue@@YAP6GPAXK@ZXZ 10023460 f   libvcruntimed:winapi_downlevel.obj
 0001:00022480       ?try_get_FlsSetValue@@YAP6GHKPAX@ZXZ 10023480 f   libvcruntimed:winapi_downlevel.obj
 0001:000224a0       ?try_get_InitializeCriticalSectionEx@@YAP6GHPAU_RTL_CRITICAL_SECTION@@KK@ZXZ 100234a0 f   libvcruntimed:winapi_downlevel.obj
 0001:000224c0       ?try_get_first_available_module@@YAPAUHINSTANCE__@@QBW4module_id@?A0x1821e63c@@0@Z 100234c0 f   libvcruntimed:winapi_downlevel.obj
 0001:00022510       ?try_get_function@@YAPAXW4function_id@?A0x1821e63c@@QBDQBW4module_id@2@2@Z 10023510 f   libvcruntimed:winapi_downlevel.obj
 0001:00022640       ?try_get_module@@YAPAUHINSTANCE__@@W4module_id@?A0x1821e63c@@@Z 10023640 f   libvcruntimed:winapi_downlevel.obj
 0001:00022740       ?try_get_proc_address_from_first_available_module@@YAPAXQBDQBW4module_id@?A0x1821e63c@@1@Z 10023740 f   libvcruntimed:winapi_downlevel.obj
 0001:00022780       ?try_load_library_from_system_directory@@YAPAUHINSTANCE__@@QB_W@Z 10023780 f   libvcruntimed:winapi_downlevel.obj
 0001:00022b20       $$000000                   10023b20     libvcruntimed:_exsup4_.obj
 0001:00022bb0       __unwind_handler4          10023bb0 f   libvcruntimed:_exsup4_.obj
 0001:00022dd0       ?store_and_initialize_ptd@@YA_NQAU__vcrt_ptd@@@Z 10023dd0 f   libvcruntimed:per_thread_data.obj
 0001:00023110       __TlgDefineProvider_annotation__Tlg_Microsoft_CRTProviderProv 10024110 f i libvcruntimed:telemetry.obj
 0001:00023110       _init_memcpy_functions     10024110 f i libvcruntimed:initialization.obj
 0001:000231b0       $$000000                   100241b0     libvcruntimed:_exsup_.obj
 0001:000231d0       __unwind_handler           100241d0 f   libvcruntimed:_exsup_.obj
 0001:000233e0       ??$common_assert@_W@@YAXQB_W0IQAX@Z 100243e0 f   libucrtd:assert.obj
 0001:00023450       ??$common_assert_to_message_box@_W@@YAXQB_W0IQAX@Z 10024450 f   libucrtd:assert.obj
 0001:00023530       ??$common_assert_to_message_box_build_string@_W@@YAXQA_WIQB_W1IQAX@Z 10024530 f   libucrtd:assert.obj
 0001:00024080       ??$common_assert_to_stderr@_W@@YAXQB_W0I@Z 10025080 f   libucrtd:assert.obj
 0001:00024360       ?common_assert_to_stderr_direct@@YAXQB_W0I@Z 10025360 f   libucrtd:assert.obj
 0001:00024440       ?get_assert_format@@YAPB_W_W@Z 10025440 f   libucrtd:assert.obj
 0001:00024450       ?get_banner_text@@YAPB_W_W@Z 10025450 f   libucrtd:assert.obj
 0001:00024460       ?get_box_intro@@YAPB_W_W@Z 10025460 f   libucrtd:assert.obj
 0001:00024470       ?get_dot_dot_dot@@YAPB_W_W@Z 10025470 f   libucrtd:assert.obj
 0001:00024480       ?get_double_newline@@YAPB_W_W@Z 10025480 f   libucrtd:assert.obj
 0001:00024490       ?get_expression_intro@@YAPB_W_W@Z 10025490 f   libucrtd:assert.obj
 0001:000244a0       ?get_file_intro@@YAPB_W_W@Z 100254a0 f   libucrtd:assert.obj
 0001:000244d0       ?get_help_intro@@YAPB_W_W@Z 100254d0 f   libucrtd:assert.obj
 0001:000244e0       ?get_info_intro@@YAPB_W_W@Z 100254e0 f   libucrtd:assert.obj
 0001:000244f0       ?get_line_intro@@YAPB_W_W@Z 100254f0 f   libucrtd:assert.obj
 0001:00024500       ?get_newline@@YAPB_W_W@Z   10025500 f   libucrtd:assert.obj
 0001:00024510       ?get_program_intro@@YAPB_W_W@Z 10025510 f   libucrtd:assert.obj
 0001:00024520       ?get_program_name_unknown_text@@YAPB_W_W@Z 10025520 f   libucrtd:dbgrpt.obj
 0001:00024520       ?get_program_name_unknown_text@@YAPB_W_W@Z 10025520 f   libucrtd:assert.obj
 0001:000246e0       $$000000                   100256e0     libucrtd:87fmod.obj
 0001:00024710       $$000000                   10025710     libucrtd:acos_sse2_precise.obj
 0001:00024c30       $$000000                   10025c30     libucrtd:cos_sse2_precise.obj
 0001:00024df0       $$000000                   10025df0     libucrtd:pow_sse2_precise.obj
 0001:00025940       $$000000                   10026940     libucrtd:sin_sse2_precise.obj
 0001:00025b10       $$000000                   10026b10     libucrtd:sqrt_sse2_precise.obj
 0001:00025c10       $$000000                   10026c10     libucrtd:ceil_pentium4.obj
 0001:00025d30       $$000000                   10026d30     libucrtd:floor_pentium4.obj
 0001:00025fa0       __get_fname                10026fa0 f   libucrtd:fpexcept.obj
 0001:000268a8       $LN55                      100278a8     libucrtd:fpexcept.obj
 0001:00026a70       ?xcptlookup@@YAPAU__crt_signal_action_t@@KQAU1@@Z 10027a70 f   libucrtd:exception_filter.obj
 0001:00026cf0       $LN25                      10027cf0     libucrtd:exception_filter.obj
 0001:00026d50       ?atexit_exception_filter@@YAHK@Z 10027d50 f   libucrtd:exit.obj
 0001:00026de0       ?common_exit@@YAXHW4_crt_exit_cleanup_mode@@W4_crt_exit_return_mode@@@Z 10027de0 f   libucrtd:exit.obj
 0001:00026fa0       ?exit_or_terminate_process@@YAXI@Z 10027fa0 f   libucrtd:exit.obj
 0001:00026ff0       ?is_managed_app@@YA_NXZ    10027ff0 f   libucrtd:exit.obj
 0001:00027080       ?should_call_terminate_process@@YA_NXZ 10028080 f   libucrtd:exit.obj
 0001:000270d0       ?try_cor_exit_process@@YAXI@Z 100280d0 f   libucrtd:exit.obj
 0001:000271d4       ??$common_initialize_environment_nolock@D@@YAHXZ 100281d4 f   libucrtd:environment_initialization.obj
 0001:00027233       ??$create_environment@D@@YAQAPADQAD@Z 10028233 f   libucrtd:environment_initialization.obj
 0001:00027337       ??$free_environment@D@@YAXQAPAD@Z 10028337 f   libucrtd:environment_initialization.obj
 0001:00027337       ??$free_environment@_W@@YAXQAPA_W@Z 10028337 f   libucrtd:environment_initialization.obj
 0001:000273aa       ??$uninitialize_environment_internal@D@@YAXAAPAPAD@Z 100283aa f   libucrtd:environment_initialization.obj
 0001:000273c5       ??$uninitialize_environment_internal@_W@@YAXAAPAPA_W@Z 100283c5 f   libucrtd:environment_initialization.obj
 0001:00027690       ??R<lambda_942beefa13ab35ff55f86422493ffd6a>@@QBEHXZ 10028690 f   libucrtd:onexit.obj
 0001:000278a0       ??R<lambda_e971338317bfa523bb8920b43d823727>@@QBEHXZ 100288a0 f   libucrtd:onexit.obj
 0001:00027b50       _initialize_global_variables 10028b50 f   libucrtd:initialization.obj
 0001:00027b70       _initialize_c              10028b70 f   libucrtd:initialization.obj
 0001:00027ba0       _initialize_environment    10028ba0 f   libucrtd:initialization.obj
 0001:00027ba0       _uninitialize_c            10028ba0 f   libucrtd:initialization.obj
 0001:00027ba0       _initialize_global_state_isolation 10028ba0 f   libucrtd:initialization.obj
 0001:00027ba0       _uninitialize_global_state_isolation 10028ba0 f   libucrtd:initialization.obj
 0001:00027bb0       _uninitialize_environment  10028bb0 f   libucrtd:initialization.obj
 0001:00027bd0       _initialize_pointers       10028bd0 f   libucrtd:initialization.obj
 0001:00027c40       _uninitialize_vcruntime    10028c40 f   libucrtd:initialization.obj
 0001:00027c60       _uninitialize_allocated_memory 10028c60 f   libucrtd:initialization.obj
 0001:00027cf0       _report_memory_leaks       10028cf0 f   libucrtd:initialization.obj
 0001:00027d60       ??R<lambda_c3040c0a6a4a8d26c9e8356dc2fac8c5>@@QBEXAAPAU__crt_multibyte_data@@@Z 10028d60 f   libucrtd:initialization.obj
 0001:00027f20       $$000000                   10028f20     libucrtd:strlen.obj
 0001:000280f0       ?block_from_header@@YAPAEQAU_CrtMemBlockHeader@@@Z 100290f0 f   libucrtd:debug_heap.obj
 0001:00028100       ?check_block@@YA_NQAU_CrtMemBlockHeader@@@Z 10029100 f   libucrtd:debug_heap.obj
 0001:000283d0       ?check_bytes@@YA_NQBEEI@Z  100293d0 f   libucrtd:debug_heap.obj
 0001:00028420       ?dump_all_object_since_nolock@@YAXQBU_CrtMemState@@@Z 10029420 f   libucrtd:debug_heap.obj
 0001:00028720       ?free_dbg_nolock@@YAXQAXH@Z 10029720 f   libucrtd:debug_heap.obj
 0001:00028be0       ?header_from_block@@YAPAU_CrtMemBlockHeader@@QBX@Z 10029be0 f   libucrtd:debug_heap.obj
 0001:00028bf0       ?heap_alloc_dbg@@YAPAXIHQBDH@Z 10029bf0 f   libucrtd:debug_heap.obj
 0001:00028c70       ?heap_alloc_dbg_internal@@YAPAXIHQBDH@Z 10029c70 f   libucrtd:debug_heap.obj
 0001:00029000       ?is_bad_read_pointer@@YA_NQBXI@Z 1002a000 f   libucrtd:debug_heap.obj
 0001:00029120       ?is_block_an_aligned_allocation@@YA_NQBX@Z 1002a120 f   libucrtd:debug_heap.obj
 0001:00029150       ?is_block_type_valid@@YA_NH@Z 1002a150 f   libucrtd:debug_heap.obj
 0001:000291a0       ?print_block_data@@YAXQAU__crt_locale_pointers@@QAU_CrtMemBlockHeader@@@Z 1002a1a0 f   libucrtd:debug_heap.obj
 0001:00029320       ?realloc_dbg_nolock@@YAPAXQAXQAIHQBDH_N@Z 1002a320 f   libucrtd:debug_heap.obj
 0001:000298b0       ?validate_heap_if_required_nolock@@YAXXZ 1002a8b0 f   libucrtd:debug_heap.obj
 0001:0002a5b0       ??$common_tcscpy_s@D@@YAHQADIQBD@Z 1002b5b0 f   libucrtd:strcpy_s.obj
 0001:0002a8e0       $$000000                   1002b8e0     libucrtd:strcmp.obj
 0001:0002a970       ??$common_message_window@D@@YAHHQAXQBD111@Z 1002b970 f   libucrtd:dbgrpt.obj
 0001:0002ae40       ??$common_message_window@_W@@YAHHQAXQB_W111@Z 1002be40 f   libucrtd:dbgrpt.obj
 0001:0002b320       ?get_output_message_format@@YAPB_WD@Z 1002c320 f   libucrtd:dbgrpt.obj
 0001:0002b330       ?get_output_message_format@@YAPB_W_W@Z 1002c330 f   libucrtd:dbgrpt.obj
 0001:0002b340       ?get_program_name_unknown_text@@YAPBDD@Z 1002c340 f   libucrtd:dbgrpt.obj
 0001:0002b740       ??$common_vfprintf@Vstandard_base@__crt_stdio_output@@_W@@YAH_KQAU_iobuf@@QB_WQAU__crt_locale_pointers@@QAD@Z 1002c740 f   libucrtd:output.obj
 0001:0002b870       ??$common_vsnprintf_s@D@@YAH_KQADIIQBDQAU__crt_locale_pointers@@1@Z 1002c870 f   libucrtd:output.obj
 0001:0002bc40       ??$common_vsnprintf_s@_W@@YAH_KQA_WIIQB_WQAU__crt_locale_pointers@@QAD@Z 1002cc40 f   libucrtd:output.obj
 0001:0002c020       ??$common_vsprintf@Vformat_validation_base@__crt_stdio_output@@D@@YAH_KQADIQBDQAU__crt_locale_pointers@@1@Z 1002d020 f   libucrtd:output.obj
 0001:0002c450       ??$common_vsprintf@Vformat_validation_base@__crt_stdio_output@@_W@@YAH_KQA_WIQB_WQAU__crt_locale_pointers@@QAD@Z 1002d450 f   libucrtd:output.obj
 0001:0002c8a0       ??$common_vsprintf@Vstandard_base@__crt_stdio_output@@_W@@YAH_KQA_WIQB_WQAU__crt_locale_pointers@@QAD@Z 1002d8a0 f   libucrtd:output.obj
 0001:0002ccf0       ??$common_vsprintf_s@D@@YAH_KQADIQBDQAU__crt_locale_pointers@@1@Z 1002dcf0 f   libucrtd:output.obj
 0001:0002da50       ??0<lambda_481dd5778c961fbcd3b60b650e9b9dc4>@@QAE@ABQAU_iobuf@@ABQAU__crt_locale_pointers@@AB_KABQB_WABQAD@Z 1002ea50 f   libucrtd:output.obj
 0001:0002dd90       ??0<lambda_e971338317bfa523bb8920b43d823727>@@QAE@ABQAU_onexit_table_t@@@Z 1002ed90 f i libucrtd:onexit.obj
 0001:0002dd90       ??0<lambda_801f60a70ab65355beb13c41cbe335bb>@@QAE@ABQAU__acrt_ptd@@@Z 1002ed90 f i libucrtd:per_thread_data.obj
 0001:0002dd90       ??0<lambda_be2b3da3f62db62e9dad5dc70221a656>@@QAE@ABQAU__acrt_ptd@@@Z 1002ed90 f i libucrtd:per_thread_data.obj
 0001:0002dd90       ??0<lambda_e69574bed617af4e071282c136b37893>@@QAE@ABQAU__acrt_ptd@@@Z 1002ed90 f i libucrtd:per_thread_data.obj
 0001:0002dd90       ??0<lambda_a8f98972ebaa5f7148d35bffe53bd70d>@@QAE@ABH@Z 1002ed90 f i libucrtd:close.obj
 0001:0002dd90       ??0<lambda_e9ab68cc08dfd839979545c079379e6e>@@QAE@ABH@Z 1002ed90 f i libucrtd:commit.obj
 0001:0002df90       ??R<lambda_481dd5778c961fbcd3b60b650e9b9dc4>@@QBEHXZ 1002ef90 f   libucrtd:output.obj
 0001:0002e080       ??R<lambda_c58464cc0393550ab06f01720b646001>@@QBEXXZ 1002f080 f   libucrtd:setvbuf.obj
 0001:0002e080       ??R<lambda_ab9923ffb5d694ec0d78876dd103e44f>@@QBEXXZ 1002f080 f   libucrtd:output.obj
 0001:0002e8c4       $LN30                      1002f8c4     libucrtd:output.obj
 0001:0002eb74       $LN30                      1002fb74     libucrtd:output.obj
 0001:0002ee24       $LN30                      1002fe24     libucrtd:output.obj
 0001:0002f0e4       $LN30                      100300e4     libucrtd:output.obj
 0001:0002f1d8       $LN11                      100301d8     libucrtd:output.obj
 0001:0002f1f0       $LN10                      100301f0     libucrtd:output.obj
 0001:0002f288       $LN11                      10030288     libucrtd:output.obj
 0001:0002f288       $LN11                      10030288     libucrtd:output.obj
 0001:0002f288       $LN11                      10030288     libucrtd:output.obj
 0001:0002f2a0       $LN10                      100302a0     libucrtd:output.obj
 0001:0002f2a0       $LN10                      100302a0     libucrtd:output.obj
 0001:0002f2a0       $LN10                      100302a0     libucrtd:output.obj
 0001:0002fc28       $LN37                      10030c28     libucrtd:output.obj
 0001:0002fc50       $LN36                      10030c50     libucrtd:output.obj
 0001:0002fff8       $LN37                      10030ff8     libucrtd:output.obj
 0001:00030020       $LN36                      10031020     libucrtd:output.obj
 0001:000303c8       $LN37                      100313c8     libucrtd:output.obj
 0001:000303f0       $LN36                      100313f0     libucrtd:output.obj
 0001:00030798       $LN37                      10031798     libucrtd:output.obj
 0001:000307c0       $LN36                      100317c0     libucrtd:output.obj
 0001:00030b40       $LN38                      10031b40     libucrtd:output.obj
 0001:00030b70       $LN37                      10031b70     libucrtd:output.obj
 0001:00030f20       $LN38                      10031f20     libucrtd:output.obj
 0001:00030f50       $LN37                      10031f50     libucrtd:output.obj
 0001:00031300       $LN38                      10032300     libucrtd:output.obj
 0001:00031330       $LN37                      10032330     libucrtd:output.obj
 0001:000316e0       $LN38                      100326e0     libucrtd:output.obj
 0001:00031710       $LN37                      10032710     libucrtd:output.obj
 0001:00031900       $LN17                      10032900     libucrtd:output.obj
 0001:0003267c       $LN35                      1003367c     libucrtd:output.obj
 0001:000329bc       $LN35                      100339bc     libucrtd:output.obj
 0001:00032cfc       $LN35                      10033cfc     libucrtd:output.obj
 0001:0003303c       $LN35                      1003403c     libucrtd:output.obj
 0001:00033228       $LN21                      10034228     libucrtd:output.obj
 0001:00033418       $LN21                      10034418     libucrtd:output.obj
 0001:00033608       $LN21                      10034608     libucrtd:output.obj
 0001:000337f8       $LN21                      100347f8     libucrtd:output.obj
 0001:00035d80       ?issue_debug_notification@@YA_NQB_W@Z 10036d80 f   libucrtd:report_runtime_error.obj
 0001:00035dc0       ?should_write_error_to_console@@YA_NXZ 10036dc0 f   libucrtd:report_runtime_error.obj
 0001:00035e00       ?write_string_to_console@@YAXQB_W@Z 10036e00 f   libucrtd:report_runtime_error.obj
 0001:00036260       ??$common_xtox@KD@@YAHKQADII_N@Z 10037260 f   libucrtd:xtoa.obj
 0001:000363f0       ??$common_xtox@K_W@@YAHKQA_WII_N@Z 100373f0 f   libucrtd:xtoa.obj
 0001:00036590       ??$common_xtox_s@KD@@YAHKQADII_N@Z 10037590 f   libucrtd:xtoa.obj
 0001:00036820       ??$common_xtox_s@K_W@@YAHKQA_WII_N@Z 10037820 f   libucrtd:xtoa.obj
 0001:00036c10       ??$common_tcscat_s@_W@@YAHQA_WIQB_W@Z 10037c10 f   libucrtd:wcscat_s.obj
 0001:00037050       ??$common_tcscpy_s@_W@@YAHQA_WIQB_W@Z 10038050 f   libucrtd:wcscpy_s.obj
 0001:00037390       ??$common_tcsncat_s@_W@@YAHQA_WIQB_WI@Z 10038390 f   libucrtd:wcsncat_s.obj
 0001:00037880       ??$common_tcscat_s@D@@YAHQADIQBD@Z 10038880 f   libucrtd:strcat_s.obj
 0001:00037cb0       ??$common_show_message_box@_W@@YAHQB_W0I@Z 10038cb0 f   libucrtd:crtmbox.obj
 0001:00037e60       ??$message_box_wait_thread@_W@@YGKQAX@Z 10038e60 f   libucrtd:crtmbox.obj
 0001:00038520       _common_flush_all          10039520 f   libucrtd:fflush.obj
 0001:00038820       ??0<lambda_108d78a972a15edee025c8b3efe121dc>@@QAE@ABIABV__crt_stdio_stream@@ABHABQAD@Z 10039820 f   libucrtd:setvbuf.obj
 0001:00038860       ??R<lambda_108d78a972a15edee025c8b3efe121dc>@@QBEHXZ 10039860 f   libucrtd:setvbuf.obj
 0001:00038990       ??R<lambda_7923d86c9e3f319b415918ec4b39749c>@@QBEXXZ 10039990 f   libucrtd:output.obj
 0001:00038990       ??R<lambda_1a39be00af773e7199199dafcba04cc5>@@QBEXXZ 10039990 f   libucrtd:setvbuf.obj
 0001:000389b0       ?set_buffer@@YAHV__crt_stdio_stream@@QADIH@Z 100399b0 f   libucrtd:setvbuf.obj
 0001:00038cd0       ??R<lambda_821a00fc0e15a7fd532972332124005d>@@QBEXXZ 10039cd0 f   libucrtd:onexit.obj
 0001:00038cd0       ??R<lambda_a12890e7f9ac9927a62bd0bbd5044c78>@@QBEXXZ 10039cd0 f   libucrtd:onexit.obj
 0001:00038cd0       ??R<lambda_a048d3beccc847880fc8490e18b82769>@@QBEXXZ 10039cd0 f   libucrtd:signal.obj
 0001:00038cd0       ??R<lambda_5b71d36f03204c0beab531769a5b5694>@@QBEXXZ 10039cd0 f   libucrtd:per_thread_data.obj
 0001:00038cd0       ??R<lambda_9df27f884b057bc3edfc946cb5b7cf47>@@QBEXXZ 10039cd0 f   libucrtd:per_thread_data.obj
 0001:00038cd0       ??R<lambda_952b238c83a62ef8e81c72265e1e9aa0>@@QBEXXZ 10039cd0 f   libucrtd:per_thread_data.obj
 0001:00038cd0       ??R<lambda_4393c4b5ef78814305fd0c1b31d2e9a8>@@QBEXXZ 10039cd0 f   libucrtd:wsetlocale.obj
 0001:00038cd0       ??R<lambda_d80abc18c428629cddc270f096dcc61b>@@QBEXXZ 10039cd0 f   libucrtd:mbctype.obj
 0001:00038cd0       ??R<lambda_3518db117f0e7cdb002338c5d3c47b6c>@@QBEXXZ 10039cd0 f   libucrtd:per_thread_data.obj
 0001:00038cf0       ??R<lambda_ec61778202f4f5fc7e7711acc23c3bca>@@QBEP6AXH@ZXZ 10039cf0 f   libucrtd:signal.obj
 0001:00038d20       ?get_global_action_nolock@@YAPAP6AXH@ZH@Z 10039d20 f   libucrtd:signal.obj
 0001:00038d90       $LN11                      10039d90     libucrtd:signal.obj
 0001:00038da8       $LN10                      10039da8     libucrtd:signal.obj
 0001:00038dc0       ?siglookup@@YAPAU__crt_signal_action_t@@HQAU1@@Z 10039dc0 f   libucrtd:signal.obj
 0001:00039228       $LN48                      1003a228     libucrtd:signal.obj
 0001:00039234       $LN46                      1003a234     libucrtd:signal.obj
 0001:00039250       $$000000                   1003a250     libucrtd:87cdisp.obj
 0001:000394e0       $$000000                   1003a4e0     libucrtd:87disp.obj
 0001:00039c30       $LN38                      1003ac30     libucrtd:libm_error.obj
 0001:00039c6c       $LN37                      1003ac6c     libucrtd:libm_error.obj
 0001:00039cb0       $$000000                   1003acb0     libucrtd:acos.obj
 0001:00039e00       $$000000                   1003ae00     libucrtd:cos.obj
 0001:00039f30       $$000000                   1003af30     libucrtd:pow.obj
 0001:0003a1c0       $$000000                   1003b1c0     libucrtd:sin.obj
 0001:0003a2f0       $$000000                   1003b2f0     libucrtd:sqrt.obj
 0001:0003ad00       ??R<lambda_801f60a70ab65355beb13c41cbe335bb>@@QBEXXZ 1003bd00 f   libucrtd:per_thread_data.obj
 0001:0003ad50       ??R<lambda_fdb30781f88e85fcd814d1d789f55c14>@@QBEXXZ 1003bd50 f   libucrtd:mbctype.obj
 0001:0003ad50       ??R<lambda_84d84f98815add542a0d6e6ca338feb2>@@QBEXXZ 1003bd50 f   libucrtd:per_thread_data.obj
 0001:0003ad50       ??R<lambda_3ab53bf64df1f1ff33dbc5b1929ce7a7>@@QBEXXZ 1003bd50 f   libucrtd:onexit.obj
 0001:0003ad50       ??R<lambda_f7496a158712204296dd6628a163878e>@@QBEXXZ 1003bd50 f   libucrtd:signal.obj
 0001:0003ad50       ??R<lambda_e618b16d59e79e236350cab8485990d2>@@QBEXXZ 1003bd50 f   libucrtd:onexit.obj
 0001:0003ad50       ??R<lambda_abdedf541bb04549bc734292b4a045d4>@@QBEXXZ 1003bd50 f   libucrtd:per_thread_data.obj
 0001:0003ad50       ??R<lambda_8f9ce462984622f9bf76b59e2aaaf805>@@QBEXXZ 1003bd50 f   libucrtd:per_thread_data.obj
 0001:0003ad50       ??R<lambda_8f70eeb8060c49130c088d3137313000>@@QBEXXZ 1003bd50 f   libucrtd:wsetlocale.obj
 0001:0003ad50       ??R<lambda_cc0d902bcbbeb830f749456577db4721>@@QBEXXZ 1003bd50 f   libucrtd:per_thread_data.obj
 0001:0003ad70       ??R<lambda_b2ea41f6bbb362cd97d94c6828d90b61>@@QBEXXZ 1003bd70 f   libucrtd:per_thread_data.obj
 0001:0003ada0       ??R<lambda_be2b3da3f62db62e9dad5dc70221a656>@@QBEXXZ 1003bda0 f   libucrtd:per_thread_data.obj
 0001:0003adc0       ??R<lambda_e69574bed617af4e071282c136b37893>@@QBEXXZ 1003bdc0 f   libucrtd:per_thread_data.obj
 0001:0003ade0       ?construct_ptd@@YAXQAU__acrt_ptd@@QAPAU__crt_locale_data@@@Z 1003bde0 f   libucrtd:per_thread_data.obj
 0001:0003ae90       ?construct_ptd_array@@YAXQAU__acrt_ptd@@@Z 1003be90 f   libucrtd:per_thread_data.obj
 0001:0003aee0       ?destroy_fls@@YGXPAX@Z     1003bee0 f   libucrtd:per_thread_data.obj
 0001:0003af10       ?destroy_ptd@@YAXQAU__acrt_ptd@@@Z 1003bf10 f   libucrtd:per_thread_data.obj
 0001:0003b010       ?destroy_ptd_array@@YAXQAU__acrt_ptd@@@Z 1003c010 f   libucrtd:per_thread_data.obj
 0001:0003b080       ?internal_get_ptd_head@@YAPAU__acrt_ptd@@XZ 1003c080 f   libucrtd:per_thread_data.obj
 0001:0003b140       ?internal_getptd_noexit@@YAPAU__acrt_ptd@@XZ 1003c140 f   libucrtd:per_thread_data.obj
 0001:0003b1d0       ?replace_current_thread_locale_nolock@@YAXQAU__acrt_ptd@@QAU__crt_locale_data@@@Z 1003c1d0 f   libucrtd:per_thread_data.obj
 0001:0003b250       ?try_get_ptd_head@@YAPAU__acrt_ptd@@XZ 1003c250 f   libucrtd:per_thread_data.obj
 0001:0003b470       ?invalid_function_sentinel@@YAPAXXZ 1003c470 f   libucrtd:winapi_thunks.obj
 0001:0003b480       ?try_get_FlsAlloc@@YAP6GKP6GXPAX@Z@ZXZ 1003c480 f   libucrtd:winapi_thunks.obj
 0001:0003b4a0       ?try_get_FlsFree@@YAP6GHK@ZXZ 1003c4a0 f   libucrtd:winapi_thunks.obj
 0001:0003b4c0       ?try_get_FlsGetValue@@YAP6GPAXK@ZXZ 1003c4c0 f   libucrtd:winapi_thunks.obj
 0001:0003b4e0       ?try_get_FlsSetValue@@YAP6GHKPAX@ZXZ 1003c4e0 f   libucrtd:winapi_thunks.obj
 0001:0003b500       ?try_get_GetActiveWindow@@YAP6GPAUHWND__@@XZXZ 1003c500 f   libucrtd:winapi_thunks.obj
 0001:0003b520       ?try_get_GetCurrentPackageId@@YAP6GJPAIPAE@ZXZ 1003c520 f   libucrtd:winapi_thunks.obj
 0001:0003b540       ?try_get_GetLastActivePopup@@YAP6GPAUHWND__@@PAU1@@ZXZ 1003c540 f   libucrtd:winapi_thunks.obj
 0001:0003b560       ?try_get_GetProcessWindowStation@@YAP6GPAUHWINSTA__@@XZXZ 1003c560 f   libucrtd:winapi_thunks.obj
 0001:0003b580       ?try_get_GetUserObjectInformationW@@YAP6GHPAXH0KPAK@ZXZ 1003c580 f   libucrtd:winapi_thunks.obj
 0001:0003b5a0       ?try_get_InitializeCriticalSectionEx@@YAP6GHPAU_RTL_CRITICAL_SECTION@@KK@ZXZ 1003c5a0 f   libucrtd:winapi_thunks.obj
 0001:0003b5c0       ?try_get_LCMapStringEx@@YAP6GHPB_WK0HPA_WHPAU_nlsversioninfo@@PAXJ@ZXZ 1003c5c0 f   libucrtd:winapi_thunks.obj
 0001:0003b5e0       ?try_get_LocaleNameToLCID@@YAP6GKPB_WK@ZXZ 1003c5e0 f   libucrtd:winapi_thunks.obj
 0001:0003b600       ?try_get_MessageBoxA@@YAP6GHPAUHWND__@@PBD1I@ZXZ 1003c600 f   libucrtd:winapi_thunks.obj
 0001:0003b620       ?try_get_MessageBoxW@@YAP6GHPAUHWND__@@PB_W1I@ZXZ 1003c620 f   libucrtd:winapi_thunks.obj
 0001:0003b640       ?try_get_first_available_module@@YAPAUHINSTANCE__@@QBW4module_id@?A0x391cf84c@@0@Z 1003c640 f   libucrtd:winapi_thunks.obj
 0001:0003b690       ?try_get_function@@YAPAXW4function_id@?A0x391cf84c@@QBDQBW4module_id@2@2@Z 1003c690 f   libucrtd:winapi_thunks.obj
 0001:0003b7d0       ?try_get_module@@YAPAUHINSTANCE__@@W4module_id@?A0x391cf84c@@@Z 1003c7d0 f   libucrtd:winapi_thunks.obj
 0001:0003b8e0       ?try_get_proc_address_from_first_available_module@@YAPAXQBDQBW4module_id@?A0x391cf84c@@1@Z 1003c8e0 f   libucrtd:winapi_thunks.obj
 0001:0003b920       ?try_load_library_from_system_directory@@YAPAUHINSTANCE__@@QB_W@Z 1003c920 f   libucrtd:winapi_thunks.obj
 0001:0003c130       ??0<lambda_3f8189bce64b4997e9cacee8178dce4a>@@QAE@ABQAU__acrt_ptd@@ABQAPAU__crt_multibyte_data@@@Z 1003d130 f   libucrtd:mbctype.obj
 0001:0003c130       ??0<lambda_942beefa13ab35ff55f86422493ffd6a>@@QAE@ABQAU_onexit_table_t@@ABQ6AHXZ@Z 1003d130 f   libucrtd:onexit.obj
 0001:0003c130       ??0<lambda_b2ea41f6bbb362cd97d94c6828d90b61>@@QAE@ABQAU__acrt_ptd@@ABQAPAU__crt_locale_data@@@Z 1003d130 f   libucrtd:per_thread_data.obj
 0001:0003c180       ??R<lambda_3f8189bce64b4997e9cacee8178dce4a>@@QBEXXZ 1003d180 f   libucrtd:mbctype.obj
 0001:0003c250       ?CPtoLocaleName@@YAPB_WH@Z 1003d250 f   libucrtd:mbctype.obj
 0001:0003c2c4       $LN10                      1003d2c4     libucrtd:mbctype.obj
 0001:0003c2d8       $LN9                       1003d2d8     libucrtd:mbctype.obj
 0001:0003c300       ?getSystemCP@@YAHH@Z       1003d300 f   libucrtd:mbctype.obj
 0001:0003c400       ?setSBCS@@YAXPAU__crt_multibyte_data@@@Z 1003d400 f   libucrtd:mbctype.obj
 0001:0003c4e0       ?setSBUpLow@@YAXPAU__crt_multibyte_data@@@Z 1003d4e0 f   libucrtd:mbctype.obj
 0001:0003c840       ?setmbcp_internal@@YAHH_NQAU__acrt_ptd@@QAPAU__crt_multibyte_data@@@Z 1003d840 f   libucrtd:mbctype.obj
 0001:0003ca00       ?update_thread_multibyte_data_internal@@YAPAU__crt_multibyte_data@@QAU__acrt_ptd@@QAU1@@Z 1003da00 f   libucrtd:mbctype.obj
 0001:0003cf60       _memcpy_s                  1003df60 f   libucrtd:assert.obj
 0001:0003cf60       _memcpy_s                  1003df60 f   libucrtd:mbctype.obj
 0001:0003cf60       _memcpy_s                  1003df60 f   libucrtd:cfout.obj
 0001:0003d06a       ?find_end_of_double_null_terminated_sequence@@YAPB_WQB_W@Z 1003e06a f   libucrtd:get_environment_from_os.obj
 0001:0003d190       ?get_std_handle_id@@YAKH@Z 1003e190 f   libucrtd:ioinit.obj
 0001:0003d1d0       ?initialize_inherited_file_handles_nolock@@YAXXZ 1003e1d0 f   libucrtd:ioinit.obj
 0001:0003d300       ?initialize_stdio_handles_nolock@@YAXXZ 1003e300 f   libucrtd:ioinit.obj
 0001:0003da50       ?select_heap@@YAPAXQAX@Z   1003ea50 f   libucrtd:free_base.obj
 0001:0003dde0       ?is_lfh_enabled@@YA_NXZ    1003ede0 f   libucrtd:expand.obj
 0001:0003e110       ??0<lambda_f7496a158712204296dd6628a163878e>@@QAE@ABW4__acrt_lock_id@@@Z 1003f110 f   libucrtd:signal.obj
 0001:0003e110       ??0<lambda_1a39be00af773e7199199dafcba04cc5>@@QAE@ABQAU_iobuf@@@Z 1003f110 f   libucrtd:setvbuf.obj
 0001:0003e110       ??0<lambda_821a00fc0e15a7fd532972332124005d>@@QAE@ABW4__acrt_lock_id@@@Z 1003f110 f   libucrtd:onexit.obj
 0001:0003e110       ??0<lambda_3ab53bf64df1f1ff33dbc5b1929ce7a7>@@QAE@ABW4__acrt_lock_id@@@Z 1003f110 f   libucrtd:onexit.obj
 0001:0003e110       ??0<lambda_9df27f884b057bc3edfc946cb5b7cf47>@@QAE@ABW4__acrt_lock_id@@@Z 1003f110 f   libucrtd:per_thread_data.obj
 0001:0003e110       ??0<lambda_a048d3beccc847880fc8490e18b82769>@@QAE@ABW4__acrt_lock_id@@@Z 1003f110 f   libucrtd:signal.obj
 0001:0003e110       ??0<lambda_c58464cc0393550ab06f01720b646001>@@QAE@ABQAU_iobuf@@@Z 1003f110 f   libucrtd:setvbuf.obj
 0001:0003e110       ??0<lambda_d80abc18c428629cddc270f096dcc61b>@@QAE@ABW4__acrt_lock_id@@@Z 1003f110 f   libucrtd:mbctype.obj
 0001:0003e110       ??0<lambda_fdb30781f88e85fcd814d1d789f55c14>@@QAE@ABW4__acrt_lock_id@@@Z 1003f110 f   libucrtd:mbctype.obj
 0001:0003e110       ??0<lambda_a12890e7f9ac9927a62bd0bbd5044c78>@@QAE@ABW4__acrt_lock_id@@@Z 1003f110 f   libucrtd:onexit.obj
 0001:0003e110       ??0<lambda_e618b16d59e79e236350cab8485990d2>@@QAE@ABW4__acrt_lock_id@@@Z 1003f110 f   libucrtd:onexit.obj
 0001:0003e110       ??0<lambda_952b238c83a62ef8e81c72265e1e9aa0>@@QAE@ABW4__acrt_lock_id@@@Z 1003f110 f   libucrtd:per_thread_data.obj
 0001:0003e110       ??0<lambda_7923d86c9e3f319b415918ec4b39749c>@@QAE@ABQAU_iobuf@@@Z 1003f110 f   libucrtd:output.obj
 0001:0003e110       ??0<lambda_84d84f98815add542a0d6e6ca338feb2>@@QAE@ABW4__acrt_lock_id@@@Z 1003f110 f   libucrtd:per_thread_data.obj
 0001:0003e110       ??0<lambda_abdedf541bb04549bc734292b4a045d4>@@QAE@ABW4__acrt_lock_id@@@Z 1003f110 f   libucrtd:per_thread_data.obj
 0001:0003e110       ??0<lambda_3518db117f0e7cdb002338c5d3c47b6c>@@QAE@ABW4__acrt_lock_id@@@Z 1003f110 f   libucrtd:per_thread_data.obj
 0001:0003e110       ??0<lambda_ab9923ffb5d694ec0d78876dd103e44f>@@QAE@ABQAU_iobuf@@@Z 1003f110 f   libucrtd:output.obj
 0001:0003e110       ??0<lambda_5b71d36f03204c0beab531769a5b5694>@@QAE@ABW4__acrt_lock_id@@@Z 1003f110 f   libucrtd:per_thread_data.obj
 0001:0003e110       ??0<lambda_a7d5e04a8e766f2a135287cf7b01dfe7>@@QAE@ABH@Z 1003f110 f   libucrtd:commit.obj
 0001:0003e110       ??0<lambda_8f70eeb8060c49130c088d3137313000>@@QAE@ABW4__acrt_lock_id@@@Z 1003f110 f   libucrtd:wsetlocale.obj
 0001:0003e110       ??0<lambda_14e08a59e78d15c51edeee53d25fb3be>@@QAE@ABH@Z 1003f110 f   libucrtd:commit.obj
 0001:0003e110       ??0<lambda_4d8dda1ac129e11742d77ae5e3bbda74>@@QAE@ABH@Z 1003f110 f   libucrtd:close.obj
 0001:0003e110       ??0<lambda_8f9ce462984622f9bf76b59e2aaaf805>@@QAE@ABW4__acrt_lock_id@@@Z 1003f110 f   libucrtd:per_thread_data.obj
 0001:0003e110       ??0<lambda_cc0d902bcbbeb830f749456577db4721>@@QAE@ABW4__acrt_lock_id@@@Z 1003f110 f   libucrtd:per_thread_data.obj
 0001:0003e110       ??0<lambda_5193b64c98d743723bd5dcf162a72339>@@QAE@ABH@Z 1003f110 f   libucrtd:close.obj
 0001:0003e110       ??0<lambda_4393c4b5ef78814305fd0c1b31d2e9a8>@@QAE@ABW4__acrt_lock_id@@@Z 1003f110 f   libucrtd:wsetlocale.obj
 0001:0003e130       ??R<lambda_6b129e2e150a224552ea232eca9364df>@@QBEXAAPAU__crt_locale_data@@@Z 1003f130 f   libucrtd:wsetlocale.obj
 0001:0003e170       ??R<lambda_85fa512c59a4d94d4a89f575eefd92a6>@@QBEXXZ 1003f170 f   libucrtd:wsetlocale.obj
 0001:0003f550       ?fast_check@@YAHHH@Z       10040550 f   libucrtd:_ctype.obj
 0001:0003f5f0       ??$common_tox_l@$1?internal_isupper_l@@YA_NHQAU__crt_locale_pointers@@@Z$1?internal_map_lower@@YAHH0@Z@@YAHHKQAU__crt_locale_pointers@@@Z 100405f0 f   libucrtd:tolower_toupper.obj
 0001:0003f800       ?internal_isupper_l@@YA_NHQAU__crt_locale_pointers@@@Z 10040800 f   libucrtd:tolower_toupper.obj
 0001:0003f840       ?internal_map_lower@@YAHHQAU__crt_locale_pointers@@@Z 10040840 f   libucrtd:tolower_toupper.obj
 0001:0003ff90       ??$common_strnlen@E@@YAIQBEI@Z 10040f90 f   libucrtd:strnlen.obj
 0001:0003ffe0       ??$common_strnlen@G@@YAIQBGI@Z 10040fe0 f   libucrtd:strnlen.obj
 0001:00040030       ??$common_strnlen_c@E@@YAIQBEI@Z 10041030 f   libucrtd:strnlen.obj
 0001:00040070       ??$common_strnlen_c@G@@YAIQBGI@Z 10041070 f   libucrtd:strnlen.obj
 0001:000400c0       ??$common_strnlen_simd@$00E@@YAIQBEI@Z 100410c0 f   libucrtd:strnlen.obj
 0001:00040270       ??$common_strnlen_simd@$00G@@YAIQBGI@Z 10041270 f   libucrtd:strnlen.obj
 0001:00040430       ??$common_strnlen_simd@$0A@E@@YAIQBEI@Z 10041430 f   libucrtd:strnlen.obj
 0001:000405c0       ??$common_strnlen_simd@$0A@G@@YAIQBGI@Z 100415c0 f   libucrtd:strnlen.obj
 0001:00040af0       ?fp_format_a@@YAHQBNPADIQADIH_NIQAU__crt_locale_pointers@@@Z 10041af0 f   libucrtd:cvt.obj
 0001:000411c0       ?fp_format_e@@YAHQBNQADI1IH_NIQAU__crt_locale_pointers@@@Z 100421c0 f   libucrtd:cvt.obj
 0001:000412d0       ?fp_format_e_internal@@YAHQADIH_NIQAU_strflt@@1QAU__crt_locale_pointers@@@Z 100422d0 f   libucrtd:cvt.obj
 0001:000415b0       ?fp_format_f@@YAHQBNQADI1IHQAU__crt_locale_pointers@@@Z 100425b0 f   libucrtd:cvt.obj
 0001:00041690       ?fp_format_f_internal@@YAHQADIHQAU_strflt@@_NQAU__crt_locale_pointers@@@Z 10042690 f   libucrtd:cvt.obj
 0001:00041820       ?fp_format_g@@YAHQBNQADI1IH_NIQAU__crt_locale_pointers@@@Z 10042820 f   libucrtd:cvt.obj
 0001:00041980       ?fp_format_nan_or_infinity@@YAHW4__acrt_fp_class@@_NPADI1@Z 10042980 f   libucrtd:cvt.obj
 0001:00041b10       ?shift_bytes@@YAXQADI0H@Z  10042b10 f   libucrtd:cvt.obj
 0001:00041f30       $LN34                      10042f30     libucrtd:cvt.obj
 0001:00041f44       $LN33                      10042f44     libucrtd:cvt.obj
 0001:00041f70       ?fputwc_binary_nolock@@YAG_WV__crt_stdio_stream@@@Z 10042f70 f   libucrtd:fputwc.obj
 0001:000423c0       ___get_abstract_control_sse2 100433c0 f   libucrtd:_fenvutils.obj
 0001:000424a0       ___get_abstract_control_x87 100434a0 f   libucrtd:_fenvutils.obj
 0001:00042570       ___get_abstract_status_sse2 10043570 f   libucrtd:_fenvutils.obj
 0001:000425f0       ___get_abstract_status_x87 100435f0 f   libucrtd:_fenvutils.obj
 0001:00042670       ___get_machine_control     10043670 f   libucrtd:_fenvutils.obj
 0001:00042740       ___get_machine_control_sse2 10043740 f   libucrtd:_fenvutils.obj
 0001:00042820       ___get_machine_status_sse2 10043820 f   libucrtd:_fenvutils.obj
 0001:000428c0       ___get_machine_status_x87  100438c0 f   libucrtd:_fenvutils.obj
 0001:00042b80       ??$common_tcsncpy_s@_W@@YAHQA_WIQB_WI@Z 10043b80 f   libucrtd:wcsncpy_s.obj
 0001:000432a0       ??R<lambda_4d8dda1ac129e11742d77ae5e3bbda74>@@QBEXXZ 100442a0 f   libucrtd:close.obj
 0001:000432a0       ??R<lambda_a7d5e04a8e766f2a135287cf7b01dfe7>@@QBEXXZ 100442a0 f   libucrtd:commit.obj
 0001:000432c0       ??R<lambda_e9ab68cc08dfd839979545c079379e6e>@@QBEHXZ 100442c0 f   libucrtd:commit.obj
 0001:000434c0       ?write_binary_nolock@@YA?AUwrite_result@?A0x17268360@@HQBDI@Z 100444c0 f   libucrtd:write.obj
 0001:00043550       ?write_double_translated_ansi_nolock@@YA?AUwrite_result@?A0x17268360@@HQBDI@Z 10044550 f   libucrtd:write.obj
 0001:00043960       ?write_double_translated_unicode_nolock@@YA?AUwrite_result@?A0x17268360@@QBDI@Z 10044960 f   libucrtd:write.obj
 0001:00043a70       ?write_requires_double_translation_nolock@@YA_NH@Z 10044a70 f   libucrtd:write.obj
 0001:00043b50       ?write_text_ansi_nolock@@YA?AUwrite_result@?A0x17268360@@HQBDI@Z 10044b50 f   libucrtd:write.obj
 0001:00043d50       ?write_text_utf16le_nolock@@YA?AUwrite_result@?A0x17268360@@HQBDI@Z 10044d50 f   libucrtd:write.obj
 0001:00043f60       ?write_text_utf8_nolock@@YA?AUwrite_result@?A0x17268360@@HQBDI@Z 10044f60 f   libucrtd:write.obj
 0001:00044a60       $LN18                      10045a60     libucrtd:87except.obj
 0001:00044a80       $$000000                   10045a80     libucrtd:acos_pentium4.obj
 0001:00044fe0       $$000000                   10045fe0     libucrtd:genexcep.obj
 0001:00045040       $$000000                   10046040     libucrtd:common.obj
 0001:000451d0       $$000000                   100461d0     libucrtd:cos_pentium4.obj
 0001:00045380       $$000000                   10046380     libucrtd:pow_pentium4.obj
 0001:00045ea0       $$000000                   10046ea0     libucrtd:87tran.obj
 0001:000462d0       $$000000                   100472d0     libucrtd:sin_pentium4.obj
 0001:00046ba0       ?GetTableIndexFromLocaleName@@YAHPB_W@Z 10047ba0 f   libucrtd:lcidtoname_downlevel.obj
 0001:00046c30       ?__wcsnicmp_ascii@@YAHPB_W0I@Z 10047c30 f   libucrtd:lcidtoname_downlevel.obj
 0001:00046d40       ?initialize_multibyte@@YAHXZ 10047d40 f   libucrtd:multibyte_initializer.obj
 0001:00047030       ?__acrt_LCMapStringA_stat@@YAHPAU__crt_locale_pointers@@PB_WKPBDHPADHHH@Z 10048030 f   libucrtd:lcmapstringa.obj
 0001:00047e60       ??$free_crt_array@_W$01@@YAXAAY01PA_W@Z 10048e60 f   libucrtd:inittime.obj
 0001:00047e60       ??$free_crt_array@D$01@@YAXAAY01PAD@Z 10048e60 f   libucrtd:inittime.obj
 0001:00047e80       ??$free_crt_array@D$06@@YAXAAY06PAD@Z 10048e80 f   libucrtd:inittime.obj
 0001:00047e80       ??$free_crt_array@_W$06@@YAXAAY06PA_W@Z 10048e80 f   libucrtd:inittime.obj
 0001:00047ea0       ??$free_crt_array@_W$0M@@@YAXAAY0M@PA_W@Z 10048ea0 f   libucrtd:inittime.obj
 0001:00047ea0       ??$free_crt_array@D$0M@@@YAXAAY0M@PAD@Z 10048ea0 f   libucrtd:inittime.obj
 0001:00047ec0       ?free_crt_array_internal@@YAXQAPBXI@Z 10048ec0 f   libucrtd:inittime.obj
 0001:00048050       ?_mbstowcs_l_helper@@YAIPA_WPBDIPAU__crt_locale_pointers@@@Z 10049050 f   libucrtd:mbstowcs.obj
 0001:000487d0       ?_wcstombs_l_helper@@YAIPADPB_WIPAU__crt_locale_pointers@@@Z 100497d0 f   libucrtd:wcstombs.obj
 0001:00048dd0       ?wcsncnt@@YAIPB_WI@Z       10049dd0 f   libucrtd:wcstombs.obj
 0001:000494e0       ??$convert_to_fos_high_precision@N@@YAXNIQAHQADI@Z 1004a4e0 f   libucrtd:cfout.obj
 0001:0004b618       $LN15                      1004c618     libucrtd:cfout.obj
 0001:0004b630       ??$common_flush_and_write_nolock@D@@YAHHV__crt_stdio_stream@@@Z 1004c630 f   libucrtd:_flsbuf.obj
 0001:0004b810       ??$common_flush_and_write_nolock@_W@@YAHHV__crt_stdio_stream@@@Z 1004c810 f   libucrtd:_flsbuf.obj
 0001:0004ba00       ??$write_buffer_nolock@D@@YA_NDV__crt_stdio_stream@@@Z 1004ca00 f   libucrtd:_flsbuf.obj
 0001:0004bbb0       ??$write_buffer_nolock@_W@@YA_N_WV__crt_stdio_stream@@@Z 1004cbb0 f   libucrtd:_flsbuf.obj
 0001:0004c050       ??$common_lseek@_J@@YA_JH_JH@Z 1004d050 f   libucrtd:lseek.obj
 0001:0004c2b0       ??$common_lseek_nolock@_J@@YA_JH_JH@Z 1004d2b0 f   libucrtd:lseek.obj
 0001:0004c380       ?common_lseek_do_seek_nolock@@YA_JQAX_JH@Z 1004d380 f   libucrtd:lseek.obj
 0001:0004c5b0       $$000000                   1004d5b0     libucrtd:log10.obj
 0001:0004c9e0       ??R<lambda_5193b64c98d743723bd5dcf162a72339>@@QBEXXZ 1004d9e0 f   libucrtd:close.obj
 0001:0004c9e0       ??R<lambda_14e08a59e78d15c51edeee53d25fb3be>@@QBEXXZ 1004d9e0 f   libucrtd:commit.obj
 0001:0004ca00       ??R<lambda_a8f98972ebaa5f7148d35bffe53bd70d>@@QBEHXZ 1004da00 f   libucrtd:close.obj
 0001:0004ca80       ?close_os_handle_nolock@@YAKH@Z 1004da80 f   libucrtd:close.obj
 0001:0004cdf0       $$000000                   1004ddf0     libucrtd:_strnicm.obj
 0001:0004ce60       $$000000                   1004de60     libucrtd:log10_pentium4.obj
 0001:0004d0f0       ___abstract_sw_sse2        1004e0f0 f   libucrtd:ieee87.obj
 0001:0004d180       ___clearfp_sse2            1004e180 f   libucrtd:ieee87.obj
 0001:0004d1b0       __abstract_sw              1004e1b0 f   libucrtd:ieee87.obj
 0001:0004d4a0       $$000000                   1004e4a0     LIBCMTD:llshl.obj
 0001:0004d4c0       $$000000                   1004e4c0     LIBCMTD:ulldiv.obj
 0001:0004d530       $$000000                   1004e530     LIBCMTD:ullrem.obj
 0001:0004d600       $$000000                   1004e600     LIBCMTD:chkstk.obj
 0001:0004d630       $$000000                   1004e630     LIBCMTD:llmul.obj
 0001:0004d670       $$000000                   1004e670     LIBCMTD:lldiv.obj
 0001:0004d720       $$000000                   1004e720     LIBCMTD:llrem.obj
 0001:0004d7e0       $$000000                   1004e7e0     LIBCMTD:ullshr.obj
 0001:0004d800       $$000000                   1004e800     LIBCMTD:_sehprolg4_.obj
 0001:0004d8a0       $$000000                   1004e8a0     libvcruntimed:strchr.obj
 0001:0004d9d0       $$000000                   1004e9d0     libvcruntimed:memmove.obj
 0001:0004dc34       TrailingUpVec              1004ec34     libvcruntimed:memmove.obj
 0001:0004dce0       TrailingDownVec            1004ece0     libvcruntimed:memmove.obj
 0001:0004df50       $$000000                   1004ef50     libvcruntimed:strrchr.obj
 0001:0004e500       $$000000                   1004f500     libvcruntimed:lowhelpr.obj
 0001:0004e840       ?CallCatchBlock@@YAPAXPAUEHExceptionRecord@@PAUEHRegistrationNode@@PAU_CONTEXT@@PBU_s_FuncInfo@@PAXHK@Z 1004f840 f   libvcruntimed:frame.obj
 0001:0004ead0       ?CallUnexpected@@YAXPBU_s_ESTypeList@@@Z 1004fad0 f   libvcruntimed:frame.obj
 0001:0004eb17       __catch$?CallUnexpected@@YAXPBU_s_ESTypeList@@@Z$0 1004fb17 f   libvcruntimed:frame.obj
 0001:0004eb60       ?CatchIt@@YAXPAUEHExceptionRecord@@PAUEHRegistrationNode@@PAU_CONTEXT@@PAXPBU_s_FuncInfo@@PBU_s_HandlerType@@PBU_s_CatchableType@@PBU_s_TryBlockMapEntry@@H1E@Z 1004fb60 f   libvcruntimed:frame.obj
 0001:0004ec20       ?ExFilterRethrow@@YAHPAU_EXCEPTION_POINTERS@@@Z 1004fc20 f   libvcruntimed:frame.obj
 0001:0004ec90       ?FindHandler@@YAXPAUEHExceptionRecord@@PAUEHRegistrationNode@@PAU_CONTEXT@@PAXPBU_s_FuncInfo@@EH1@Z 1004fc90 f   libvcruntimed:frame.obj
 0001:0004f150       ?FindHandlerForForeignException@@YAXPAUEHExceptionRecord@@PAUEHRegistrationNode@@PAU_CONTEXT@@PAXPBU_s_FuncInfo@@HH1@Z 10050150 f   libvcruntimed:frame.obj
 0001:0004f2e0       ?IsInExceptionSpec@@YAEPAUEHExceptionRecord@@PBU_s_ESTypeList@@@Z 100502e0 f   libvcruntimed:frame.obj
 0001:0004f3a0       ?Is_bad_exception_allowed@@YAEPBU_s_ESTypeList@@@Z 100503a0 f   libvcruntimed:frame.obj
 0001:00050000       __unwindfunclet$?fp_format_a@@YAHQBNPADIQADIH_NIQAU__crt_locale_pointers@@@Z$0 10051000 f   libucrtd:cvt.obj
 0001:0005000b       __ehhandler$?fp_format_a@@YAHQBNPADIQADIH_NIQAU__crt_locale_pointers@@@Z 1005100b f   libucrtd:cvt.obj
 0001:00050030       __unwindfunclet$?_wcstombs_l_helper@@YAIPADPB_WIPAU__crt_locale_pointers@@@Z$0 10051030 f   libucrtd:wcstombs.obj
 0001:00050038       __ehhandler$?_wcstombs_l_helper@@YAIPADPB_WIPAU__crt_locale_pointers@@@Z 10051038 f   libucrtd:wcstombs.obj
 0001:00050060       __ehhandler$?CallUnexpected@@YAXPBU_s_ESTypeList@@@Z 10051060 f   libvcruntimed:frame.obj
 0002:00000190       $SG100357                  10052190     app.obj
 0002:000001c8       $SG100358                  100521c8     app.obj
 0002:000001e4       $SG100363                  100521e4     app.obj
 0002:0000021c       $SG99339                   1005221c     app.obj
 0002:00000254       $SG100364                  10052254     app.obj
 0002:0000027c       $SG99340                   1005227c     app.obj
 0002:00000280       $SG101509                  10052280     app.obj
 0002:000002b8       $SG101510                  100522b8     app.obj
 0002:000002c8       $SG101610                  100522c8     app.obj
 0002:000002d0       $SG101663                  100522d0     app.obj
 0002:000002d8       $SG101665                  100522d8     app.obj
 0002:000002e0       $SG99634                   100522e0     app.obj
 0002:00000318       $SG99635                   10052318     app.obj
 0002:0000037c       $SG99754                   1005237c     app.obj
 0002:000003b4       $SG99755                   100523b4     app.obj
 0002:000003b8       $SG100785                  100523b8     app.obj
 0002:000003f0       $SG100786                  100523f0     app.obj
 0002:00000404       $SG100787                  10052404     app.obj
 0002:0000043c       $SG100788                  1005243c     app.obj
 0002:00000450       $SG99789                   10052450     app.obj
 0002:00000488       $SG98765                   10052488     app.obj
 0002:000004c0       $SG99790                   100524c0     app.obj
 0002:000004c4       $SG98766                   100524c4     app.obj
 0002:000004f4       $SG98782                   100524f4     app.obj
 0002:0000052c       $SG98783                   1005252c     app.obj
 0002:00000550       $SG98793                   10052550     app.obj
 0002:00000588       $SG98794                   10052588     app.obj
 0002:000005ac       $SG98814                   100525ac     app.obj
 0002:000005e4       $SG98815                   100525e4     app.obj
 0002:00000620       $SG98831                   10052620     app.obj
 0002:00000658       $SG98832                   10052658     app.obj
 0002:0000065c       $SG98842                   1005265c     app.obj
 0002:00000694       $SG98843                   10052694     app.obj
 0002:000006a8       $SG99868                   100526a8     app.obj
 0002:000006e0       $SG99869                   100526e0     app.obj
 0002:0000071c       $SG99875                   1005271c     app.obj
 0002:00000754       $SG99876                   10052754     app.obj
 0002:00000788       $SG99877                   10052788     app.obj
 0002:000007c0       $SG99878                   100527c0     app.obj
 0002:000007f4       $SG99883                   100527f4     app.obj
 0002:0000082c       $SG99884                   1005282c     app.obj
 0002:00000830       $SG100916                  10052830     app.obj
 0002:00000868       $SG100917                  10052868     app.obj
 0002:0000088c       $SG100918                  1005288c     app.obj
 0002:000008c4       $SG100919                  100528c4     app.obj
 0002:000008e8       $SG98891                   100528e8     app.obj
 0002:00000920       $SG98892                   10052920     app.obj
 0002:00000948       $SG98893                   10052948     app.obj
 0002:00000980       $SG98894                   10052980     app.obj
 0002:000009bc       $SG99923                   100529bc     app.obj
 0002:000009c4       $SG98912                   100529c4     app.obj
 0002:000009cc       $SG98913                   100529cc     app.obj
 0002:000009d4       $SG98914                   100529d4     app.obj
 0002:000009dc       $SG98915                   100529dc     app.obj
 0002:000009e4       $SG98917                   100529e4     app.obj
 0002:000009ec       $SG98918                   100529ec     app.obj
 0002:000009f4       $SG98919                   100529f4     app.obj
 0002:000009fc       $SG98920                   100529fc     app.obj
 0002:00000a04       $SG98923                   10052a04     app.obj
 0002:00000a0c       $SG98924                   10052a0c     app.obj
 0002:00000a14       $SG98925                   10052a14     app.obj
 0002:00000a1c       $SG100974                  10052a1c     app.obj
 0002:00000a54       $SG98926                   10052a54     app.obj
 0002:00000a5c       $SG100975                  10052a5c     app.obj
 0002:00000a7c       $SG98947                   10052a7c     app.obj
 0002:00000a84       $SG98948                   10052a84     app.obj
 0002:00000a8c       $SG98949                   10052a8c     app.obj
 0002:00000a94       $SG98950                   10052a94     app.obj
 0002:00000a9c       $SG98959                   10052a9c     app.obj
 0002:00000aa4       $SG98960                   10052aa4     app.obj
 0002:00000aac       $SG98961                   10052aac     app.obj
 0002:00000ab4       $SG98962                   10052ab4     app.obj
 0002:00000abc       $SG101024                  10052abc     app.obj
 0002:00000af4       $SG101025                  10052af4     app.obj
 0002:00000b34       $SG98985                   10052b34     app.obj
 0002:00000b3c       $SG97995                   10052b3c     app.obj
 0002:00000b4c       $SG99026                   10052b4c     app.obj
 0002:00000b54       $SG99027                   10052b54     app.obj
 0002:00000b5c       $SG99028                   10052b5c     app.obj
 0002:00000b64       $SG99029                   10052b64     app.obj
 0002:00000b6c       $SG99030                   10052b6c     app.obj
 0002:00000b74       $SG99031                   10052b74     app.obj
 0002:00000b7c       $SG99032                   10052b7c     app.obj
 0002:00000b84       $SG99033                   10052b84     app.obj
 0002:00000b8c       $SG99039                   10052b8c     app.obj
 0002:00000b94       $SG99045                   10052b94     app.obj
 0002:00000b9c       $SG98023                   10052b9c     app.obj
 0002:00000bac       $SG99105                   10052bac     app.obj
 0002:00000be4       $SG99106                   10052be4     app.obj
 0002:00000be8       $SG99112                   10052be8     app.obj
 0002:00000c20       $SG99113                   10052c20     app.obj
 0002:00000c90       $SG98090                   10052c90     app.obj
 0002:00000c94       $SG100148                  10052c94     app.obj
 0002:00000ccc       $SG99124                   10052ccc     app.obj
 0002:00000d04       $SG100149                  10052d04     app.obj
 0002:00000d14       $SG99125                   10052d14     app.obj
 0002:00000d18       $SG99151                   10052d18     app.obj
 0002:00000d50       $SG99152                   10052d50     app.obj
 0002:00000d70       $SG100177                  10052d70     app.obj
 0002:00000da8       $SG100178                  10052da8     app.obj
 0002:00000db8       $SG100179                  10052db8     app.obj
 0002:00000df0       $SG100180                  10052df0     app.obj
 0002:00000e10       $SG100187                  10052e10     app.obj
 0002:00000e48       $SG100188                  10052e48     app.obj
 0002:00000e5c       $SG100191                  10052e5c     app.obj
 0002:00000e94       $SG100192                  10052e94     app.obj
 0002:00000ea4       $SG100195                  10052ea4     app.obj
 0002:00000edc       $SG100196                  10052edc     app.obj
 0002:00000eec       $SG100199                  10052eec     app.obj
 0002:00000f24       $SG100200                  10052f24     app.obj
 0002:00000f38       $SG100201                  10052f38     app.obj
 0002:00000f70       $SG100202                  10052f70     app.obj
 0002:00000f9c       $SG100207                  10052f9c     app.obj
 0002:00000fd4       $SG100287                  10052fd4     app.obj
 0002:00000ff8       $SG100208                  10052ff8     app.obj
 0002:00001054       $SG100269                  10053054     app.obj
 0002:0000108c       $SG100270                  1005308c     app.obj
 0002:000010ac       $SG100276                  100530ac     app.obj
 0002:000010e4       $SG100290                  100530e4     app.obj
 0002:0000110c       $SG102341                  1005310c     app.obj
 0002:00001110       $SG100277                  10053110     app.obj
 0002:00001158       $SG100286                  10053158     app.obj
 0002:00001190       $SG100289                  10053190     app.obj
 0002:000011c8       $SG103364                  100531c8     app.obj
 0002:000011d8       $SG103365                  100531d8     app.obj
 0002:000011e8       $SG103392                  100531e8     app.obj
 0002:000011f8       $SG103393                  100531f8     app.obj
 0002:00001204       $SG103394                  10053204     app.obj
 0002:00001210       $SG103395                  10053210     app.obj
 0002:00001220       $SG103396                  10053220     app.obj
 0002:0000122c       $SG103397                  1005322c     app.obj
 0002:00001244       $SG103398                  10053244     app.obj
 0002:0000125c       $SG103399                  1005325c     app.obj
 0002:00001270       $SG103400                  10053270     app.obj
 0002:00001284       $SG104435                  10053284     app.obj
 0002:00001470       _Int32ToUInt32             10053470     LIBCMTD:_ftol3_.obj
 0002:00001478       _DP2to32                   10053478     LIBCMTD:_ftol3_.obj
 0002:00001480       _MantissaMask              10053480     LIBCMTD:_ftol3_.obj
 0002:00001488       _IntegerBit                10053488     LIBCMTD:_ftol3_.obj
 0002:00001490       _SignBit64                 10053490     LIBCMTD:_ftol3_.obj
 0002:00001498       _MinFP64                   10053498     LIBCMTD:_ftol3_.obj
 0002:000014a0       _MinInt64                  100534a0     LIBCMTD:_ftol3_.obj
 0002:000014a8       _MaxInt64                  100534a8     LIBCMTD:_ftol3_.obj
 0002:000014b0       _MaxUInt64                 100534b0     LIBCMTD:_ftol3_.obj
 0002:000014b8       _MaxFP32                   100534b8     LIBCMTD:_ftol3_.obj
 0002:000014c0       _MinFP32                   100534c0     LIBCMTD:_ftol3_.obj
 0002:000014c8       _MinSubInexact             100534c8     LIBCMTD:_ftol3_.obj
 0002:000014d0       _FpExcptTable              100534d0     LIBCMTD:_ftol3_.obj
 0002:000014e0       _i1075                     100534e0     LIBCMTD:_ftol3_.obj
 0002:000014e4       _i1087                     100534e4     LIBCMTD:_ftol3_.obj
 0002:000014e8       _x0800                     100534e8     LIBCMTD:_ftol3_.obj
 0002:000014ec       _x17FF                     100534ec     LIBCMTD:_ftol3_.obj
 0002:000014f0       _CWMask                    100534f0     LIBCMTD:_ftol3_.obj
 0002:000014f8       _GS_ExceptionPointers      100534f8     LIBCMTD:gs_report.obj
 0002:0000152c       ?module_names@?A0x1821e63c@@3QBQB_WB 1005352c     libvcruntimed:winapi_downlevel.obj
 0002:0000176c       ?candidate_modules@?1??try_get_EventRegister@@YAP6GKPBU_GUID@@P6GX0KE_K1PAU_EVENT_FILTER_DESCRIPTOR@@PAX@Z3PA_K@ZXZ@4QBW4module_id@?A0x1821e63c@@B 1005376c     libvcruntimed:winapi_downlevel.obj
 0002:00001780       ?candidate_modules@?1??try_get_EventSetInformation@@YAP6GK_KW4_EVENT_INFO_CLASS@@PAXK@ZXZ@4QBW4module_id@?A0x1821e63c@@B 10053780     libvcruntimed:winapi_downlevel.obj
 0002:00001798       ?candidate_modules@?1??try_get_EventUnregister@@YAP6GK_K@ZXZ@4QBW4module_id@?A0x1821e63c@@B 10053798     libvcruntimed:winapi_downlevel.obj
 0002:000017ac       ?candidate_modules@?1??try_get_EventWriteTransfer@@YAP6GK_KPBU_EVENT_DESCRIPTOR@@PBU_GUID@@2KPAU_EVENT_DATA_DESCRIPTOR@@@ZXZ@4QBW4module_id@?A0x1821e63c@@B 100537ac     libvcruntimed:winapi_downlevel.obj
 0002:000017c4       ?candidate_modules@?1??try_get_FlsAlloc@@YAP6GKP6GXPAX@Z@ZXZ@4QBW4module_id@?A0x1821e63c@@B 100537c4     libvcruntimed:winapi_downlevel.obj
 0002:000017d8       ?candidate_modules@?1??try_get_FlsFree@@YAP6GHK@ZXZ@4QBW4module_id@?A0x1821e63c@@B 100537d8     libvcruntimed:winapi_downlevel.obj
 0002:000017e8       ?candidate_modules@?1??try_get_FlsGetValue@@YAP6GPAXK@ZXZ@4QBW4module_id@?A0x1821e63c@@B 100537e8     libvcruntimed:winapi_downlevel.obj
 0002:000017fc       ?candidate_modules@?1??try_get_FlsSetValue@@YAP6GHKPAX@ZXZ@4QBW4module_id@?A0x1821e63c@@B 100537fc     libvcruntimed:winapi_downlevel.obj
 0002:00001810       ?candidate_modules@?1??try_get_InitializeCriticalSectionEx@@YAP6GHPAU_RTL_CRITICAL_SECTION@@KK@ZXZ@4QBW4module_id@?A0x1821e63c@@B 10053810     libvcruntimed:winapi_downlevel.obj
 0002:00001878       ?tokenTable@@3QBQBDB       10053878     libvcruntimed:undname.obj
 0002:000018b0       ?nameTable@@3QBQBDB        100538b0     libvcruntimed:undname.obj
 0002:000019f4       ?rttiTable@@3QBQBDB        100539f4     libvcruntimed:undname.obj
 0002:000033e0       Shifter                    100553e0     libucrtd:acos_sse2_precise.obj
 0002:000033f0       PI_BY_2                    100553f0     libucrtd:acos_sse2_precise.obj
 0002:00003400       NEG_PI                     10055400     libucrtd:acos_sse2_precise.obj
 0002:00003410       PI                         10055410     libucrtd:acos_sse2_precise.obj
 0002:00003420       SIGNMASK                   10055420     libucrtd:acos_sse2_precise.obj
 0002:00003430       HALFMASK                   10055430     libucrtd:acos_sse2_precise.obj
 0002:00003440       HALFMASK2                  10055440     libucrtd:acos_sse2_precise.obj
 0002:00003450       cv                         10055450     libucrtd:acos_sse2_precise.obj
 0002:00003470       cv2                        10055470     libucrtd:acos_sse2_precise.obj
 0002:000034b0       ABSVALMASK                 100554b0     libucrtd:acos_sse2_precise.obj
 0002:000034b8       TMASK                      100554b8     libucrtd:acos_sse2_precise.obj
 0002:000034c0       ONEMASK                    100554c0     libucrtd:acos_sse2_precise.obj
 0002:000034c8       ONE_BY_2                   100554c8     libucrtd:acos_sse2_precise.obj
 0002:000034d0       EMIN                       100554d0     libucrtd:acos_sse2_precise.obj
 0002:000034d8       MAX_ARG                    100554d8     libucrtd:acos_sse2_precise.obj
 0002:000034e0       MIN_ARG                    100554e0     libucrtd:acos_sse2_precise.obj
 0002:000034e8       INF                        100554e8     libucrtd:acos_sse2_precise.obj
 0002:000034f0       ZERO                       100554f0     libucrtd:acos_sse2_precise.obj
 0002:000034f8       ALPHA                      100554f8     libucrtd:acos_sse2_precise.obj
 0002:00003500       SC_1                       10055500     libucrtd:cos_sse2_precise.obj
 0002:00003510       SC_2                       10055510     libucrtd:cos_sse2_precise.obj
 0002:00003520       SC_3                       10055520     libucrtd:cos_sse2_precise.obj
 0002:00003530       SC_4                       10055530     libucrtd:cos_sse2_precise.obj
 0002:00003540       PI32INV                    10055540     libucrtd:cos_sse2_precise.obj
 0002:00003548       SHIFTER                    10055548     libucrtd:cos_sse2_precise.obj
 0002:00003550       P_2                        10055550     libucrtd:cos_sse2_precise.obj
 0002:00003560       P_1                        10055560     libucrtd:cos_sse2_precise.obj
 0002:00003568       P_3                        10055568     libucrtd:cos_sse2_precise.obj
 0002:00003570       TWO_POW_55                 10055570     libucrtd:cos_sse2_precise.obj
 0002:00003578       TWO_POW_M55                10055578     libucrtd:cos_sse2_precise.obj
 0002:00003580       ALL_ONES                   10055580     libucrtd:cos_sse2_precise.obj
 0002:00003588       NEG_ZERO                   10055588     libucrtd:cos_sse2_precise.obj
 0002:00003590       ONE                        10055590     libucrtd:cos_sse2_precise.obj
 0002:000035a0       SIGN_MASK                  100555a0     libucrtd:cos_sse2_precise.obj
 0002:000035b0       Shifter                    100555b0     libucrtd:pow_sse2_precise.obj
 0002:000035c0       SIGMASK                    100555c0     libucrtd:pow_sse2_precise.obj
 0002:000035d0       ONEMASK                    100555d0     libucrtd:pow_sse2_precise.obj
 0002:000035e0       ABSVALMASK                 100555e0     libucrtd:pow_sse2_precise.obj
 0002:000035f0       cev                        100555f0     libucrtd:pow_sse2_precise.obj
 0002:00003618       HALFSIG                    10055618     libucrtd:pow_sse2_precise.obj
 0002:00003620       LHN                        10055620     libucrtd:pow_sse2_precise.obj
 0002:00003628       sNaN                       10055628     libucrtd:pow_sse2_precise.obj
 0002:00003630       INF                        10055630     libucrtd:pow_sse2_precise.obj
 0002:00003638       NEG_INF                    10055638     libucrtd:pow_sse2_precise.obj
 0002:00003640       NEG_ZERO                   10055640     libucrtd:pow_sse2_precise.obj
 0002:00003648       NEG_BIG                    10055648     libucrtd:pow_sse2_precise.obj
 0002:00003650       POS_BIG                    10055650     libucrtd:pow_sse2_precise.obj
 0002:00003658       EMIN                       10055658     libucrtd:pow_sse2_precise.obj
 0002:00003660       QIND                       10055660     libucrtd:pow_sse2_precise.obj
 0002:00003670       SC_1                       10055670     libucrtd:sin_sse2_precise.obj
 0002:00003680       SC_2                       10055680     libucrtd:sin_sse2_precise.obj
 0002:00003690       SC_3                       10055690     libucrtd:sin_sse2_precise.obj
 0002:000036a0       SC_4                       100556a0     libucrtd:sin_sse2_precise.obj
 0002:000036b0       PI32INV                    100556b0     libucrtd:sin_sse2_precise.obj
 0002:000036b8       SHIFTER                    100556b8     libucrtd:sin_sse2_precise.obj
 0002:000036c0       P_2                        100556c0     libucrtd:sin_sse2_precise.obj
 0002:000036d0       P_1                        100556d0     libucrtd:sin_sse2_precise.obj
 0002:000036d8       P_3                        100556d8     libucrtd:sin_sse2_precise.obj
 0002:000036e0       TWO_POW_55                 100556e0     libucrtd:sin_sse2_precise.obj
 0002:000036e8       TWO_POW_M55                100556e8     libucrtd:sin_sse2_precise.obj
 0002:000036f0       ALL_ONES                   100556f0     libucrtd:sin_sse2_precise.obj
 0002:000036f8       NEG_ZERO                   100556f8     libucrtd:sin_sse2_precise.obj
 0002:00003700       ONE                        10055700     libucrtd:sin_sse2_precise.obj
 0002:00003710       _One                       10055710     libucrtd:ceil_pentium4.obj
 0002:00003720       _Bns                       10055720     libucrtd:ceil_pentium4.obj
 0002:00003730       _Zero                      10055730     libucrtd:ceil_pentium4.obj
 0002:00003740       _S                         10055740     libucrtd:ceil_pentium4.obj
 0002:00003750       _NegZero                   10055750     libucrtd:ceil_pentium4.obj
 0002:00003760       _One                       10055760     libucrtd:floor_pentium4.obj
 0002:00003770       _Bns                       10055770     libucrtd:floor_pentium4.obj
 0002:00003780       _NegOne                    10055780     libucrtd:floor_pentium4.obj
 0002:00003790       _NegZero                   10055790     libucrtd:floor_pentium4.obj
 0002:000037a0       _S                         100557a0     libucrtd:floor_pentium4.obj
 0002:000037b0       ?_names@?1??_get_fname@@9@9 100557b0     libucrtd:fpexcept.obj
 0002:00003bd8       ___acrt_initializers       10055bd8     libucrtd:initialization.obj
 0002:00003c50       _block_use_names           10055c50     libucrtd:debug_heap.obj
 0002:00004ce0       _report_type_messages      10056ce0     libucrtd:dbgrpt.obj
 0002:00004d2c       _more_info_string          10056d2c     libucrtd:dbgrpt.obj
 0002:00005034       ?empty_string@?BB@???$common_message_window@D@@YAHHQAXQBD111@Z@4QBDB 10057034     libucrtd:dbgrpt.obj
 0002:00005168       ?empty_string@?BB@???$common_message_window@_W@@YAHHQAXQB_W111@Z@4QB_WB 10057168     libucrtd:dbgrpt.obj
 0002:00008498       ?mask@?3??_fd_int@@9@9     1005a498     libucrtd:_test.obj
 0002:000084b8       ?sub@?3??_fd_int@@9@9      1005a4b8     libucrtd:_test.obj
 0002:00008870       _errtable                  1005a870     libucrtd:errno.obj
 0002:00009020       DblMax                     1005b020     libucrtd:87cdisp.obj
 0002:00009028       DblMin                     1005b028     libucrtd:87cdisp.obj
 0002:00009030       IeeeAdjO                   1005b030     libucrtd:87cdisp.obj
 0002:00009038       IeeeAdjU                   1005b038     libucrtd:87cdisp.obj
 0002:00009040       _infinity                  1005b040     libucrtd:87cdisp.obj
 0002:00009048       _zero                      1005b048     libucrtd:87cdisp.obj
 0002:0000906e       One                        1005b06e     libucrtd:87disp.obj
 0002:00009076       Three                      1005b076     libucrtd:87disp.obj
 0002:0000907e       XAMtoTagTab                1005b07e     libucrtd:87disp.obj
 0002:00009090       _NAME_                     1005b090     libucrtd:acos.obj
 0002:0000a7a0       _NAME_                     1005c7a0     libucrtd:cos.obj
 0002:0000afb0       POW_name                   1005cfb0     libucrtd:pow.obj
 0002:0000e840       _NAME_                     10060840     libucrtd:sin.obj
 0002:0000e850       _NAME_                     10060850     libucrtd:sqrt.obj
 0002:0000e858       _newcw                     10060858     libucrtd:ceil.obj
 0002:0000e85c       _newcw                     1006085c     libucrtd:floor.obj
 0002:0000e878       _over                      10060878     libucrtd:fpctrl.obj
 0002:0000e884       _under                     10060884     libucrtd:fpctrl.obj
 0002:0000e8d0       _module_names              100608d0     libucrtd:winapi_thunks.obj
 0002:0000edac       ?candidate_modules@?1??try_get_FlsAlloc@@YAP6GKP6GXPAX@Z@ZXZ@4QBW4module_id@?A0x391cf84c@@B 10060dac     libucrtd:winapi_thunks.obj
 0002:0000edb4       ?candidate_modules@?1??try_get_FlsFree@@YAP6GHK@ZXZ@4QBW4module_id@?A0x391cf84c@@B 10060db4     libucrtd:winapi_thunks.obj
 0002:0000edbc       ?candidate_modules@?1??try_get_FlsGetValue@@YAP6GPAXK@ZXZ@4QBW4module_id@?A0x391cf84c@@B 10060dbc     libucrtd:winapi_thunks.obj
 0002:0000edc4       ?candidate_modules@?1??try_get_FlsSetValue@@YAP6GHKPAX@ZXZ@4QBW4module_id@?A0x391cf84c@@B 10060dc4     libucrtd:winapi_thunks.obj
 0002:0000edcc       ?candidate_modules@?1??try_get_GetActiveWindow@@YAP6GPAUHWND__@@XZXZ@4QBW4module_id@?A0x391cf84c@@B 10060dcc     libucrtd:winapi_thunks.obj
 0002:0000ede4       ?candidate_modules@?1??try_get_GetCurrentPackageId@@YAP6GJPAIPAE@ZXZ@4QBW4module_id@?A0x391cf84c@@B 10060de4     libucrtd:winapi_thunks.obj
 0002:0000ee00       ?candidate_modules@?1??try_get_GetLastActivePopup@@YAP6GPAUHWND__@@PAU2@@ZXZ@4QBW4module_id@?A0x391cf84c@@B 10060e00     libucrtd:winapi_thunks.obj
 0002:0000ee1c       ?candidate_modules@?1??try_get_GetProcessWindowStation@@YAP6GPAUHWINSTA__@@XZXZ@4QBW4module_id@?A0x391cf84c@@B 10060e1c     libucrtd:winapi_thunks.obj
 0002:0000ee3c       ?candidate_modules@?1??try_get_GetUserObjectInformationW@@YAP6GHPAXH0KPAK@ZXZ@4QBW4module_id@?A0x391cf84c@@B 10060e3c     libucrtd:winapi_thunks.obj
 0002:0000ee60       ?candidate_modules@?1??try_get_InitializeCriticalSectionEx@@YAP6GHPAU_RTL_CRITICAL_SECTION@@KK@ZXZ@4QBW4module_id@?A0x391cf84c@@B 10060e60     libucrtd:winapi_thunks.obj
 0002:0000ee68       ?candidate_modules@?1??try_get_LCMapStringEx@@YAP6GHPB_WK0HPA_WHPAU_nlsversioninfo@@PAXJ@ZXZ@4QBW4module_id@?A0x391cf84c@@B 10060e68     libucrtd:winapi_thunks.obj
 0002:0000ee80       ?candidate_modules@?1??try_get_LocaleNameToLCID@@YAP6GKPB_WK@ZXZ@4QBW4module_id@?A0x391cf84c@@B 10060e80     libucrtd:winapi_thunks.obj
 0002:0000ee9c       ?candidate_modules@?1??try_get_MessageBoxA@@YAP6GHPAUHWND__@@PBD1I@ZXZ@4QBW4module_id@?A0x391cf84c@@B 10060e9c     libucrtd:winapi_thunks.obj
 0002:0000eeb0       ?candidate_modules@?1??try_get_MessageBoxW@@YAP6GHPAUHWND__@@PB_W1I@ZXZ@4QBW4module_id@?A0x391cf84c@@B 10060eb0     libucrtd:winapi_thunks.obj
 0002:0000ef34       __mb_locale_names          10060f34     libucrtd:mbctype.obj
 0002:00010e90       Shifter                    10062e90     libucrtd:acos_pentium4.obj
 0002:00010ea0       PI_BY_2                    10062ea0     libucrtd:acos_pentium4.obj
 0002:00010eb0       NEG_PI                     10062eb0     libucrtd:acos_pentium4.obj
 0002:00010ec0       PI                         10062ec0     libucrtd:acos_pentium4.obj
 0002:00010ed0       SIGNMASK                   10062ed0     libucrtd:acos_pentium4.obj
 0002:00010ee0       HALFMASK                   10062ee0     libucrtd:acos_pentium4.obj
 0002:00010ef0       HALFMASK2                  10062ef0     libucrtd:acos_pentium4.obj
 0002:00010f00       cv                         10062f00     libucrtd:acos_pentium4.obj
 0002:00010f20       cv2                        10062f20     libucrtd:acos_pentium4.obj
 0002:00010f60       ABSVALMASK                 10062f60     libucrtd:acos_pentium4.obj
 0002:00010f68       TMASK                      10062f68     libucrtd:acos_pentium4.obj
 0002:00010f70       ONEMASK                    10062f70     libucrtd:acos_pentium4.obj
 0002:00010f78       ONE_BY_2                   10062f78     libucrtd:acos_pentium4.obj
 0002:00010f80       EMIN                       10062f80     libucrtd:acos_pentium4.obj
 0002:00010f88       MAX_ARG                    10062f88     libucrtd:acos_pentium4.obj
 0002:00010f90       MIN_ARG                    10062f90     libucrtd:acos_pentium4.obj
 0002:00010f98       INF                        10062f98     libucrtd:acos_pentium4.obj
 0002:00010fa0       ZERO                       10062fa0     libucrtd:acos_pentium4.obj
 0002:00010fa8       ALPHA                      10062fa8     libucrtd:acos_pentium4.obj
 0002:00010fb0       One                        10062fb0     libucrtd:common.obj
 0002:00010fc4       DblMax                     10062fc4     libucrtd:common.obj
 0002:00010fcc       DblMin                     10062fcc     libucrtd:common.obj
 0002:00010fd4       IeeeAdjO                   10062fd4     libucrtd:common.obj
 0002:00010fdc       IeeeAdjU                   10062fdc     libucrtd:common.obj
 0002:00010fe4       _infinity                  10062fe4     libucrtd:common.obj
 0002:00010fec       _zero                      10062fec     libucrtd:common.obj
 0002:00011000       SC_1                       10063000     libucrtd:cos_pentium4.obj
 0002:00011010       SC_2                       10063010     libucrtd:cos_pentium4.obj
 0002:00011020       SC_3                       10063020     libucrtd:cos_pentium4.obj
 0002:00011030       SC_4                       10063030     libucrtd:cos_pentium4.obj
 0002:00011040       PI32INV                    10063040     libucrtd:cos_pentium4.obj
 0002:00011048       SHIFTER                    10063048     libucrtd:cos_pentium4.obj
 0002:00011050       P_2                        10063050     libucrtd:cos_pentium4.obj
 0002:00011060       P_1                        10063060     libucrtd:cos_pentium4.obj
 0002:00011068       P_3                        10063068     libucrtd:cos_pentium4.obj
 0002:00011070       TWO_POW_55                 10063070     libucrtd:cos_pentium4.obj
 0002:00011078       TWO_POW_M55                10063078     libucrtd:cos_pentium4.obj
 0002:00011080       ALL_ONES                   10063080     libucrtd:cos_pentium4.obj
 0002:00011088       NEG_ZERO                   10063088     libucrtd:cos_pentium4.obj
 0002:00011090       ONE                        10063090     libucrtd:cos_pentium4.obj
 0002:000110a0       SIGN_MASK                  100630a0     libucrtd:cos_pentium4.obj
 0002:000110b0       Shifter                    100630b0     libucrtd:pow_pentium4.obj
 0002:000110c0       SIGMASK                    100630c0     libucrtd:pow_pentium4.obj
 0002:000110d0       ONEMASK                    100630d0     libucrtd:pow_pentium4.obj
 0002:000110e0       ABSVALMASK                 100630e0     libucrtd:pow_pentium4.obj
 0002:000110f0       cev                        100630f0     libucrtd:pow_pentium4.obj
 0002:00011118       HALFSIG                    10063118     libucrtd:pow_pentium4.obj
 0002:00011120       LHN                        10063120     libucrtd:pow_pentium4.obj
 0002:00011128       sNaN                       10063128     libucrtd:pow_pentium4.obj
 0002:00011130       INF                        10063130     libucrtd:pow_pentium4.obj
 0002:00011138       NEG_INF                    10063138     libucrtd:pow_pentium4.obj
 0002:00011140       NEG_ZERO                   10063140     libucrtd:pow_pentium4.obj
 0002:00011148       NEG_BIG                    10063148     libucrtd:pow_pentium4.obj
 0002:00011150       POS_BIG                    10063150     libucrtd:pow_pentium4.obj
 0002:00011158       EMIN                       10063158     libucrtd:pow_pentium4.obj
 0002:00011160       QIND                       10063160     libucrtd:pow_pentium4.obj
 0002:0001118e       _log2max                   1006318e     libucrtd:87tran.obj
 0002:00011198       _smallarg                  10063198     libucrtd:87tran.obj
 0002:000111a2       _half                      100631a2     libucrtd:87tran.obj
 0002:000111d0       SC_1                       100631d0     libucrtd:sin_pentium4.obj
 0002:000111e0       SC_2                       100631e0     libucrtd:sin_pentium4.obj
 0002:000111f0       SC_3                       100631f0     libucrtd:sin_pentium4.obj
 0002:00011200       SC_4                       10063200     libucrtd:sin_pentium4.obj
 0002:00011210       PI32INV                    10063210     libucrtd:sin_pentium4.obj
 0002:00011218       SHIFTER                    10063218     libucrtd:sin_pentium4.obj
 0002:00011220       P_2                        10063220     libucrtd:sin_pentium4.obj
 0002:00011230       P_1                        10063230     libucrtd:sin_pentium4.obj
 0002:00011238       P_3                        10063238     libucrtd:sin_pentium4.obj
 0002:00011240       TWO_POW_55                 10063240     libucrtd:sin_pentium4.obj
 0002:00011248       TWO_POW_M55                10063248     libucrtd:sin_pentium4.obj
 0002:00011250       ALL_ONES                   10063250     libucrtd:sin_pentium4.obj
 0002:00011258       NEG_ZERO                   10063258     libucrtd:sin_pentium4.obj
 0002:00011260       ONE                        10063260     libucrtd:sin_pentium4.obj
 0002:00011498       _LcidToLocaleNameTable     10063498     libucrtd:lcidtoname_downlevel.obj
 0002:000125c0       _LocaleNameToIndexTable    100645c0     libucrtd:lcidtoname_downlevel.obj
 0002:00015510       LOG_name                   10067510     libucrtd:log10.obj
 0002:00015630       emask                      10067630     libucrtd:log10_pentium4.obj
 0002:00015640       CC                         10067640     libucrtd:log10_pentium4.obj
 0002:00015650       Magic                      10067650     libucrtd:log10_pentium4.obj
 0002:00015660       hi_mask                    10067660     libucrtd:log10_pentium4.obj
 0002:00015670       LOG10_2                    10067670     libucrtd:log10_pentium4.obj
 0002:00015680       place_L                    10067680     libucrtd:log10_pentium4.obj
 0002:000156a0       One                        100676a0     libucrtd:log10_pentium4.obj
 0002:000156b0       Zero                       100676b0     libucrtd:log10_pentium4.obj
 0002:000156c0       Two52                      100676c0     libucrtd:log10_pentium4.obj
 0002:000156d0       Infs                       100676d0     libucrtd:log10_pentium4.obj
 0002:000156e0       NaN                        100676e0     libucrtd:log10_pentium4.obj
 0002:000156f0       coeff                      100676f0     libucrtd:log10_pentium4.obj
 0002:00016064       ?ExceptionTemplate@?1??_CxxThrowException@@9@8@4UEHExceptionRecord@@B 10068064     libvcruntimed:throw.obj
 0002:00016250       ?_TlgEvent@?3??__telemetry_main_invoke_trigger@@9@4U<unnamed-type-_TlgEvent>@?3??1@YAXQAUHINSTANCE__@@@Z@B 10068250     libvcruntimed:telemetry.obj
 0002:0001628c       ?_TlgEvent@?3??__telemetry_main_return_trigger@@9@4U<unnamed-type-_TlgEvent>@?3??1@YAXQAUHINSTANCE__@@@Z@B 1006828c     libvcruntimed:telemetry.obj
 0002:000162c7       ?_Tlg_Microsoft_CRTProviderProv_Meta@@3U<unnamed-type-_Tlg_Microsoft_CRTProviderProv_Meta>@@B 100682c7     libvcruntimed:telemetry.obj
 0002:00016658       __sehtable$?dllmain_crt_process_attach@@YAHQAUHINSTANCE__@@QAX@Z 10068658     LIBCMTD:dll_dllmain.obj
 0002:00016678       __sehtable$?dllmain_crt_process_detach@@YAH_N@Z 10068678     LIBCMTD:dll_dllmain.obj
 0002:00016698       __sehtable$?dllmain_dispatch@@YAHQAUHINSTANCE__@@KQAX@Z 10068698     LIBCMTD:dll_dllmain.obj
 0002:000166b8       __sehtable$___scrt_is_nonwritable_in_current_image 100686b8     LIBCMTD:utility.obj
 0002:000166d8       __sehtable$?common_exit@@YAXHW4_crt_exit_cleanup_mode@@W4_crt_exit_return_mode@@@Z 100686d8     libucrtd:exit.obj
 0002:00016700       __sehtable$??$?RV<lambda_821a00fc0e15a7fd532972332124005d>@@AAV<lambda_942beefa13ab35ff55f86422493ffd6a>@@V<lambda_3ab53bf64df1f1ff33dbc5b1929ce7a7>@@@?$__crt_seh_guarded_call@H@@QAEH$$QAV<lambda_821a00fc0e15a7fd532972332124005d>@@AAV<lambda_942beefa13ab35ff55f86422493ffd6a>@@$$QAV<lambda_3ab53bf64df1f1ff33dbc5b1929ce7a7>@@@Z 10068700     libucrtd:onexit.obj
 0002:00016720       __sehtable$??$?RV<lambda_a12890e7f9ac9927a62bd0bbd5044c78>@@AAV<lambda_e971338317bfa523bb8920b43d823727>@@V<lambda_e618b16d59e79e236350cab8485990d2>@@@?$__crt_seh_guarded_call@H@@QAEH$$QAV<lambda_a12890e7f9ac9927a62bd0bbd5044c78>@@AAV<lambda_e971338317bfa523bb8920b43d823727>@@$$QAV<lambda_e618b16d59e79e236350cab8485990d2>@@@Z 10068720     libucrtd:onexit.obj
 0002:00016740       __sehtable$_terminate      10068740     libucrtd:terminate.obj
 0002:00016760       __sehtable$__CrtCheckMemory 10068760     libucrtd:debug_heap.obj
 0002:00016780       __sehtable$__CrtMemCheckpoint 10068780     libucrtd:debug_heap.obj
 0002:000167a0       __sehtable$__CrtMemDumpAllObjectsSince 100687a0     libucrtd:debug_heap.obj
 0002:000167c0       __sehtable$__CrtSetDbgFlag 100687c0     libucrtd:debug_heap.obj
 0002:000167e0       __sehtable$__free_dbg      100687e0     libucrtd:debug_heap.obj
 0002:00016800       __sehtable$__msize_dbg     10068800     libucrtd:debug_heap.obj
 0002:00016820       __sehtable$__realloc_dbg   10068820     libucrtd:debug_heap.obj
 0002:00016840       __sehtable$?is_bad_read_pointer@@YA_NQBXI@Z 10068840     libucrtd:debug_heap.obj
 0002:00016860       __sehtable$?validate_heap_if_required_nolock@@YAXXZ 10068860     libucrtd:debug_heap.obj
 0002:00016880       __sehtable$?heap_alloc_dbg_internal@@YAPAXIHQBDH@Z 10068880     libucrtd:debug_heap.obj
 0002:000168a0       __sehtable$??$?RV<lambda_ab9923ffb5d694ec0d78876dd103e44f>@@AAV<lambda_481dd5778c961fbcd3b60b650e9b9dc4>@@V<lambda_7923d86c9e3f319b415918ec4b39749c>@@@?$__crt_seh_guarded_call@H@@QAEH$$QAV<lambda_ab9923ffb5d694ec0d78876dd103e44f>@@AAV<lambda_481dd5778c961fbcd3b60b650e9b9dc4>@@$$QAV<lambda_7923d86c9e3f319b415918ec4b39749c>@@@Z 100688a0     libucrtd:output.obj
 0002:000168c0       __sehtable$_fflush         100688c0     libucrtd:fflush.obj
 0002:000168e0       __sehtable$_common_flush_all 100688e0     libucrtd:fflush.obj
 0002:00016908       __sehtable$??$?RV<lambda_c58464cc0393550ab06f01720b646001>@@AAV<lambda_108d78a972a15edee025c8b3efe121dc>@@V<lambda_1a39be00af773e7199199dafcba04cc5>@@@?$__crt_seh_guarded_call@H@@QAEH$$QAV<lambda_c58464cc0393550ab06f01720b646001>@@AAV<lambda_108d78a972a15edee025c8b3efe121dc>@@$$QAV<lambda_1a39be00af773e7199199dafcba04cc5>@@@Z 10068908     libucrtd:setvbuf.obj
 0002:00016928       __sehtable$_raise          10068928     libucrtd:signal.obj
 0002:00016948       __sehtable$??$?RV<lambda_a048d3beccc847880fc8490e18b82769>@@AAV<lambda_ec61778202f4f5fc7e7711acc23c3bca>@@V<lambda_f7496a158712204296dd6628a163878e>@@@?$__crt_seh_guarded_call@P6AXH@Z@@QAEP6AXH@Z$$QAV<lambda_a048d3beccc847880fc8490e18b82769>@@AAV<lambda_ec61778202f4f5fc7e7711acc23c3bca>@@$$QAV<lambda_f7496a158712204296dd6628a163878e>@@@Z 10068948     libucrtd:signal.obj
 0002:00016968       __sehtable$??$?RV<lambda_9df27f884b057bc3edfc946cb5b7cf47>@@AAV<lambda_e69574bed617af4e071282c136b37893>@@V<lambda_cc0d902bcbbeb830f749456577db4721>@@@?$__crt_seh_guarded_call@X@@QAEX$$QAV<lambda_9df27f884b057bc3edfc946cb5b7cf47>@@AAV<lambda_e69574bed617af4e071282c136b37893>@@$$QAV<lambda_cc0d902bcbbeb830f749456577db4721>@@@Z 10068968     libucrtd:per_thread_data.obj
 0002:00016988       __sehtable$??$?RV<lambda_3518db117f0e7cdb002338c5d3c47b6c>@@AAV<lambda_b2ea41f6bbb362cd97d94c6828d90b61>@@V<lambda_abdedf541bb04549bc734292b4a045d4>@@@?$__crt_seh_guarded_call@X@@QAEX$$QAV<lambda_3518db117f0e7cdb002338c5d3c47b6c>@@AAV<lambda_b2ea41f6bbb362cd97d94c6828d90b61>@@$$QAV<lambda_abdedf541bb04549bc734292b4a045d4>@@@Z 10068988     libucrtd:per_thread_data.obj
 0002:000169a8       __sehtable$??$?RV<lambda_952b238c83a62ef8e81c72265e1e9aa0>@@AAV<lambda_801f60a70ab65355beb13c41cbe335bb>@@V<lambda_84d84f98815add542a0d6e6ca338feb2>@@@?$__crt_seh_guarded_call@X@@QAEX$$QAV<lambda_952b238c83a62ef8e81c72265e1e9aa0>@@AAV<lambda_801f60a70ab65355beb13c41cbe335bb>@@$$QAV<lambda_84d84f98815add542a0d6e6ca338feb2>@@@Z 100689a8     libucrtd:per_thread_data.obj
 0002:000169c8       __sehtable$??$?RV<lambda_5b71d36f03204c0beab531769a5b5694>@@AAV<lambda_be2b3da3f62db62e9dad5dc70221a656>@@V<lambda_8f9ce462984622f9bf76b59e2aaaf805>@@@?$__crt_seh_guarded_call@X@@QAEX$$QAV<lambda_5b71d36f03204c0beab531769a5b5694>@@AAV<lambda_be2b3da3f62db62e9dad5dc70221a656>@@$$QAV<lambda_8f9ce462984622f9bf76b59e2aaaf805>@@@Z 100689c8     libucrtd:per_thread_data.obj
 0002:000169e8       __sehtable$?update_thread_multibyte_data_internal@@YAPAU__crt_multibyte_data@@QAU__acrt_ptd@@QAU1@@Z 100689e8     libucrtd:mbctype.obj
 0002:00016a08       __sehtable$??$?RV<lambda_d80abc18c428629cddc270f096dcc61b>@@AAV<lambda_3f8189bce64b4997e9cacee8178dce4a>@@V<lambda_fdb30781f88e85fcd814d1d789f55c14>@@@?$__crt_seh_guarded_call@X@@QAEX$$QAV<lambda_d80abc18c428629cddc270f096dcc61b>@@AAV<lambda_3f8189bce64b4997e9cacee8178dce4a>@@$$QAV<lambda_fdb30781f88e85fcd814d1d789f55c14>@@@Z 10068a08     libucrtd:mbctype.obj
 0002:00016a28       __sehtable$___acrt_initialize_lowio 10068a28     libucrtd:ioinit.obj
 0002:00016a48       __sehtable$__query_new_handler 10068a48     libucrtd:new_handler.obj
 0002:00016a68       __sehtable$??$?RV<lambda_4393c4b5ef78814305fd0c1b31d2e9a8>@@AAV<lambda_85fa512c59a4d94d4a89f575eefd92a6>@@V<lambda_8f70eeb8060c49130c088d3137313000>@@@?$__crt_seh_guarded_call@X@@QAEX$$QAV<lambda_4393c4b5ef78814305fd0c1b31d2e9a8>@@AAV<lambda_85fa512c59a4d94d4a89f575eefd92a6>@@$$QAV<lambda_8f70eeb8060c49130c088d3137313000>@@@Z 10068a68     libucrtd:wsetlocale.obj
 0002:00016a88       __sehtable$__VCrtDbgReportA 10068a88     libucrtd:dbgrptt.obj
 0002:00016ab0       __sehtable$__VCrtDbgReportW 10068ab0     libucrtd:dbgrptt.obj
 0002:00016ad8       __unwindtable$?fp_format_a@@YAHQBNPADIQADIH_NIQAU__crt_locale_pointers@@@Z 10068ad8     libucrtd:cvt.obj
 0002:00016ae0       __ehfuncinfo$?fp_format_a@@YAHQBNPADIQADIH_NIQAU__crt_locale_pointers@@@Z 10068ae0     libucrtd:cvt.obj
 0002:00016b08       __sehtable$__fcloseall     10068b08     libucrtd:closeall.obj
 0002:00016b28       __sehtable$??$?RV<lambda_a7d5e04a8e766f2a135287cf7b01dfe7>@@AAV<lambda_e9ab68cc08dfd839979545c079379e6e>@@V<lambda_14e08a59e78d15c51edeee53d25fb3be>@@@?$__crt_seh_guarded_call@H@@QAEH$$QAV<lambda_a7d5e04a8e766f2a135287cf7b01dfe7>@@AAV<lambda_e9ab68cc08dfd839979545c079379e6e>@@$$QAV<lambda_14e08a59e78d15c51edeee53d25fb3be>@@@Z 10068b28     libucrtd:commit.obj
 0002:00016b48       __sehtable$__write         10068b48     libucrtd:write.obj
 0002:00016b68       __sehtable$___acrt_update_thread_locale_data 10068b68     libucrtd:locale_refcounting.obj
 0002:00016b88       __sehtable$___acrt_lowio_ensure_fh_exists 10068b88     libucrtd:osfinfo.obj
 0002:00016ba4       __unwindtable$?_wcstombs_l_helper@@YAIPADPB_WIPAU__crt_locale_pointers@@@Z 10068ba4     libucrtd:wcstombs.obj
 0002:00016bac       __ehfuncinfo$?_wcstombs_l_helper@@YAIPADPB_WIPAU__crt_locale_pointers@@@Z 10068bac     libucrtd:wcstombs.obj
 0002:00016bd0       __sehtable$_fclose         10068bd0     libucrtd:fclose.obj
 0002:00016bf0       __sehtable$??$common_lseek@_J@@YA_JH_JH@Z 10068bf0     libucrtd:lseek.obj
 0002:00016c10       __sehtable$??$?RV<lambda_4d8dda1ac129e11742d77ae5e3bbda74>@@AAV<lambda_a8f98972ebaa5f7148d35bffe53bd70d>@@V<lambda_5193b64c98d743723bd5dcf162a72339>@@@?$__crt_seh_guarded_call@H@@QAEH$$QAV<lambda_4d8dda1ac129e11742d77ae5e3bbda74>@@AAV<lambda_a8f98972ebaa5f7148d35bffe53bd70d>@@$$QAV<lambda_5193b64c98d743723bd5dcf162a72339>@@@Z 10068c10     libucrtd:close.obj
 0002:00016c30       __sehtable$__IsNonwritableInCurrentImage 10068c30     LIBCMTD:pesect.obj
 0002:00016c50       __sehtable$___FrameUnwindToState 10068c50     libvcruntimed:frame.obj
 0002:00016c78       __sehtable$?CallCatchBlock@@YAPAXPAUEHExceptionRecord@@PAUEHRegistrationNode@@PAU_CONTEXT@@PBU_s_FuncInfo@@PAXHK@Z 10068c78     libvcruntimed:frame.obj
 0002:00016ca0       __sehtable$___BuildCatchObject 10068ca0     libvcruntimed:frame.obj
 0002:00016cc0       __sehtable$___DestructExceptionObject 10068cc0     libvcruntimed:frame.obj
 0002:00016cdc       __catchsym$?CallUnexpected@@YAXPBU_s_ESTypeList@@@Z$2 10068cdc     libvcruntimed:frame.obj
 0002:00016cec       __unwindtable$?CallUnexpected@@YAXPBU_s_ESTypeList@@@Z 10068cec     libvcruntimed:frame.obj
 0002:00016cfc       __tryblocktable$?CallUnexpected@@YAXPBU_s_ESTypeList@@@Z 10068cfc     libvcruntimed:frame.obj
 0002:00016d10       __ehfuncinfo$?CallUnexpected@@YAXPBU_s_ESTypeList@@@Z 10068d10     libvcruntimed:frame.obj
 0002:00016d38       __sehtable$___BuildCatchObjectHelper 10068d38     libvcruntimed:frame.obj
 0002:00016db0       .edata                     10068db0     app.exp
 0002:00016dd8       rgpv                       10068dd8     app.exp
 0002:00016de0       rgszName                   10068de0     app.exp
 0002:00016de8       rgwOrd                     10068de8     app.exp
 0002:00016dec       szName                     10068dec     app.exp
 0002:00016df4       $N00001                    10068df4     app.exp
 0002:00016e07       $N00002                    10068e07     app.exp
 0002:0001703e       .idata$6                   1006903e     OpenGL32:OPENGL32.dll
 0002:0001717a       .idata$6                   1006917a     kernel32:KERNEL32.dll
 0002:00017590       .idata$6                   10069590     advapi32:ADVAPI32.dll
 0003:00000000       ?RandomNumberTable@@3PAIA  1006a000     app.obj
 0003:00004020       ?_Tlg_Microsoft_CRTProviderProv@@3U_TlgProvider_t@__vcrt_trace_logging_provider@@A 1006e020     libvcruntimed:telemetry.obj
 0003:00004060       ?__vcrt_flsindex@@3KA      1006e060     libvcruntimed:per_thread_data.obj
 0003:00004080       ___acrt_current_request_number 1006e080     libucrtd:debug_heap.obj
 0003:00004094       _errno_no_memory           1006e094     libucrtd:errno.obj
 0003:00004098       _doserrno_no_memory        1006e098     libucrtd:errno.obj
 0003:00004150       ___acrt_flsindex           1006e150     libucrtd:per_thread_data.obj
 0003:00004158       __mbctypes                 1006e158     libucrtd:mbctype.obj
 0003:00004260       __mbcasemaps               1006e260     libucrtd:mbctype.obj
 0003:00004360       ___rgctypeflag             1006e360     libucrtd:mbctype.obj
 0003:00004368       ___rgcode_page_info        1006e368     libucrtd:mbctype.obj
 0003:00004770       ___acrt_debug_fill_threshold 1006e770     libucrtd:debug_fill_threshold.obj
 0003:00004868       ?Platform@@3Uplatform_api@@A 1006e868     app.obj
 0003:0000488c       ?__proc_attached@@3HA      1006e88c     LIBCMTD:dll_dllmain.obj
 0003:00004890       _GS_ExceptionRecord        1006e890     LIBCMTD:gs_report.obj
 0003:000048e0       _GS_ContextRecord          1006e8e0     LIBCMTD:gs_report.obj
 0003:00004bbc       ?module_local_atexit_table@@3U_onexit_table_t@@A 1006ebbc     LIBCMTD:utility.obj
 0003:00004bc8       ?module_local_at_quick_exit_table@@3U_onexit_table_t@@A 1006ebc8     LIBCMTD:utility.obj
 0003:00004bd4       ?is_initialized_as_dll@@3_NA 1006ebd4     LIBCMTD:utility.obj
 0003:00004bf4       ?module_handles@@3PAPAUHINSTANCE__@@A 1006ebf4     libvcruntimed:winapi_downlevel.obj
 0003:00004c04       ?encoded_function_pointers@@3PAPAXA 1006ec04     libvcruntimed:winapi_downlevel.obj
 0003:00004c28       ?__vcrt_startup_thread_ptd@@3U__vcrt_ptd@@A 1006ec28     libvcruntimed:per_thread_data.obj
 0003:00004c50       ___vcrt_lock_table         1006ec50     libvcruntimed:locks.obj
 0003:00004c68       ___vcrt_locks_initialized  1006ec68     libvcruntimed:locks.obj
 0003:00004c98       ?heap@@3V_HeapManager@@A   1006ec98     libvcruntimed:undname.obj
 0003:00004cac       _c_termination_complete    1006ecac     libucrtd:exit.obj
 0003:00004cb0       _thread_local_exit_callback_func 1006ecb0     libucrtd:exit.obj
 0003:00004cb4       ?c_exit_complete@?5??common_exit@@YAXHW4_crt_exit_cleanup_mode@@W4_crt_exit_return_mode@@@Z@4_NA 1006ecb4     libucrtd:exit.obj
 0003:00004ce0       ___acrt_first_block        1006ece0     libucrtd:debug_heap.obj
 0003:00004ce4       ___acrt_last_block         1006ece4     libucrtd:debug_heap.obj
 0003:00004ce8       ___acrt_total_allocations  1006ece8     libucrtd:debug_heap.obj
 0003:00004cec       ___acrt_current_allocations 1006ecec     libucrtd:debug_heap.obj
 0003:00004cf0       ___acrt_max_allocations    1006ecf0     libucrtd:debug_heap.obj
 0003:00004cf4       ___acrt_check_frequency    1006ecf4     libucrtd:debug_heap.obj
 0003:00004cf8       ___acrt_check_counter      1006ecf8     libucrtd:debug_heap.obj
 0003:00004d00       _heap_validation_pending   1006ed00     libucrtd:debug_heap.obj
 0003:00004d04       ___acrt_invalid_parameter_handler 1006ed04     libucrtd:invalid_parameter.obj
 0003:00004d08       ___acrt_app_type           1006ed08     libucrtd:report_runtime_error.obj
 0003:00004d10       ?outmsg@?9??__acrt_report_runtime_error@@9@4PA_WA 1006ed10     libucrtd:report_runtime_error.obj
 0003:00005338       ___acrt_error_mode         1006f338     libucrtd:set_error_mode.obj
 0003:00005348       _ctrlc_action              1006f348     libucrtd:signal.obj
 0003:0000534c       _ctrlbreak_action          1006f34c     libucrtd:signal.obj
 0003:00005350       _abort_action              1006f350     libucrtd:signal.obj
 0003:00005354       _term_action               1006f354     libucrtd:signal.obj
 0003:00005358       __pmatherr_set             1006f358     libucrtd:libm_error.obj
 0003:0000535c       _user_matherr              1006f35c     libucrtd:matherr.obj
 0003:00005360       ___acrt_lock_table         1006f360     libucrtd:locks.obj
 0003:00005498       ___acrt_locks_initialized  1006f498     libucrtd:locks.obj
 0003:000054a0       _module_handles            1006f4a0     libucrtd:winapi_thunks.obj
 0003:000054f0       _encoded_function_pointers 1006f4f0     libucrtd:winapi_thunks.obj
 0003:0000556c       ?state_cache@?1??__acrt_is_packaged_app@@9@4JA 1006f56c     libucrtd:winapi_thunks.obj
 0003:0000557c       _fSystemSet                1006f57c     libucrtd:mbctype.obj
 0003:00005580       ?initialized@?1??__acrt_initialize_multibyte@@9@4_NA 1006f580     libucrtd:mbctype.obj
 0003:0000579c       ___acrt_new_handler        1006f79c     libucrtd:new_handler.obj
 0003:000057ac       ___acrt_global_new_mode    1006f7ac     libucrtd:new_mode.obj
 0003:000057c0       _enable_percent_n          1006f7c0     libucrtd:printf_count_output.obj
 0004:00000000       __guard_fids____dcrt_uninitialize_environments_nolock 10070000     libucrtd:environment_initialization.obj
 0004:00000008       __guard_fids__             10070008     libucrtd:initialization.obj
 0004:00000068       __guard_fids_??$common_show_message_box@_W@@YAHQB_W0I@Z 10070068     libucrtd:crtmbox.obj
 0004:0000006c       __guard_fids____libm_error_support 1007006c     libucrtd:libm_error.obj
 0004:00000070       __guard_fids____acrt_initialize_ptd 10070070     libucrtd:per_thread_data.obj
 0004:00000074       __guard_fids__             10070074     libucrtd:debug_heap_hook.obj
 0004:00000078       __guard_fids__             10070078     libucrtd:stdio_initializer.obj
 0004:0000007c       __guard_fids__             1007007c     libucrtd:stdio_initializer.obj
 0004:00000080       __guard_fids__             10070080     libucrtd:sse2_initializer.obj
 0004:00000084       __guard_fids__             10070084     libucrtd:multibyte_initializer.obj
 0004:00000088       __guard_fids__             10070088     libucrtd:locale_initializer.obj
 0004:0000008c       __guard_fids__             1007008c     libucrtd:console_output_initializer.obj
 0004:00000090       __guard_fids_?dllmain_crt_process_attach@@YAHQAUHINSTANCE__@@QAX@Z 10070090     LIBCMTD:dll_dllmain.obj
 0004:00000098       __guard_fids_?dllmain_dispatch@@YAHQAUHINSTANCE__@@KQAX@Z 10070098     LIBCMTD:dll_dllmain.obj
 0004:0000009c       __guard_fids__             1007009c     LIBCMTD:guard_support.obj
 0004:000000a0       __guard_fids___guard_icall_checks_enforced 100700a0     LIBCMTD:guard_support.obj
 0004:000000a4       __guard_fids__             100700a4     libvcruntimed:telemetry.obj
 0004:000000a8       __guard_fids_?TraceLoggingRegister@__vcrt_trace_logging_provider@@YAJPBU_TlgProvider_t@1@PBU_GUID@@P6GX1KE_K2PAU_EVENT_FILTER_DESCRIPTOR@@PAX@Z4@Z 100700a8     libvcruntimed:telemetry.obj
 0004:000000ac       __guard_fids____vcrt_initialize_ptd 100700ac     libvcruntimed:per_thread_data.obj
 0004:000000b0       __guard_fids__             100700b0     LIBCMTD:std_type_info_static.obj
 0004:000000b4       __guard_fids__             100700b4     libvcruntimed:frame.obj
 0004:000000b8       __guard_fids__             100700b8     libvcruntimed:frame.obj
 0004:000000c0       __guard_fids__             100700c0     libvcruntimed:frame.obj
 0004:000000c8       __guard_fids__             100700c8     libvcruntimed:frame.obj
 0004:000000cc       __guard_fids__             100700cc     libvcruntimed:frame.obj
 0004:000000d0       __guard_fids__             100700d0     libvcruntimed:frame.obj
